 agentcore

 Timestamp is 5ce29715 (Mon May 20 17:31:25 2019)

 Preferred load address is 0000000180000000

 Start         Length     Name                   Class
 0001:00000000 000001b0H .text$di                CODE
 0001:000001b0 00014610H .text$mn                CODE
 0001:000147c0 00000020H .text$mn$00             CODE
 0001:000147e0 00000dc0H .text$x                 CODE
 0001:000155a0 00000070H .text$yd                CODE
 0002:00000000 00000468H .idata$5                DATA
 0002:00000468 00000010H .00cfg                  DATA
 0002:00000478 00000008H .CRT$XCA                DATA
 0002:00000480 00000008H .CRT$XCL                DATA
 0002:00000488 00000060H .CRT$XCU                DATA
 0002:000004e8 00000008H .CRT$XCZ                DATA
 0002:000004f0 00000008H .CRT$XIA                DATA
 0002:000004f8 00000008H .CRT$XIZ                DATA
 0002:00000500 00000008H .CRT$XPA                DATA
 0002:00000508 00000008H .CRT$XPZ                DATA
 0002:00000510 00000008H .CRT$XTA                DATA
 0002:00000518 00000008H .CRT$XTZ                DATA
 0002:00000520 00000000H .gfids$y                DATA
 0002:00000520 00002660H .rdata                  DATA
 0002:00002b80 000001f4H .rdata$r                DATA
 0002:00002d74 00000354H .rdata$zzzdbg           DATA
 0002:000030c8 00000008H .rtc$IAA                DATA
 0002:000030d0 00000008H .rtc$IZZ                DATA
 0002:000030d8 00000008H .rtc$TAA                DATA
 0002:000030e0 00000010H .rtc$TZZ                DATA
 0002:000030f0 000029d8H .xdata                  DATA
 0002:00005ac8 000000f8H .xdata$x                DATA
 0002:00005bc0 00004384H .edata                  DATA
 0002:00009f44 000000dcH .idata$2                DATA
 0002:0000a020 00000018H .idata$3                DATA
 0002:0000a038 00000468H .idata$4                DATA
 0002:0000a4a0 000011ccH .idata$6                DATA
 0003:00000000 00000058H .data                   DATA
 0003:00000058 000000a8H .data$r                 DATA
 0003:00000100 000006c0H .bss                    DATA
 0004:00000000 0000159cH .pdata                  DATA
 0005:00000000 00000060H .rsrc$01                DATA
 0005:00000060 00000180H .rsrc$02                DATA

  Address         Publics by Value              Rva+Base               Lib:Object

 0000:00000000       __guard_fids_count         0000000000000000     <absolute>
 0000:00000000       __guard_longjmp_count      0000000000000000     <absolute>
 0000:00000000       __hybrid_code_map          0000000000000000     <absolute>
 0000:00000000       __guard_iat_count          0000000000000000     <absolute>
 0000:00000000       __guard_longjmp_table      0000000000000000     <absolute>
 0000:00000000       __volatile_metadata        0000000000000000     <absolute>
 0000:00000000       __guard_iat_table          0000000000000000     <absolute>
 0000:00000000       __hybrid_code_map_count    0000000000000000     <absolute>
 0000:00000000       __enclave_config           0000000000000000     <absolute>
 0000:00000000       ___safe_se_handler_count   0000000000000000     <absolute>
 0000:00000000       ___safe_se_handler_table   0000000000000000     <absolute>
 0000:00000000       __dynamic_value_reloc_table 0000000000000000     <absolute>
 0000:00000000       __guard_fids_table         0000000000000000     <absolute>
 0000:00000000       __hybrid_auxiliary_iat     0000000000000000     <absolute>
 0000:00000100       __guard_flags              0000000000000100     <absolute>
 0000:00000000       __ImageBase                0000000180000000     <linker-defined>
 0001:000001b0       __local_stdio_printf_options 00000001800011b0 f i Logger.obj
 0001:000001c0       ??0Logger@common@ibmras@@QEAA@AEBV012@@Z 00000001800011c0 f i Logger.obj
 0001:00000210       ??4Logger@common@ibmras@@QEAAAEAV012@AEBV012@@Z 0000000180001210 f i Logger.obj
 0001:00000270       ??_ELogger@common@ibmras@@UEAAPEAXI@Z 0000000180001270 f i Logger.obj
 0001:00000310       ??0Logger@common@ibmras@@QEAA@AEBV?$basic_string@DU?$char_traits@D@std@@V?$allocator@D@2@@std@@P6AX0W4loggingLevel@@PEAV012@@Z@Z 0000000180001310 f   Logger.obj
 0001:00000350       ??1Logger@common@ibmras@@UEAA@XZ 0000000180001350 f   Logger.obj
 0001:000003c0       ?header@Logger@common@ibmras@@AEAAXAEAV?$basic_stringstream@DU?$char_traits@D@std@@V?$allocator@D@2@@std@@W4loggingLevel@@_N@Z 00000001800013c0 f   Logger.obj
 0001:00000510       ?log@Logger@common@ibmras@@QEAAXW4loggingLevel@@PEBDZZ 0000000180001510 f   Logger.obj
 0001:00000790       ??_D?$basic_stringstream@DU?$char_traits@D@std@@V?$allocator@D@2@@std@@QEAAXXZ 0000000180001790 f i Logger.obj
 0001:000007f0       ?logDebug@Logger@common@ibmras@@QEAAXW4loggingLevel@@PEBDZZ 00000001800017f0 f   Logger.obj
 0001:00000a70       ??1?$basic_string@DU?$char_traits@D@std@@V?$allocator@D@2@@std@@QEAA@XZ 0000000180001a70 f i Logger.obj
 0001:00000ad0       ??0?$basic_string@DU?$char_traits@D@std@@V?$allocator@D@2@@std@@QEAA@AEBV01@@Z 0000000180001ad0 f i Logger.obj
 0001:00000bb0       ??0?$basic_stringstream@DU?$char_traits@D@std@@V?$allocator@D@2@@std@@QEAA@H@Z 0000000180001bb0 f i Logger.obj
 0001:00000c70       ?seekpos@?$basic_stringbuf@DU?$char_traits@D@std@@V?$allocator@D@2@@std@@MEAA?AV?$fpos@U_Mbstatet@@@2@V32@H@Z 0000000180001c70 f i Logger.obj
 0001:00000d60       ?seekoff@?$basic_stringbuf@DU?$char_traits@D@std@@V?$allocator@D@2@@std@@MEAA?AV?$fpos@U_Mbstatet@@@2@_JHH@Z 0000000180001d60 f i Logger.obj
 0001:00000eb0       ?underflow@?$basic_stringbuf@DU?$char_traits@D@std@@V?$allocator@D@2@@std@@MEAAHXZ 0000000180001eb0 f i Logger.obj
 0001:00000f20       ?pbackfail@?$basic_stringbuf@DU?$char_traits@D@std@@V?$allocator@D@2@@std@@MEAAHH@Z 0000000180001f20 f i Logger.obj
 0001:00000f80       ?overflow@?$basic_stringbuf@DU?$char_traits@D@std@@V?$allocator@D@2@@std@@MEAAHH@Z 0000000180001f80 f i Logger.obj
 0001:00001180       ??1?$basic_stringbuf@DU?$char_traits@D@std@@V?$allocator@D@2@@std@@UEAA@XZ 0000000180002180 f i Logger.obj
 0001:00001240       ??_G?$basic_stringstream@DU?$char_traits@D@std@@V?$allocator@D@2@@std@@UEAAPEAXI@Z 0000000180002240 f i Logger.obj
 0001:00001240       ??_E?$basic_stringstream@DU?$char_traits@D@std@@V?$allocator@D@2@@std@@UEAAPEAXI@Z 0000000180002240 f i * CIL library *:* CIL module *
 0001:000012e0       ??_E?$basic_stringbuf@DU?$char_traits@D@std@@V?$allocator@D@2@@std@@UEAAPEAXI@Z 00000001800022e0 f i * CIL library *:* CIL module *
 0001:000012e0       ??_G?$basic_stringbuf@DU?$char_traits@D@std@@V?$allocator@D@2@@std@@UEAAPEAXI@Z 00000001800022e0 f i Logger.obj
 0001:00001320       ?assign@?$basic_string@DU?$char_traits@D@std@@V?$allocator@D@2@@std@@QEAAAEAV12@QEBD_K@Z 0000000180002320 f i Logger.obj
 0001:00001470       ??$?6U?$char_traits@D@std@@@std@@YAAEAV?$basic_ostream@DU?$char_traits@D@std@@@0@AEAV10@PEBD@Z 0000000180002470 f i Logger.obj
 0001:00001640       ??$?6U?$char_traits@D@std@@@std@@YAAEAV?$basic_ostream@DU?$char_traits@D@std@@@0@AEAV10@D@Z 0000000180002640 f i Logger.obj
 0001:000017d0       ??1sentry@?$basic_ostream@DU?$char_traits@D@std@@@std@@QEAA@XZ 00000001800027d0 f i Logger.obj
 0001:00001810       ?_Xlen@?$basic_string@DU?$char_traits@D@std@@V?$allocator@D@2@@std@@SAXXZ 0000000180002810 f i Logger.obj
 0001:00001830       ??1_Sentry_base@?$basic_istream@DU?$char_traits@D@std@@@std@@QEAA@XZ 0000000180002830 f i PropertiesFile.obj
 0001:00001830       ??1_Sentry_base@?$basic_ostream@DU?$char_traits@D@std@@@std@@QEAA@XZ 0000000180002830 f i Logger.obj
 0001:00001860       ??$_Insert_string@DU?$char_traits@D@std@@_K@std@@YAAEAV?$basic_ostream@DU?$char_traits@D@std@@@0@AEAV10@QEBD_K@Z 0000000180002860 f i Logger.obj
 0001:00001a10       ??_E?$basic_stringstream@DU?$char_traits@D@std@@V?$allocator@D@2@@std@@$4PPPPPPPM@A@EAAPEAXI@Z 0000000180002a10 f i Logger.obj
 0001:00001a20       ??4Lock@port@common@ibmras@@QEAAAEAV0123@AEBV0123@@Z 0000000180002a20 f i LogManager.obj
 0001:00001a30       ??1LogManager@common@ibmras@@QEAA@XZ 0000000180002a30 f i LogManager.obj
 0001:00001a90       ??0LogManager@common@ibmras@@QEAA@AEBV012@@Z 0000000180002a90 f i LogManager.obj
 0001:00001b30       ??0LogManager@common@ibmras@@QEAA@$$QEAV012@@Z 0000000180002b30 f i LogManager.obj
 0001:00001b80       ??4LogManager@common@ibmras@@QEAAAEAV012@AEBV012@@Z 0000000180002b80 f i LogManager.obj
 0001:00001bc0       ??4LogManager@common@ibmras@@QEAAAEAV012@$$QEAV012@@Z 0000000180002bc0 f i LogManager.obj
 0001:00001c40       ibmras_common_LogManager_getLogger 0000000180002c40 f   LogManager.obj
 0001:00001cf0       ??0LogManager@common@ibmras@@IEAA@XZ 0000000180002cf0 f   LogManager.obj
 0001:00001d10       ?processMsg@LogManager@common@ibmras@@AEAAXAEBV?$basic_string@DU?$char_traits@D@std@@V?$allocator@D@2@@std@@@Z 0000000180002d10 f   LogManager.obj
 0001:00001d70       ?msgHandler@LogManager@common@ibmras@@SAXAEBV?$basic_string@DU?$char_traits@D@std@@V?$allocator@D@2@@std@@W4loggingLevel@@PEAVLogger@23@@Z 0000000180002d70 f   LogManager.obj
 0001:00001de0       ?setLevel@LogManager@common@ibmras@@QEAAXW4loggingLevel@@@Z 0000000180002de0 f   LogManager.obj
 0001:00001e10       ?setLevel@LogManager@common@ibmras@@QEAAXAEBV?$basic_string@DU?$char_traits@D@std@@V?$allocator@D@2@@std@@W4loggingLevel@@@Z 0000000180002e10 f   LogManager.obj
 0001:00001ec0       ?getInstance@LogManager@common@ibmras@@SAPEAV123@XZ 0000000180002ec0 f   LogManager.obj
 0001:00001f50       ?getLogger@LogManager@common@ibmras@@SAPEAVLogger@23@AEBV?$basic_string@DU?$char_traits@D@std@@V?$allocator@D@2@@std@@@Z 0000000180002f50 f   LogManager.obj
 0001:00002010       ?setLevel@LogManager@common@ibmras@@QEAAXAEBV?$basic_string@DU?$char_traits@D@std@@V?$allocator@D@2@@std@@0@Z 0000000180003010 f   LogManager.obj
 0001:00002170       ?findLogger@LogManager@common@ibmras@@AEAAPEAVLogger@23@AEBV?$basic_string@DU?$char_traits@D@std@@V?$allocator@D@2@@std@@@Z 0000000180003170 f   LogManager.obj
 0001:00002200       ??4?$vector@PEAVBucket@agent@monitoring@ibmras@@V?$allocator@PEAVBucket@agent@monitoring@ibmras@@@std@@@std@@QEAAAEAV01@AEBV01@@Z 0000000180003200 f i Agent.obj
 0001:00002200       ??4?$vector@PEAVPlugin@monitoring@ibmras@@V?$allocator@PEAVPlugin@monitoring@ibmras@@@std@@@std@@QEAAAEAV01@AEBV01@@Z 0000000180003200 f i Agent.obj
 0001:00002200       ??4?$vector@PEAVLogger@common@ibmras@@V?$allocator@PEAVLogger@common@ibmras@@@std@@@std@@QEAAAEAV01@AEBV01@@Z 0000000180003200 f i LogManager.obj
 0001:00002360       ??1?$vector@PEAVBucket@agent@monitoring@ibmras@@V?$allocator@PEAVBucket@agent@monitoring@ibmras@@@std@@@std@@QEAA@XZ 0000000180003360 f i Agent.obj
 0001:00002360       ?_Tidy@?$vector@PEAVBucket@agent@monitoring@ibmras@@V?$allocator@PEAVBucket@agent@monitoring@ibmras@@@std@@@std@@AEAAXXZ 0000000180003360 f i Agent.obj
 0001:00002360       ??1BucketList@agent@monitoring@ibmras@@QEAA@XZ 0000000180003360 f i Agent.obj
 0001:00002360       ??1?$vector@PEAVPlugin@monitoring@ibmras@@V?$allocator@PEAVPlugin@monitoring@ibmras@@@std@@@std@@QEAA@XZ 0000000180003360 f i Agent.obj
 0001:00002360       ?_Tidy@?$vector@PEAVPlugin@monitoring@ibmras@@V?$allocator@PEAVPlugin@monitoring@ibmras@@@std@@@std@@AEAAXXZ 0000000180003360 f i Agent.obj
 0001:00002360       ?_Tidy@?$vector@PEAVLogger@common@ibmras@@V?$allocator@PEAVLogger@common@ibmras@@@std@@@std@@AEAAXXZ 0000000180003360 f i LogManager.obj
 0001:000023c0       ?_Buy@?$vector@PEAVLogger@common@ibmras@@V?$allocator@PEAVLogger@common@ibmras@@@std@@@std@@AEAA_N_K@Z 00000001800033c0 f i LogManager.obj
 0001:000023c0       ?_Buy@?$vector@PEAVBucket@agent@monitoring@ibmras@@V?$allocator@PEAVBucket@agent@monitoring@ibmras@@@std@@@std@@AEAA_N_K@Z 00000001800033c0 f i Agent.obj
 0001:000023c0       ?_Buy@?$vector@PEAVPlugin@monitoring@ibmras@@V?$allocator@PEAVPlugin@monitoring@ibmras@@@std@@@std@@AEAA_N_K@Z 00000001800033c0 f i Agent.obj
 0001:00002470       ?_Xlength@?$vector@PEAVBucket@agent@monitoring@ibmras@@V?$allocator@PEAVBucket@agent@monitoring@ibmras@@@std@@@std@@CAXXZ 0000000180003470 f i Agent.obj
 0001:00002470       ?_Xlength@?$vector@PEAVLogger@common@ibmras@@V?$allocator@PEAVLogger@common@ibmras@@@std@@@std@@CAXXZ 0000000180003470 f i LogManager.obj
 0001:00002470       ?_Xlength@?$vector@PEAVPlugin@monitoring@ibmras@@V?$allocator@PEAVPlugin@monitoring@ibmras@@@std@@@std@@CAXXZ 0000000180003470 f i Agent.obj
 0001:00002470       ?_Xlength@?$vector@PEAVWorkerThread@threads@agent@monitoring@ibmras@@V?$allocator@PEAVWorkerThread@threads@agent@monitoring@ibmras@@@std@@@std@@CAXXZ 0000000180003470 f i ThreadPool.obj
 0001:00002470       ?_Xlength@?$vector@V?$basic_string@DU?$char_traits@D@std@@V?$allocator@D@2@@std@@V?$allocator@V?$basic_string@DU?$char_traits@D@std@@V?$allocator@D@2@@std@@@2@@std@@CAXXZ 0000000180003470 f i strUtils.obj
 0001:00002490       ??$_Emplace_reallocate@AEBQEAVLogger@common@ibmras@@@?$vector@PEAVLogger@common@ibmras@@V?$allocator@PEAVLogger@common@ibmras@@@std@@@std@@QEAAPEAPEAVLogger@common@ibmras@@QEAPEAV234@AEBQEAV234@@Z 0000000180003490 f i LogManager.obj
 0001:00002490       ??$_Emplace_reallocate@AEBQEAVBucket@agent@monitoring@ibmras@@@?$vector@PEAVBucket@agent@monitoring@ibmras@@V?$allocator@PEAVBucket@agent@monitoring@ibmras@@@std@@@std@@QEAAPEAPEAVBucket@agent@monitoring@ibmras@@QEAPEAV2345@AEBQEAV2345@@Z 0000000180003490 f i Agent.obj
 0001:00002490       ??$_Emplace_reallocate@PEAVWorkerThread@threads@agent@monitoring@ibmras@@@?$vector@PEAVWorkerThread@threads@agent@monitoring@ibmras@@V?$allocator@PEAVWorkerThread@threads@agent@monitoring@ibmras@@@std@@@std@@QEAAPEAPEAVWorkerThread@threads@agent@monitoring@ibmras@@QEAPEAV23456@$$QEAPEAV23456@@Z 0000000180003490 f i ThreadPool.obj
 0001:00002630       ??_EMemoryManager@common@ibmras@@UEAAPEAXI@Z 0000000180003630 f i * CIL library *:* CIL module *
 0001:00002630       ??_GMemoryManager@common@ibmras@@UEAAPEAXI@Z 0000000180003630 f i MemoryManager.obj
 0001:00002660       ?allocate@MemoryManager@common@ibmras@@UEAAPEAEI@Z 0000000180003660 f   MemoryManager.obj
 0001:00002700       ?deallocate@MemoryManager@common@ibmras@@UEAAXPEAPEAE@Z 0000000180003700 f   MemoryManager.obj
 0001:00002770       ?allocate@memory@common@ibmras@@YAPEAEI@Z 0000000180003770 f   MemoryManager.obj
 0001:000027c0       ?deallocate@memory@common@ibmras@@YAXPEAPEAE@Z 00000001800037c0 f   MemoryManager.obj
 0001:00002810       ??4?$basic_string@DU?$char_traits@D@std@@V?$allocator@D@2@@std@@QEAAAEAV01@$$QEAV01@@Z 0000000180003810 f i LibraryUtils.obj
 0001:000028a0       ?_Xran@?$_String_val@U?$_Simple_types@D@std@@@std@@SAXXZ 00000001800038a0 f i LibraryUtils.obj
 0001:000028c0       ?ascii2Native@util@common@ibmras@@YAXPEAD_N@Z 00000001800038c0 f i strUtils.obj
 0001:000028c0       ??1ThreadData@port@common@ibmras@@QEAA@XZ 00000001800038c0 f i Thread.obj
 0001:000028c0       ?force2Native@util@common@ibmras@@YAXPEAD@Z 00000001800038c0 f i strUtils.obj
 0001:000028c0       _guard_check_icall_nop     00000001800038c0 f i MSVCRT:guard_support.obj
 0001:000028c0       ?registerReceiver@Connector@connector@monitoring@ibmras@@UEAAXPEAVReceiver@234@@Z 00000001800038c0 f i Agent.obj
 0001:000028c0       ?native2Ascii@util@common@ibmras@@YAXPEAD_N@Z 00000001800038c0 f i strUtils.obj
 0001:000028d0       ??4ThreadData@port@common@ibmras@@QEAAAEAV0123@AEBV0123@@Z 00000001800038d0 f i Thread.obj
 0001:000028f0       ?wrapper@port@common@ibmras@@YAXPEAX@Z 00000001800038f0 f   Thread.obj
 0001:00002930       ?createThread@port@common@ibmras@@YA_KPEAVThreadData@123@@Z 0000000180003930 f   Thread.obj
 0001:00002980       ?sleep@port@common@ibmras@@YAXI@Z 0000000180003980 f   Thread.obj
 0001:00002990       ?getProcessId@port@common@ibmras@@YAHXZ 0000000180003990 f   Process.obj
 0001:000029a0       ?getHostName@port@common@ibmras@@YA?AV?$basic_string@DU?$char_traits@D@std@@V?$allocator@D@2@@std@@XZ 00000001800039a0 f   Process.obj
 0001:00002a40       ??0Lock@port@common@ibmras@@QEAA@XZ 0000000180003a40 f   Lock.obj
 0001:00002a70       ?acquire@Lock@port@common@ibmras@@QEAAHXZ 0000000180003a70 f   Lock.obj
 0001:00002ac0       ?release@Lock@port@common@ibmras@@QEAAHXZ 0000000180003ac0 f   Lock.obj
 0001:00002b10       ??1Lock@port@common@ibmras@@QEAA@XZ 0000000180003b10 f   Lock.obj
 0001:00002b10       ?destroy@Lock@port@common@ibmras@@QEAAXXZ 0000000180003b10 f   Lock.obj
 0001:00002b40       ?isDestroyed@Lock@port@common@ibmras@@QEAA_NXZ 0000000180003b40 f   Lock.obj
 0001:00002b50       ??0ThreadData@port@common@ibmras@@QEAA@P6APEAXPEAV0123@@Z@Z 0000000180003b50 f   ThreadData.obj
 0001:00002b70       ??0ThreadData@port@common@ibmras@@QEAA@P6APEAXPEAV0123@@Z1@Z 0000000180003b70 f   ThreadData.obj
 0001:00002b90       ?setArgs@ThreadData@port@common@ibmras@@QEAAXPEAX@Z 0000000180003b90 f   ThreadData.obj
 0001:00002ba0       ?getArgs@ThreadData@port@common@ibmras@@QEAAPEAXXZ 0000000180003ba0 f   ThreadData.obj
 0001:00002bb0       ?getCallback@ThreadData@port@common@ibmras@@QEAAP6APEAXPEAV1234@@ZXZ 0000000180003bb0 f   ThreadData.obj
 0001:00002bc0       ?getStopMethod@ThreadData@port@common@ibmras@@QEAAP6APEAXPEAV1234@@ZXZ 0000000180003bc0 f   ThreadData.obj
 0001:00002bd0       ?hasStopMethod@ThreadData@port@common@ibmras@@QEAA_NXZ 0000000180003bd0 f   ThreadData.obj
 0001:00002be0       ??1Properties@common@ibmras@@UEAA@XZ 0000000180003be0 f i Properties.obj
 0001:00002be0       ??1PropertiesFile@common@ibmras@@UEAA@XZ 0000000180003be0 f i PropertiesFile.obj
 0001:00002c10       ??0Properties@common@ibmras@@QEAA@XZ 0000000180003c10 f i Properties.obj
 0001:00002c70       ??0Properties@common@ibmras@@QEAA@AEBV012@@Z 0000000180003c70 f i Properties.obj
 0001:00002d00       ??4PropertiesFile@common@ibmras@@QEAAAEAV012@AEBV012@@Z 0000000180003d00 f i PropertiesFile.obj
 0001:00002d00       ??4Properties@common@ibmras@@QEAAAEAV012@AEBV012@@Z 0000000180003d00 f i Properties.obj
 0001:00002d00       ??4PropertiesFile@common@ibmras@@QEAAAEAV012@$$QEAV012@@Z 0000000180003d00 f i PropertiesFile.obj
 0001:00002d50       ??_EPropertiesFile@common@ibmras@@UEAAPEAXI@Z 0000000180003d50 f i PropertiesFile.obj
 0001:00002d50       ??_EProperties@common@ibmras@@UEAAPEAXI@Z 0000000180003d50 f i Properties.obj
 0001:00002e10       ?get@Properties@common@ibmras@@UEAA?AV?$basic_string@DU?$char_traits@D@std@@V?$allocator@D@2@@std@@AEBV45@0@Z 0000000180003e10 f   Properties.obj
 0001:00002ec0       ?put@Properties@common@ibmras@@UEAAXAEBV?$basic_string@DU?$char_traits@D@std@@V?$allocator@D@2@@std@@0@Z 0000000180003ec0 f   Properties.obj
 0001:00003000       ?add@Properties@common@ibmras@@UEAAXAEBV123@@Z 0000000180004000 f   Properties.obj
 0001:000030a0       ?exists@Properties@common@ibmras@@UEAA_NAEBV?$basic_string@DU?$char_traits@D@std@@V?$allocator@D@2@@std@@@Z 00000001800040a0 f   Properties.obj
 0001:00003140       ?getKeys@Properties@common@ibmras@@UEAA?AV?$list@V?$basic_string@DU?$char_traits@D@std@@V?$allocator@D@2@@std@@V?$allocator@V?$basic_string@DU?$char_traits@D@std@@V?$allocator@D@2@@std@@@2@@std@@AEBV?$basic_string@DU?$char_traits@D@std@@V?$allocator@D@2@@5@@Z 0000000180004140 f   Properties.obj
 0001:000032e0       ?add@Properties@common@ibmras@@UEAAXAEBV?$basic_string@DU?$char_traits@D@std@@V?$allocator@D@2@@std@@@Z 00000001800042e0 f   Properties.obj
 0001:00003470       ?toString@Properties@common@ibmras@@UEAA?AV?$basic_string@DU?$char_traits@D@std@@V?$allocator@D@2@@std@@XZ 0000000180004470 f   Properties.obj
 0001:00003660       ??1?$vector@V?$basic_string@DU?$char_traits@D@std@@V?$allocator@D@2@@std@@V?$allocator@V?$basic_string@DU?$char_traits@D@std@@V?$allocator@D@2@@std@@@2@@std@@QEAA@XZ 0000000180004660 f i Properties.obj
 0001:000036d0       ??1?$list@V?$basic_string@DU?$char_traits@D@std@@V?$allocator@D@2@@std@@V?$allocator@V?$basic_string@DU?$char_traits@D@std@@V?$allocator@D@2@@std@@@2@@std@@QEAA@XZ 00000001800046d0 f i Properties.obj
 0001:000037a0       ??1?$_Tree_comp_alloc@V?$_Tmap_traits@V?$basic_string@DU?$char_traits@D@std@@V?$allocator@D@2@@std@@V12@U?$less@V?$basic_string@DU?$char_traits@D@std@@V?$allocator@D@2@@std@@@2@V?$allocator@U?$pair@$$CBV?$basic_string@DU?$char_traits@D@std@@V?$allocator@D@2@@std@@V12@@std@@@2@$0A@@std@@@std@@QEAA@XZ 00000001800047a0 f i Properties.obj
 0001:000037b0       ?lower_bound@?$_Tree@V?$_Tmap_traits@V?$basic_string@DU?$char_traits@D@std@@V?$allocator@D@2@@std@@V12@U?$less@V?$basic_string@DU?$char_traits@D@std@@V?$allocator@D@2@@std@@@2@V?$allocator@U?$pair@$$CBV?$basic_string@DU?$char_traits@D@std@@V?$allocator@D@2@@std@@V12@@std@@@2@$0A@@std@@@std@@QEAA?AV?$_Tree_iterator@V?$_Tree_val@U?$_Tree_simple_types@U?$pair@$$CBV?$basic_string@DU?$char_traits@D@std@@V?$allocator@D@2@@std@@V12@@std@@@std@@@std@@@2@AEBV?$basic_string@DU?$char_traits@D@std@@V?$allocator@D@2@@2@@Z 00000001800047b0 f i Properties.obj
 0001:00003880       ?clear@?$_Tree@V?$_Tmap_traits@V?$basic_string@DU?$char_traits@D@std@@V?$allocator@D@2@@std@@V12@U?$less@V?$basic_string@DU?$char_traits@D@std@@V?$allocator@D@2@@std@@@2@V?$allocator@U?$pair@$$CBV?$basic_string@DU?$char_traits@D@std@@V?$allocator@D@2@@std@@V12@@std@@@2@$0A@@std@@@std@@QEAAXXZ 0000000180004880 f i Properties.obj
 0001:00003920       ?_Erase@?$_Tree@V?$_Tmap_traits@V?$basic_string@DU?$char_traits@D@std@@V?$allocator@D@2@@std@@V12@U?$less@V?$basic_string@DU?$char_traits@D@std@@V?$allocator@D@2@@std@@@2@V?$allocator@U?$pair@$$CBV?$basic_string@DU?$char_traits@D@std@@V?$allocator@D@2@@std@@V12@@std@@@2@$0A@@std@@@std@@IEAAXPEAU?$_Tree_node@U?$pair@$$CBV?$basic_string@DU?$char_traits@D@std@@V?$allocator@D@2@@std@@V12@@std@@PEAX@2@@Z 0000000180004920 f i Properties.obj
 0001:00003980       ??$_Copy@U_Copy_tag@?$_Tree@V?$_Tmap_traits@V?$basic_string@DU?$char_traits@D@std@@V?$allocator@D@2@@std@@V12@U?$less@V?$basic_string@DU?$char_traits@D@std@@V?$allocator@D@2@@std@@@2@V?$allocator@U?$pair@$$CBV?$basic_string@DU?$char_traits@D@std@@V?$allocator@D@2@@std@@V12@@std@@@2@$0A@@std@@@std@@@?$_Tree@V?$_Tmap_traits@V?$basic_string@DU?$char_traits@D@std@@V?$allocator@D@2@@std@@V12@U?$less@V?$basic_string@DU?$char_traits@D@std@@V?$allocator@D@2@@std@@@2@V?$allocator@U?$pair@$$CBV?$basic_string@DU?$char_traits@D@std@@V?$allocator@D@2@@std@@V12@@std@@@2@$0A@@std@@@std@@IEAAXAEBV01@U_Copy_tag@01@@Z 0000000180004980 f i Properties.obj
 0001:00003a30       ??$_Destroy_range@V?$allocator@V?$basic_string@DU?$char_traits@D@std@@V?$allocator@D@2@@std@@@std@@@std@@YAXPEAV?$basic_string@DU?$char_traits@D@std@@V?$allocator@D@2@@0@0AEAV?$allocator@V?$basic_string@DU?$char_traits@D@std@@V?$allocator@D@2@@std@@@0@@Z 0000000180004a30 f i Properties.obj
 0001:00003ac0       ??1?$pair@$$CBV?$basic_string@DU?$char_traits@D@std@@V?$allocator@D@2@@std@@V12@@std@@QEAA@XZ 0000000180004ac0 f i Properties.obj
 0001:00003b70       ??$_Copy_nodes@U_Copy_tag@?$_Tree@V?$_Tmap_traits@V?$basic_string@DU?$char_traits@D@std@@V?$allocator@D@2@@std@@V12@U?$less@V?$basic_string@DU?$char_traits@D@std@@V?$allocator@D@2@@std@@@2@V?$allocator@U?$pair@$$CBV?$basic_string@DU?$char_traits@D@std@@V?$allocator@D@2@@std@@V12@@std@@@2@$0A@@std@@@std@@@?$_Tree@V?$_Tmap_traits@V?$basic_string@DU?$char_traits@D@std@@V?$allocator@D@2@@std@@V12@U?$less@V?$basic_string@DU?$char_traits@D@std@@V?$allocator@D@2@@std@@@2@V?$allocator@U?$pair@$$CBV?$basic_string@DU?$char_traits@D@std@@V?$allocator@D@2@@std@@V12@@std@@@2@$0A@@std@@@std@@IEAAPEAU?$_Tree_node@U?$pair@$$CBV?$basic_string@DU?$char_traits@D@std@@V?$allocator@D@2@@std@@V12@@std@@PEAX@1@PEAU21@0U_Copy_tag@01@@Z 0000000180004b70 f i Properties.obj
 0001:00003c70       ??$_Insert_hint@AEAU?$pair@$$CBV?$basic_string@DU?$char_traits@D@std@@V?$allocator@D@2@@std@@V12@@std@@PEAU?$_Tree_node@U?$pair@$$CBV?$basic_string@DU?$char_traits@D@std@@V?$allocator@D@2@@std@@V12@@std@@PEAX@2@@?$_Tree@V?$_Tmap_traits@V?$basic_string@DU?$char_traits@D@std@@V?$allocator@D@2@@std@@V12@U?$less@V?$basic_string@DU?$char_traits@D@std@@V?$allocator@D@2@@std@@@2@V?$allocator@U?$pair@$$CBV?$basic_string@DU?$char_traits@D@std@@V?$allocator@D@2@@std@@V12@@std@@@2@$0A@@std@@@std@@IEAA?AV?$_Tree_iterator@V?$_Tree_val@U?$_Tree_simple_types@U?$pair@$$CBV?$basic_string@DU?$char_traits@D@std@@V?$allocator@D@2@@std@@V12@@std@@@std@@@std@@@1@V?$_Tree_const_iterator@V?$_Tree_val@U?$_Tree_simple_types@U?$pair@$$CBV?$basic_string@DU?$char_traits@D@std@@V?$allocator@D@2@@std@@V12@@std@@@std@@@std@@@1@AEAU?$pair@$$CBV?$basic_string@DU?$char_traits@D@std@@V?$allocator@D@2@@std@@V12@@1@PEAU?$_Tree_node@U?$pair@$$CBV?$basic_string@DU?$char_traits@D@std@@V?$allocator@D@2@@std@@V12@@std@@PEAX@1@@Z 0000000180004c70 f i Properties.obj
 0001:00004000       ?_Destroy_if_node@?$_Tree@V?$_Tmap_traits@V?$basic_string@DU?$char_traits@D@std@@V?$allocator@D@2@@std@@V12@U?$less@V?$basic_string@DU?$char_traits@D@std@@V?$allocator@D@2@@std@@@2@V?$allocator@U?$pair@$$CBV?$basic_string@DU?$char_traits@D@std@@V?$allocator@D@2@@std@@V12@@std@@@2@$0A@@std@@@std@@IEAAXPEAU?$_Tree_node@U?$pair@$$CBV?$basic_string@DU?$char_traits@D@std@@V?$allocator@D@2@@std@@V12@@std@@PEAX@2@@Z 0000000180005000 f i Properties.obj
 0001:00004030       ??$_Insert_at@AEAU?$pair@$$CBV?$basic_string@DU?$char_traits@D@std@@V?$allocator@D@2@@std@@V12@@std@@PEAU?$_Tree_node@U?$pair@$$CBV?$basic_string@DU?$char_traits@D@std@@V?$allocator@D@2@@std@@V12@@std@@PEAX@2@@?$_Tree@V?$_Tmap_traits@V?$basic_string@DU?$char_traits@D@std@@V?$allocator@D@2@@std@@V12@U?$less@V?$basic_string@DU?$char_traits@D@std@@V?$allocator@D@2@@std@@@2@V?$allocator@U?$pair@$$CBV?$basic_string@DU?$char_traits@D@std@@V?$allocator@D@2@@std@@V12@@std@@@2@$0A@@std@@@std@@IEAA?AV?$_Tree_iterator@V?$_Tree_val@U?$_Tree_simple_types@U?$pair@$$CBV?$basic_string@DU?$char_traits@D@std@@V?$allocator@D@2@@std@@V12@@std@@@std@@@std@@@1@_NPEAU?$_Tree_node@U?$pair@$$CBV?$basic_string@DU?$char_traits@D@std@@V?$allocator@D@2@@std@@V12@@std@@PEAX@1@AEAU?$pair@$$CBV?$basic_string@DU?$char_traits@D@std@@V?$allocator@D@2@@std@@V12@@1@1@Z 0000000180005030 f i Properties.obj
 0001:000042e0       ??$_Insert_nohint@AEAU?$pair@$$CBV?$basic_string@DU?$char_traits@D@std@@V?$allocator@D@2@@std@@V12@@std@@PEAU?$_Tree_node@U?$pair@$$CBV?$basic_string@DU?$char_traits@D@std@@V?$allocator@D@2@@std@@V12@@std@@PEAX@2@@?$_Tree@V?$_Tmap_traits@V?$basic_string@DU?$char_traits@D@std@@V?$allocator@D@2@@std@@V12@U?$less@V?$basic_string@DU?$char_traits@D@std@@V?$allocator@D@2@@std@@@2@V?$allocator@U?$pair@$$CBV?$basic_string@DU?$char_traits@D@std@@V?$allocator@D@2@@std@@V12@@std@@@2@$0A@@std@@@std@@IEAA?AU?$pair@V?$_Tree_iterator@V?$_Tree_val@U?$_Tree_simple_types@U?$pair@$$CBV?$basic_string@DU?$char_traits@D@std@@V?$allocator@D@2@@std@@V12@@std@@@std@@@std@@@std@@_N@1@_NAEAU?$pair@$$CBV?$basic_string@DU?$char_traits@D@std@@V?$allocator@D@2@@std@@V12@@1@PEAU?$_Tree_node@U?$pair@$$CBV?$basic_string@DU?$char_traits@D@std@@V?$allocator@D@2@@std@@V12@@std@@PEAX@1@@Z 00000001800052e0 f i Properties.obj
 0001:000044d0       ??1locale@std@@QEAA@XZ     00000001800054d0 f i PropertiesFile.obj
 0001:00004510       ??0PropertiesFile@common@ibmras@@QEAA@XZ 0000000180005510 f i PropertiesFile.obj
 0001:00004570       ??0PropertiesFile@common@ibmras@@QEAA@AEBV012@@Z 0000000180005570 f i PropertiesFile.obj
 0001:00004570       ??0PropertiesFile@common@ibmras@@QEAA@$$QEAV012@@Z 0000000180005570 f i PropertiesFile.obj
 0001:000045a0       ?load@PropertiesFile@common@ibmras@@QEAAHAEBV?$basic_string@DU?$char_traits@D@std@@V?$allocator@D@2@@std@@@Z 00000001800055a0 f   PropertiesFile.obj
 0001:00004ad0       ??_D?$basic_ifstream@DU?$char_traits@D@std@@@std@@QEAAXXZ 0000000180005ad0 f i PropertiesFile.obj
 0001:00004b40       ??0?$basic_ifstream@DU?$char_traits@D@std@@@std@@QEAA@PEBDHH@Z 0000000180005b40 f i PropertiesFile.obj
 0001:00004d20       ?imbue@?$basic_filebuf@DU?$char_traits@D@std@@@std@@MEAAXAEBVlocale@2@@Z 0000000180005d20 f i PropertiesFile.obj
 0001:00004d70       ?sync@?$basic_filebuf@DU?$char_traits@D@std@@@std@@MEAAHXZ 0000000180005d70 f i PropertiesFile.obj
 0001:00004dc0       ?setbuf@?$basic_filebuf@DU?$char_traits@D@std@@@std@@MEAAPEAV?$basic_streambuf@DU?$char_traits@D@std@@@2@PEAD_J@Z 0000000180005dc0 f i PropertiesFile.obj
 0001:00004eb0       ?seekpos@?$basic_filebuf@DU?$char_traits@D@std@@@std@@MEAA?AV?$fpos@U_Mbstatet@@@2@V32@H@Z 0000000180005eb0 f i PropertiesFile.obj
 0001:00004f90       ?seekoff@?$basic_filebuf@DU?$char_traits@D@std@@@std@@MEAA?AV?$fpos@U_Mbstatet@@@2@_JHH@Z 0000000180005f90 f i PropertiesFile.obj
 0001:00005080       ?xsputn@?$basic_filebuf@DU?$char_traits@D@std@@@std@@MEAA_JPEBD_J@Z 0000000180006080 f i PropertiesFile.obj
 0001:00005160       ?xsgetn@?$basic_filebuf@DU?$char_traits@D@std@@@std@@MEAA_JPEAD_J@Z 0000000180006160 f i PropertiesFile.obj
 0001:00005250       ?uflow@?$basic_filebuf@DU?$char_traits@D@std@@@std@@MEAAHXZ 0000000180006250 f i PropertiesFile.obj
 0001:00005530       ?underflow@?$basic_filebuf@DU?$char_traits@D@std@@@std@@MEAAHXZ 0000000180006530 f i PropertiesFile.obj
 0001:000055a0       ?pbackfail@?$basic_filebuf@DU?$char_traits@D@std@@@std@@MEAAHH@Z 00000001800065a0 f i PropertiesFile.obj
 0001:00005690       ?overflow@?$basic_filebuf@DU?$char_traits@D@std@@@std@@MEAAHH@Z 0000000180006690 f i PropertiesFile.obj
 0001:00005830       ?_Unlock@?$basic_filebuf@DU?$char_traits@D@std@@@std@@UEAAXXZ 0000000180006830 f i PropertiesFile.obj
 0001:00005850       ?_Lock@?$basic_filebuf@DU?$char_traits@D@std@@@std@@UEAAXXZ 0000000180006850 f i PropertiesFile.obj
 0001:00005870       ??1?$basic_filebuf@DU?$char_traits@D@std@@@std@@UEAA@XZ 0000000180006870 f i PropertiesFile.obj
 0001:00005930       ??_E?$basic_ifstream@DU?$char_traits@D@std@@@std@@UEAAPEAXI@Z 0000000180006930 f i * CIL library *:* CIL module *
 0001:00005930       ??_G?$basic_ifstream@DU?$char_traits@D@std@@@std@@UEAAPEAXI@Z 0000000180006930 f i PropertiesFile.obj
 0001:000059d0       ??_G?$basic_filebuf@DU?$char_traits@D@std@@@std@@UEAAPEAXI@Z 00000001800069d0 f i PropertiesFile.obj
 0001:000059d0       ??_E?$basic_filebuf@DU?$char_traits@D@std@@@std@@UEAAPEAXI@Z 00000001800069d0 f i * CIL library *:* CIL module *
 0001:00005a10       ?_Reset_back@?$basic_filebuf@DU?$char_traits@D@std@@@std@@AEAAXXZ 0000000180006a10 f i PropertiesFile.obj
 0001:00005a40       ?_Endwrite@?$basic_filebuf@DU?$char_traits@D@std@@@std@@IEAA_NXZ 0000000180006a40 f i PropertiesFile.obj
 0001:00005b10       ??$use_facet@V?$codecvt@DDU_Mbstatet@@@std@@@std@@YAAEBV?$codecvt@DDU_Mbstatet@@@0@AEBVlocale@0@@Z 0000000180006b10 f i PropertiesFile.obj
 0001:00005bf0       ??$_Reallocate_grow_by@V<lambda_319d5e083f45f90dcdce5dce53cbb275>@@D@?$basic_string@DU?$char_traits@D@std@@V?$allocator@D@2@@std@@QEAAAEAV01@_KV<lambda_319d5e083f45f90dcdce5dce53cbb275>@@D@Z 0000000180006bf0 f i PropertiesFile.obj
 0001:00005d50       ??1?$unique_ptr@V_Facet_base@std@@U?$default_delete@V_Facet_base@std@@@2@@std@@QEAA@XZ 0000000180006d50 f i PropertiesFile.obj
 0001:00005d80       ??$getline@DU?$char_traits@D@std@@V?$allocator@D@2@@std@@YAAEAV?$basic_istream@DU?$char_traits@D@std@@@0@$$QEAV10@AEAV?$basic_string@DU?$char_traits@D@std@@V?$allocator@D@2@@0@D@Z 0000000180006d80 f i PropertiesFile.obj
 0001:00005f00       ??1sentry@?$basic_istream@DU?$char_traits@D@std@@@std@@QEAA@XZ 0000000180006f00 f i PropertiesFile.obj
 0001:00005f30       ??_E?$basic_ifstream@DU?$char_traits@D@std@@@std@@$4PPPPPPPM@A@EAAPEAXI@Z 0000000180006f30 f i PropertiesFile.obj
 0001:00005f40       ?split@util@common@ibmras@@YAAEAV?$vector@V?$basic_string@DU?$char_traits@D@std@@V?$allocator@D@2@@std@@V?$allocator@V?$basic_string@DU?$char_traits@D@std@@V?$allocator@D@2@@std@@@2@@std@@AEBV?$basic_string@DU?$char_traits@D@std@@V?$allocator@D@2@@5@DAEAV45@@Z 0000000180006f40 f   strUtils.obj
 0001:00006200       ?equalsIgnoreCase@util@common@ibmras@@YA_NAEBV?$basic_string@DU?$char_traits@D@std@@V?$allocator@D@2@@std@@0@Z 0000000180007200 f   strUtils.obj
 0001:00006290       ?createNativeString@util@common@ibmras@@YAPEADPEBD_N@Z 0000000180007290 f   strUtils.obj
 0001:00006290       ?createAsciiString@util@common@ibmras@@YAPEADPEBD_N@Z 0000000180007290 f   strUtils.obj
 0001:00006330       ??$_Emplace_reallocate@AEBV?$basic_string@DU?$char_traits@D@std@@V?$allocator@D@2@@std@@@?$vector@V?$basic_string@DU?$char_traits@D@std@@V?$allocator@D@2@@std@@V?$allocator@V?$basic_string@DU?$char_traits@D@std@@V?$allocator@D@2@@std@@@2@@std@@QEAAPEAV?$basic_string@DU?$char_traits@D@std@@V?$allocator@D@2@@1@QEAV21@AEBV21@@Z 0000000180007330 f i strUtils.obj
 0001:000065c0       ?getMilliseconds@util@common@ibmras@@YA_KXZ 00000001800075c0 f   sysUtils.obj
 0001:00006610       ??1AgentExtensionReceiver@monitoring@ibmras@@UEAA@XZ 0000000180007610 f i Agent.obj
 0001:00006610       ??1Receiver@connector@monitoring@ibmras@@UEAA@XZ 0000000180007610 f i Agent.obj
 0001:00006620       ??_EReceiver@connector@monitoring@ibmras@@UEAAPEAXI@Z 0000000180007620 f i * CIL library *:* CIL module *
 0001:00006620       ??_GReceiver@connector@monitoring@ibmras@@UEAAPEAXI@Z 0000000180007620 f i Agent.obj
 0001:00006650       ?getID@Connector@connector@monitoring@ibmras@@UEAA?AV?$basic_string@DU?$char_traits@D@std@@V?$allocator@D@2@@std@@XZ 0000000180007650 f i Agent.obj
 0001:00006690       ?sendMessage@Connector@connector@monitoring@ibmras@@UEAAHAEBV?$basic_string@DU?$char_traits@D@std@@V?$allocator@D@2@@std@@IPEAX@Z 0000000180007690 f i Agent.obj
 0001:00006690       ?start@Connector@connector@monitoring@ibmras@@UEAAHXZ 0000000180007690 f i Agent.obj
 0001:00006690       ?stopReceiver@agent@monitoring@ibmras@@YAHXZ 0000000180007690 f i SystemReceiver.obj
 0001:00006690       ?stop@Connector@connector@monitoring@ibmras@@UEAAHXZ 0000000180007690 f i Agent.obj
 0001:00006690       __scrt_stub_for_is_c_termination_complete 0000000180007690 f i MSVCRT:ucrt_stubs.obj
 0001:00006690       _is_c_termination_complete 0000000180007690 f i MSVCRT:ucrt_stubs.obj
 0001:00006690       ?startReceiver@agent@monitoring@ibmras@@YAHXZ 0000000180007690 f i SystemReceiver.obj
 0001:000066a0       ??1Connector@connector@monitoring@ibmras@@UEAA@XZ 00000001800076a0 f i Agent.obj
 0001:000066b0       ??_GConnector@connector@monitoring@ibmras@@UEAAPEAXI@Z 00000001800076b0 f i Agent.obj
 0001:000066b0       ??_EConnector@connector@monitoring@ibmras@@UEAAPEAXI@Z 00000001800076b0 f i * CIL library *:* CIL module *
 0001:000066e0       ??1Bucket@agent@monitoring@ibmras@@QEAA@XZ 00000001800076e0 f i Agent.obj
 0001:00006750       ??0Bucket@agent@monitoring@ibmras@@QEAA@AEBV0123@@Z 0000000180007750 f i Agent.obj
 0001:000067d0       ??0Bucket@agent@monitoring@ibmras@@QEAA@$$QEAV0123@@Z 00000001800077d0 f i Agent.obj
 0001:00006850       ??4Bucket@agent@monitoring@ibmras@@QEAAAEAV0123@AEBV0123@@Z 0000000180007850 f i Agent.obj
 0001:000068e0       ??4Bucket@agent@monitoring@ibmras@@QEAAAEAV0123@$$QEAV0123@@Z 00000001800078e0 f i Agent.obj
 0001:00006960       ??0BucketList@agent@monitoring@ibmras@@QEAA@XZ 0000000180007960 f i Agent.obj
 0001:00006980       ??0BucketList@agent@monitoring@ibmras@@QEAA@AEBV0123@@Z 0000000180007980 f i Agent.obj
 0001:000069f0       ??0BucketList@agent@monitoring@ibmras@@QEAA@$$QEAV0123@@Z 00000001800079f0 f i Agent.obj
 0001:00006a30       ??4BucketList@agent@monitoring@ibmras@@QEAAAEAV0123@AEBV0123@@Z 0000000180007a30 f i Agent.obj
 0001:00006a50       ??4BucketList@agent@monitoring@ibmras@@QEAAAEAV0123@$$QEAV0123@@Z 0000000180007a50 f i Agent.obj
 0001:00006aa0       ??1ReceivedMessage@ConnectorManager@connector@monitoring@ibmras@@UEAA@XZ 0000000180007aa0 f i Agent.obj
 0001:00006b60       ??0ConnectorManager@connector@monitoring@ibmras@@QEAA@AEBV0123@@Z 0000000180007b60 f i Agent.obj
 0001:00006da0       ??4ConnectorManager@connector@monitoring@ibmras@@QEAAAEAV0123@AEBV0123@@Z 0000000180007da0 f i Agent.obj
 0001:00006e70       ??_EConnectorManager@connector@monitoring@ibmras@@UEAAPEAXI@Z 0000000180007e70 f i Agent.obj
 0001:00006f10       ??_EReceivedMessage@ConnectorManager@connector@monitoring@ibmras@@UEAAPEAXI@Z 0000000180007f10 f i * CIL library *:* CIL module *
 0001:00006f10       ??_GReceivedMessage@ConnectorManager@connector@monitoring@ibmras@@UEAAPEAXI@Z 0000000180007f10 f i Agent.obj
 0001:00006f50       ??1?$queue@VReceivedMessage@ConnectorManager@connector@monitoring@ibmras@@V?$deque@VReceivedMessage@ConnectorManager@connector@monitoring@ibmras@@V?$allocator@VReceivedMessage@ConnectorManager@connector@monitoring@ibmras@@@std@@@std@@@std@@QEAA@XZ 0000000180007f50 f i Agent.obj
 0001:00006f80       ??1?$set@PEAVConnector@connector@monitoring@ibmras@@U?$less@PEAVConnector@connector@monitoring@ibmras@@@std@@V?$allocator@PEAVConnector@connector@monitoring@ibmras@@@6@@std@@QEAA@XZ 0000000180007f80 f i Agent.obj
 0001:00006fb0       ?getID@ConfigurationConnector@connector@monitoring@ibmras@@UEAA?AV?$basic_string@DU?$char_traits@D@std@@V?$allocator@D@2@@std@@XZ 0000000180007fb0 f i Agent.obj
 0001:00006ff0       ??0ConfigurationConnector@connector@monitoring@ibmras@@QEAA@AEBV0123@@Z 0000000180007ff0 f i Agent.obj
 0001:00007040       ??4ConfigurationConnector@connector@monitoring@ibmras@@QEAAAEAV0123@AEBV0123@@Z 0000000180008040 f i Agent.obj
 0001:000070a0       ??_EConfigurationConnector@connector@monitoring@ibmras@@UEAAPEAXI@Z 00000001800080a0 f i Agent.obj
 0001:00007140       ??1Agent@agent@monitoring@ibmras@@QEAA@XZ 0000000180008140 f i Agent.obj
 0001:000072a0       ??0Agent@agent@monitoring@ibmras@@QEAA@AEBV0123@@Z 00000001800082a0 f i Agent.obj
 0001:00007400       ??0Agent@agent@monitoring@ibmras@@QEAA@$$QEAV0123@@Z 0000000180008400 f i Agent.obj
 0001:00007550       ??4Agent@agent@monitoring@ibmras@@QEAAAEAV0123@AEBV0123@@Z 0000000180008550 f i Agent.obj
 0001:00007650       ??4Agent@agent@monitoring@ibmras@@QEAAAEAV0123@$$QEAV0123@@Z 0000000180008650 f i Agent.obj
 0001:00007790       ??0AgentExtensionReceiver@monitoring@ibmras@@QEAA@P6AXPEBDIPEAX@Z@Z 0000000180008790 f i Agent.obj
 0001:000077b0       ?receiveMessage@AgentExtensionReceiver@monitoring@ibmras@@UEAAXAEBV?$basic_string@DU?$char_traits@D@std@@V?$allocator@D@2@@std@@IPEAX@Z 00000001800087b0 f i Agent.obj
 0001:000077e0       ??0AgentExtensionReceiver@monitoring@ibmras@@QEAA@AEBV012@@Z 00000001800087e0 f i Agent.obj
 0001:00007800       ??4AgentExtensionReceiver@monitoring@ibmras@@QEAAAEAV012@AEBV012@@Z 0000000180008800 f i Agent.obj
 0001:00007810       ??_EAgentExtensionReceiver@monitoring@ibmras@@UEAAPEAXI@Z 0000000180008810 f i Agent.obj
 0001:000078b0       loader_entrypoint          00000001800088b0 f   Agent.obj
 0001:00007950       getPropertyWrapper         0000000180008950 f   Agent.obj
 0001:00007b00       setPropertyWrapper         0000000180008b00 f   Agent.obj
 0001:00007c50       pushDataWrapper            0000000180008c50 f   Agent.obj
 0001:00007c60       sendMessageWrapper         0000000180008c60 f   Agent.obj
 0001:00007d30       logMessageWrapper          0000000180008d30 f   Agent.obj
 0001:00007d50       initWrapper                0000000180008d50 f   Agent.obj
 0001:00007d60       startWrapper               0000000180008d60 f   Agent.obj
 0001:00007d70       stopWrapper                0000000180008d70 f   Agent.obj
 0001:00007d80       shutdownWrapper            0000000180008d80 f   Agent.obj
 0001:00007d90       setLogLevelsWrapper        0000000180008d90 f   Agent.obj
 0001:00007da0       getVersionWrapper          0000000180008da0 f   Agent.obj
 0001:00007e50       logCoreMessageWrapper      0000000180008e50 f   Agent.obj
 0001:00007e70       loadPropertiesFileWrapper  0000000180008e70 f   Agent.obj
 0001:00007e80       registerZipFunctionWrapper 0000000180008e80 f   Agent.obj
 0001:00007e90       addPluginWrapper           0000000180008e90 f   Agent.obj
 0001:00007ea0       ??0Agent@agent@monitoring@ibmras@@QEAA@XZ 0000000180008ea0 f   Agent.obj
 0001:00007f70       ?setLogOutput@Agent@agent@monitoring@ibmras@@QEAAXP6APEAXAEBV?$basic_string@DU?$char_traits@D@std@@V?$allocator@D@2@@std@@@Z@Z 0000000180008f70 f   Agent.obj
 0001:00007f80       ?getBuildDate@Agent@agent@monitoring@ibmras@@SA?AV?$basic_string@DU?$char_traits@D@std@@V?$allocator@D@2@@std@@XZ 0000000180008f80 f   Agent.obj
 0001:00007fc0       ?getVersion@Agent@agent@monitoring@ibmras@@SA?AV?$basic_string@DU?$char_traits@D@std@@V?$allocator@D@2@@std@@XZ 0000000180008fc0 f   Agent.obj
 0001:00008000       ?setLogLevels@Agent@agent@monitoring@ibmras@@QEAAXXZ 0000000180009000 f   Agent.obj
 0001:000084e0       ?setLocalLog@Agent@agent@monitoring@ibmras@@QEAAX_N@Z 00000001800094e0 f   Agent.obj
 0001:00008500       ?getPullSources@Agent@agent@monitoring@ibmras@@QEAA?AV?$DataSourceList@Upullsource@@@234@XZ 0000000180009500 f   Agent.obj
 0001:00008510       ?getPushSources@Agent@agent@monitoring@ibmras@@QEAA?AV?$DataSourceList@Upushsource@@@234@XZ 0000000180009510 f   Agent.obj
 0001:00008520       ?getPullSource@Agent@agent@monitoring@ibmras@@QEAAPEAV?$DataSource@Upullsource@@@234@V?$basic_string@DU?$char_traits@D@std@@V?$allocator@D@2@@std@@@Z 0000000180009520 f   Agent.obj
 0001:00008730       ?getPushSource@Agent@agent@monitoring@ibmras@@QEAAPEAV?$DataSource@Upushsource@@@234@V?$basic_string@DU?$char_traits@D@std@@V?$allocator@D@2@@std@@@Z 0000000180009730 f   Agent.obj
 0001:00008940       ?processPublishLoop@agent@monitoring@ibmras@@YAPEAXPEAVThreadData@port@common@3@@Z 0000000180009940 f   Agent.obj
 0001:00008bf0       ?endPullSourceLoop@agent@monitoring@ibmras@@YAPEAXPEAVThreadData@port@common@3@@Z 0000000180009bf0 f   Agent.obj
 0001:00008c40       ?processPullSourceLoop@agent@monitoring@ibmras@@YAPEAXPEAVThreadData@port@common@3@@Z 0000000180009c40 f   Agent.obj
 0001:000091d0       ?immediateUpdate@Agent@agent@monitoring@ibmras@@QEAAXXZ 000000018000a1d0 f   Agent.obj
 0001:000091e0       ?publish@Agent@agent@monitoring@ibmras@@QEAAXXZ 000000018000a1e0 f   Agent.obj
 0001:00009250       ?republish@Agent@agent@monitoring@ibmras@@QEAAXAEBV?$basic_string@DU?$char_traits@D@std@@V?$allocator@D@2@@std@@@Z 000000018000a250 f   Agent.obj
 0001:000092c0       ?addPushSource@Agent@agent@monitoring@ibmras@@AEAAXV?$_Vector_iterator@V?$_Vector_val@U?$_Simple_types@PEAVPlugin@monitoring@ibmras@@@std@@@std@@@std@@I@Z 000000018000a2c0 f   Agent.obj
 0001:00009460       ?addPullSource@Agent@agent@monitoring@ibmras@@AEAAXV?$_Vector_iterator@V?$_Vector_val@U?$_Simple_types@PEAVPlugin@monitoring@ibmras@@@std@@@std@@@std@@I@Z 000000018000a460 f   Agent.obj
 0001:00009600       ?createBuckets@Agent@agent@monitoring@ibmras@@AEAAXXZ 000000018000a600 f   Agent.obj
 0001:00009670       ?addPlugin@Agent@agent@monitoring@ibmras@@QEAAXPEAVPlugin@34@@Z 000000018000a670 f   Agent.obj
 0001:000097c0       ?addPlugin@Agent@agent@monitoring@ibmras@@QEAAXAEBV?$basic_string@DU?$char_traits@D@std@@V?$allocator@D@2@@std@@V56@@Z 000000018000a7c0 f   Agent.obj
 0001:00009b70       ?addPlugin@Agent@agent@monitoring@ibmras@@QEAAXPEBD@Z 000000018000ab70 f   Agent.obj
 0001:00009cc0       ?addSystemPlugins@Agent@agent@monitoring@ibmras@@AEAAXXZ 000000018000acc0 f   Agent.obj
 0001:00009d10       ?addConnector@Agent@agent@monitoring@ibmras@@QEAAXPEAVConnector@connector@34@@Z 000000018000ad10 f   Agent.obj
 0001:00009d20       ?removeConnector@Agent@agent@monitoring@ibmras@@QEAAXPEAVConnector@connector@34@@Z 000000018000ad20 f   Agent.obj
 0001:00009e10       ?registerZipFunction@Agent@agent@monitoring@ibmras@@QEAAXP6AXPEBD@Z@Z 000000018000ae10 f   Agent.obj
 0001:00009e20       ?zipHeadlessFiles@Agent@agent@monitoring@ibmras@@QEAAXPEBD@Z 000000018000ae20 f   Agent.obj
 0001:00009e50       ?init@Agent@agent@monitoring@ibmras@@QEAAXXZ 000000018000ae50 f   Agent.obj
 0001:0000a390       ?getConfig@Agent@agent@monitoring@ibmras@@QEAA?AV?$basic_string@DU?$char_traits@D@std@@V?$allocator@D@2@@std@@AEBV56@@Z 000000018000b390 f   Agent.obj
 0001:0000a3b0       ?readOnly@Agent@agent@monitoring@ibmras@@QEAA_NXZ 000000018000b3b0 f   Agent.obj
 0001:0000a510       ?start@Agent@agent@monitoring@ibmras@@QEAAXXZ 000000018000b510 f   Agent.obj
 0001:0000a6d0       ?startPlugins@Agent@agent@monitoring@ibmras@@AEAAXXZ 000000018000b6d0 f   Agent.obj
 0001:0000a770       ?stopPlugins@Agent@agent@monitoring@ibmras@@AEAAXXZ 000000018000b770 f   Agent.obj
 0001:0000a810       ?getBucketList@Agent@agent@monitoring@ibmras@@QEAAPEAVBucketList@234@XZ 000000018000b810 f   Agent.obj
 0001:0000a820       ?startReceivers@Agent@agent@monitoring@ibmras@@AEAAXXZ 000000018000b820 f   Agent.obj
 0001:0000a940       ?startConnectors@Agent@agent@monitoring@ibmras@@AEAAXXZ 000000018000b940 f   Agent.obj
 0001:0000ab50       ?stop@Agent@agent@monitoring@ibmras@@QEAAXXZ 000000018000bb50 f   Agent.obj
 0001:0000ac60       ?shutdown@Agent@agent@monitoring@ibmras@@QEAAXXZ 000000018000bc60 f   Agent.obj
 0001:0000ad50       ?getConnector@Agent@agent@monitoring@ibmras@@QEAAPEAVConnector@connector@34@AEBV?$basic_string@DU?$char_traits@D@std@@V?$allocator@D@2@@std@@@Z 000000018000bd50 f   Agent.obj
 0001:0000ad60       ?getConnectionManager@Agent@agent@monitoring@ibmras@@QEAAPEAVConnectorManager@connector@34@XZ 000000018000bd60 f   Agent.obj
 0001:0000ad70       ?getInstance@Agent@agent@monitoring@ibmras@@SAPEAV1234@XZ 000000018000bd70 f   Agent.obj
 0001:0000ad80       ?addData@Agent@agent@monitoring@ibmras@@QEAA_NPEAUmonitordata@@@Z 000000018000bd80 f   Agent.obj
 0001:0000ad90       ?threadStop@Agent@agent@monitoring@ibmras@@QEAAXXZ 000000018000bd90 f   Agent.obj
 0001:0000adc0       ?setProperties@Agent@agent@monitoring@ibmras@@QEAAXAEBVProperties@common@4@@Z 000000018000bdc0 f   Agent.obj
 0001:0000add0       ?getProperties@Agent@agent@monitoring@ibmras@@QEAA?AVProperties@common@4@XZ 000000018000bdd0 f   Agent.obj
 0001:0000ae00       ?setProperty@Agent@agent@monitoring@ibmras@@QEAAXAEBV?$basic_string@DU?$char_traits@D@std@@V?$allocator@D@2@@std@@0@Z 000000018000be00 f   Agent.obj
 0001:0000ae10       ?getProperty@Agent@agent@monitoring@ibmras@@QEAA?AV?$basic_string@DU?$char_traits@D@std@@V?$allocator@D@2@@std@@AEBV56@@Z 000000018000be10 f   Agent.obj
 0001:0000aee0       ?propertyExists@Agent@agent@monitoring@ibmras@@QEAA_NAEBV?$basic_string@DU?$char_traits@D@std@@V?$allocator@D@2@@std@@@Z 000000018000bee0 f   Agent.obj
 0001:0000aef0       ?getAgentPropertyPrefix@Agent@agent@monitoring@ibmras@@QEAA?AV?$basic_string@DU?$char_traits@D@std@@V?$allocator@D@2@@std@@XZ 000000018000bef0 f   Agent.obj
 0001:0000af30       ?getAgentProperty@Agent@agent@monitoring@ibmras@@QEAA?AV?$basic_string@DU?$char_traits@D@std@@V?$allocator@D@2@@std@@AEBV56@@Z 000000018000bf30 f   Agent.obj
 0001:0000b0a0       ?setAgentProperty@Agent@agent@monitoring@ibmras@@QEAAXAEBV?$basic_string@DU?$char_traits@D@std@@V?$allocator@D@2@@std@@0@Z 000000018000c0a0 f   Agent.obj
 0001:0000b200       ?agentPropertyExists@Agent@agent@monitoring@ibmras@@QEAA_NAEBV?$basic_string@DU?$char_traits@D@std@@V?$allocator@D@2@@std@@@Z 000000018000c200 f   Agent.obj
 0001:0000b370       ?isHeadlessRunning@Agent@agent@monitoring@ibmras@@QEAA_NXZ 000000018000c370 f   Agent.obj
 0001:0000b380       ?setHeadlessRunning@Agent@agent@monitoring@ibmras@@QEAAX_N@Z 000000018000c380 f   Agent.obj
 0001:0000b750       ?loadPropertiesFile@Agent@agent@monitoring@ibmras@@QEAA_NPEBD@Z 000000018000c750 f   Agent.obj
 0001:0000b8a0       ??4?$deque@VReceivedMessage@ConnectorManager@connector@monitoring@ibmras@@V?$allocator@VReceivedMessage@ConnectorManager@connector@monitoring@ibmras@@@std@@@std@@QEAAAEAV01@AEBV01@@Z 000000018000c8a0 f i Agent.obj
 0001:0000bae0       ??1?$_Tree_comp_alloc@V?$_Tset_traits@PEAVConnector@connector@monitoring@ibmras@@U?$less@PEAVConnector@connector@monitoring@ibmras@@@std@@V?$allocator@PEAVConnector@connector@monitoring@ibmras@@@6@$0A@@std@@@std@@QEAA@XZ 000000018000cae0 f i Agent.obj
 0001:0000bae0       ??1?$_Tree_comp_alloc@V?$_Tset_traits@PEAVReceiver@connector@monitoring@ibmras@@U?$less@PEAVReceiver@connector@monitoring@ibmras@@@std@@V?$allocator@PEAVReceiver@connector@monitoring@ibmras@@@6@$0A@@std@@@std@@QEAA@XZ 000000018000cae0 f i Agent.obj
 0001:0000baf0       ??1?$_Deque_alloc@U?$_Deque_base_types@VReceivedMessage@ConnectorManager@connector@monitoring@ibmras@@V?$allocator@VReceivedMessage@ConnectorManager@connector@monitoring@ibmras@@@std@@@std@@@std@@QEAA@XZ 000000018000caf0 f i Agent.obj
 0001:0000bb20       ?_Tidy@?$deque@VReceivedMessage@ConnectorManager@connector@monitoring@ibmras@@V?$allocator@VReceivedMessage@ConnectorManager@connector@monitoring@ibmras@@@std@@@std@@IEAAXXZ 000000018000cb20 f i Agent.obj
 0001:0000bc00       ?erase@?$deque@VReceivedMessage@ConnectorManager@connector@monitoring@ibmras@@V?$allocator@VReceivedMessage@ConnectorManager@connector@monitoring@ibmras@@@std@@@std@@QEAA?AV?$_Deque_iterator@V?$_Deque_val@U?$_Deque_simple_types@VReceivedMessage@ConnectorManager@connector@monitoring@ibmras@@@std@@@std@@@2@V?$_Deque_const_iterator@V?$_Deque_val@U?$_Deque_simple_types@VReceivedMessage@ConnectorManager@connector@monitoring@ibmras@@@std@@@std@@@2@0@Z 000000018000cc00 f i Agent.obj
 0001:0000bfa0       ?append@?$basic_string@DU?$char_traits@D@std@@V?$allocator@D@2@@std@@QEAAAEAV12@QEBD_K@Z 000000018000cfa0 f i Agent.obj
 0001:0000c020       ?clear@?$_Tree@V?$_Tset_traits@PEAVConnector@connector@monitoring@ibmras@@U?$less@PEAVConnector@connector@monitoring@ibmras@@@std@@V?$allocator@PEAVConnector@connector@monitoring@ibmras@@@6@$0A@@std@@@std@@QEAAXXZ 000000018000d020 f i Agent.obj
 0001:0000c020       ?clear@?$_Tree@V?$_Tset_traits@PEAVReceiver@connector@monitoring@ibmras@@U?$less@PEAVReceiver@connector@monitoring@ibmras@@@std@@V?$allocator@PEAVReceiver@connector@monitoring@ibmras@@@6@$0A@@std@@@std@@QEAAXXZ 000000018000d020 f i Agent.obj
 0001:0000c0b0       ?erase@?$_Tree@V?$_Tset_traits@PEAVConnector@connector@monitoring@ibmras@@U?$less@PEAVConnector@connector@monitoring@ibmras@@@std@@V?$allocator@PEAVConnector@connector@monitoring@ibmras@@@6@$0A@@std@@@std@@QEAA?AV?$_Tree_const_iterator@V?$_Tree_val@U?$_Tree_simple_types@PEAVConnector@connector@monitoring@ibmras@@@std@@@std@@@2@V32@0@Z 000000018000d0b0 f i Agent.obj
 0001:0000c0b0       ?erase@?$_Tree@V?$_Tset_traits@PEAVReceiver@connector@monitoring@ibmras@@U?$less@PEAVReceiver@connector@monitoring@ibmras@@@std@@V?$allocator@PEAVReceiver@connector@monitoring@ibmras@@@6@$0A@@std@@@std@@QEAA?AV?$_Tree_const_iterator@V?$_Tree_val@U?$_Tree_simple_types@PEAVReceiver@connector@monitoring@ibmras@@@std@@@std@@@2@V32@0@Z 000000018000d0b0 f i Agent.obj
 0001:0000c1e0       ?_Erase@?$_Tree@V?$_Tset_traits@PEAVConnector@connector@monitoring@ibmras@@U?$less@PEAVConnector@connector@monitoring@ibmras@@@std@@V?$allocator@PEAVConnector@connector@monitoring@ibmras@@@6@$0A@@std@@@std@@IEAAXPEAU?$_Tree_node@PEAVConnector@connector@monitoring@ibmras@@PEAX@2@@Z 000000018000d1e0 f i Agent.obj
 0001:0000c1e0       ?_Erase@?$_Tree@V?$_Tset_traits@PEAVReceiver@connector@monitoring@ibmras@@U?$less@PEAVReceiver@connector@monitoring@ibmras@@@std@@V?$allocator@PEAVReceiver@connector@monitoring@ibmras@@@6@$0A@@std@@@std@@IEAAXPEAU?$_Tree_node@PEAVReceiver@connector@monitoring@ibmras@@PEAX@2@@Z 000000018000d1e0 f i Agent.obj
 0001:0000c240       ?_Extract@?$_Tree_val@U?$_Tree_simple_types@PEAVReceiver@connector@monitoring@ibmras@@@std@@@std@@QEAAPEAU?$_Tree_node@PEAVReceiver@connector@monitoring@ibmras@@PEAX@2@V?$_Tree_const_iterator@V?$_Tree_val@U?$_Tree_simple_types@PEAVReceiver@connector@monitoring@ibmras@@@std@@@std@@@2@@Z 000000018000d240 f i Agent.obj
 0001:0000c240       ?_Extract@?$_Tree_val@U?$_Tree_simple_types@PEAVConnector@connector@monitoring@ibmras@@@std@@@std@@QEAAPEAU?$_Tree_node@PEAVConnector@connector@monitoring@ibmras@@PEAX@2@V?$_Tree_const_iterator@V?$_Tree_val@U?$_Tree_simple_types@PEAVConnector@connector@monitoring@ibmras@@@std@@@std@@@2@@Z 000000018000d240 f i Agent.obj
 0001:0000c6d0       ?add@?$DataSourceList@Upushsource@@@agent@monitoring@ibmras@@QEAAXIPEAUpushsource@@V?$basic_string@DU?$char_traits@D@std@@V?$allocator@D@2@@std@@@Z 000000018000d6d0 f i Agent.obj
 0001:0000c6d0       ?add@?$DataSourceList@Upullsource@@@agent@monitoring@ibmras@@QEAAXIPEAUpullsource@@V?$basic_string@DU?$char_traits@D@std@@V?$allocator@D@2@@std@@@Z 000000018000d6d0 f i Agent.obj
 0001:0000c860       ?toString@?$DataSourceList@Upushsource@@@agent@monitoring@ibmras@@QEAA?AV?$basic_string@DU?$char_traits@D@std@@V?$allocator@D@2@@std@@XZ 000000018000d860 f i Agent.obj
 0001:0000c860       ?toString@?$DataSourceList@Upullsource@@@agent@monitoring@ibmras@@QEAA?AV?$basic_string@DU?$char_traits@D@std@@V?$allocator@D@2@@std@@XZ 000000018000d860 f i Agent.obj
 0001:0000caf0       ?getBuckets@?$DataSourceList@Upushsource@@@agent@monitoring@ibmras@@QEAA?AV?$vector@PEAVBucket@agent@monitoring@ibmras@@V?$allocator@PEAVBucket@agent@monitoring@ibmras@@@std@@@std@@XZ 000000018000daf0 f i Agent.obj
 0001:0000caf0       ?getBuckets@?$DataSourceList@Upullsource@@@agent@monitoring@ibmras@@QEAA?AV?$vector@PEAVBucket@agent@monitoring@ibmras@@V?$allocator@PEAVBucket@agent@monitoring@ibmras@@@std@@@std@@XZ 000000018000daf0 f i Agent.obj
 0001:0000cc40       ??$_Emplace_reallocate@AEBQEAVPlugin@monitoring@ibmras@@@?$vector@PEAVPlugin@monitoring@ibmras@@V?$allocator@PEAVPlugin@monitoring@ibmras@@@std@@@std@@QEAAPEAPEAVPlugin@monitoring@ibmras@@QEAPEAV234@AEBQEAV234@@Z 000000018000dc40 f i Agent.obj
 0001:0000cda0       ??$copy@V?$_Deque_const_iterator@V?$_Deque_val@U?$_Deque_simple_types@VReceivedMessage@ConnectorManager@connector@monitoring@ibmras@@@std@@@std@@@std@@V?$_Deque_iterator@V?$_Deque_val@U?$_Deque_simple_types@VReceivedMessage@ConnectorManager@connector@monitoring@ibmras@@@std@@@std@@@2@@std@@YA?AV?$_Deque_iterator@V?$_Deque_val@U?$_Deque_simple_types@VReceivedMessage@ConnectorManager@connector@monitoring@ibmras@@@std@@@std@@@0@V?$_Deque_const_iterator@V?$_Deque_val@U?$_Deque_simple_types@VReceivedMessage@ConnectorManager@connector@monitoring@ibmras@@@std@@@std@@@0@0V10@@Z 000000018000dda0 f i Agent.obj
 0001:0000cf10       ??$insert@V?$_Deque_const_iterator@V?$_Deque_val@U?$_Deque_simple_types@VReceivedMessage@ConnectorManager@connector@monitoring@ibmras@@@std@@@std@@@std@@X@?$deque@VReceivedMessage@ConnectorManager@connector@monitoring@ibmras@@V?$allocator@VReceivedMessage@ConnectorManager@connector@monitoring@ibmras@@@std@@@std@@QEAA?AV?$_Deque_iterator@V?$_Deque_val@U?$_Deque_simple_types@VReceivedMessage@ConnectorManager@connector@monitoring@ibmras@@@std@@@std@@@1@V?$_Deque_const_iterator@V?$_Deque_val@U?$_Deque_simple_types@VReceivedMessage@ConnectorManager@connector@monitoring@ibmras@@@std@@@std@@@1@00@Z 000000018000df10 f i Agent.obj
 0001:0000d290       ??$_Copy@U_Copy_tag@?$_Tree@V?$_Tset_traits@PEAVConnector@connector@monitoring@ibmras@@U?$less@PEAVConnector@connector@monitoring@ibmras@@@std@@V?$allocator@PEAVConnector@connector@monitoring@ibmras@@@6@$0A@@std@@@std@@@?$_Tree@V?$_Tset_traits@PEAVConnector@connector@monitoring@ibmras@@U?$less@PEAVConnector@connector@monitoring@ibmras@@@std@@V?$allocator@PEAVConnector@connector@monitoring@ibmras@@@6@$0A@@std@@@std@@IEAAXAEBV01@U_Copy_tag@01@@Z 000000018000e290 f i Agent.obj
 0001:0000d290       ??$_Copy@U_Copy_tag@?$_Tree@V?$_Tset_traits@PEAVReceiver@connector@monitoring@ibmras@@U?$less@PEAVReceiver@connector@monitoring@ibmras@@@std@@V?$allocator@PEAVReceiver@connector@monitoring@ibmras@@@6@$0A@@std@@@std@@@?$_Tree@V?$_Tset_traits@PEAVReceiver@connector@monitoring@ibmras@@U?$less@PEAVReceiver@connector@monitoring@ibmras@@@std@@V?$allocator@PEAVReceiver@connector@monitoring@ibmras@@@6@$0A@@std@@@std@@IEAAXAEBV01@U_Copy_tag@01@@Z 000000018000e290 f i Agent.obj
 0001:0000d340       ??$_Reallocate_grow_by@V<lambda_65e615be2a453ca0576c979606f46740>@@PEBD_K@?$basic_string@DU?$char_traits@D@std@@V?$allocator@D@2@@std@@QEAAAEAV01@_KV<lambda_65e615be2a453ca0576c979606f46740>@@PEBD_K@Z 000000018000e340 f i Agent.obj
 0001:0000d4c0       ?_Change_array@?$vector@PEAVPlugin@monitoring@ibmras@@V?$allocator@PEAVPlugin@monitoring@ibmras@@@std@@@std@@AEAAXQEAPEAVPlugin@monitoring@ibmras@@_K1@Z 000000018000e4c0 f i Agent.obj
 0001:0000d550       ??D?$_Deque_const_iterator@V?$_Deque_val@U?$_Deque_simple_types@VReceivedMessage@ConnectorManager@connector@monitoring@ibmras@@@std@@@std@@@std@@QEBAAEBVReceivedMessage@ConnectorManager@connector@monitoring@ibmras@@XZ 000000018000e550 f i Agent.obj
 0001:0000d590       ?_Growmap@?$deque@VReceivedMessage@ConnectorManager@connector@monitoring@ibmras@@V?$allocator@VReceivedMessage@ConnectorManager@connector@monitoring@ibmras@@@std@@@std@@IEAAX_K@Z 000000018000e590 f i Agent.obj
 0001:0000d770       ?push_back@?$deque@VReceivedMessage@ConnectorManager@connector@monitoring@ibmras@@V?$allocator@VReceivedMessage@ConnectorManager@connector@monitoring@ibmras@@@std@@@std@@QEAAXAEBVReceivedMessage@ConnectorManager@connector@monitoring@ibmras@@@Z 000000018000e770 f i Agent.obj
 0001:0000d840       ?reserve@?$basic_string@DU?$char_traits@D@std@@V?$allocator@D@2@@std@@QEAAX_K@Z 000000018000e840 f i Agent.obj
 0001:0000da00       ?_Xlen@?$deque@VReceivedMessage@ConnectorManager@connector@monitoring@ibmras@@V?$allocator@VReceivedMessage@ConnectorManager@connector@monitoring@ibmras@@@std@@@std@@IEBAXXZ 000000018000ea00 f i Agent.obj
 0001:0000da20       ?toString@?$DataSource@Upushsource@@@agent@monitoring@ibmras@@QEAA?AV?$basic_string@DU?$char_traits@D@std@@V?$allocator@D@2@@std@@XZ 000000018000ea20 f i Agent.obj
 0001:0000da20       ?toString@?$DataSource@Upullsource@@@agent@monitoring@ibmras@@QEAA?AV?$basic_string@DU?$char_traits@D@std@@V?$allocator@D@2@@std@@XZ 000000018000ea20 f i Agent.obj
 0001:0000dd50       ??$_Insert_range@PEAPEAVPlugin@monitoring@ibmras@@@?$vector@PEAVPlugin@monitoring@ibmras@@V?$allocator@PEAVPlugin@monitoring@ibmras@@@std@@@std@@AEAAXV?$_Vector_const_iterator@V?$_Vector_val@U?$_Simple_types@PEAVPlugin@monitoring@ibmras@@@std@@@std@@@1@PEAPEAVPlugin@monitoring@ibmras@@1Uforward_iterator_tag@1@@Z 000000018000ed50 f i Agent.obj
 0001:0000df70       ??$rotate@V?$_Deque_iterator@V?$_Deque_val@U?$_Deque_simple_types@VReceivedMessage@ConnectorManager@connector@monitoring@ibmras@@@std@@@std@@@std@@@std@@YA?AV?$_Deque_iterator@V?$_Deque_val@U?$_Deque_simple_types@VReceivedMessage@ConnectorManager@connector@monitoring@ibmras@@@std@@@std@@@0@V10@00@Z 000000018000ef70 f i Agent.obj
 0001:0000e0f0       ??$_Copy_nodes@U_Copy_tag@?$_Tree@V?$_Tset_traits@PEAVConnector@connector@monitoring@ibmras@@U?$less@PEAVConnector@connector@monitoring@ibmras@@@std@@V?$allocator@PEAVConnector@connector@monitoring@ibmras@@@6@$0A@@std@@@std@@@?$_Tree@V?$_Tset_traits@PEAVConnector@connector@monitoring@ibmras@@U?$less@PEAVConnector@connector@monitoring@ibmras@@@std@@V?$allocator@PEAVConnector@connector@monitoring@ibmras@@@6@$0A@@std@@@std@@IEAAPEAU?$_Tree_node@PEAVConnector@connector@monitoring@ibmras@@PEAX@1@PEAU21@0U_Copy_tag@01@@Z 000000018000f0f0 f i Agent.obj
 0001:0000e0f0       ??$_Copy_nodes@U_Copy_tag@?$_Tree@V?$_Tset_traits@PEAVReceiver@connector@monitoring@ibmras@@U?$less@PEAVReceiver@connector@monitoring@ibmras@@@std@@V?$allocator@PEAVReceiver@connector@monitoring@ibmras@@@6@$0A@@std@@@std@@@?$_Tree@V?$_Tset_traits@PEAVReceiver@connector@monitoring@ibmras@@U?$less@PEAVReceiver@connector@monitoring@ibmras@@@std@@V?$allocator@PEAVReceiver@connector@monitoring@ibmras@@@6@$0A@@std@@@std@@IEAAPEAU?$_Tree_node@PEAVReceiver@connector@monitoring@ibmras@@PEAX@1@PEAU21@0U_Copy_tag@01@@Z 000000018000f0f0 f i Agent.obj
 0001:0000e1c0       ??$_Reverse_unchecked@V?$_Deque_unchecked_iterator@V?$_Deque_val@U?$_Deque_simple_types@VReceivedMessage@ConnectorManager@connector@monitoring@ibmras@@@std@@@std@@@std@@@std@@YAXV?$_Deque_unchecked_iterator@V?$_Deque_val@U?$_Deque_simple_types@VReceivedMessage@ConnectorManager@connector@monitoring@ibmras@@@std@@@std@@@0@0@Z 000000018000f1c0 f i Agent.obj
 0001:0000e374       ??_EConnectorManager@connector@monitoring@ibmras@@W7EAAPEAXI@Z 000000018000f374 f i Agent.obj
 0001:0000e380       ?stopAll@ThreadPool@threads@agent@monitoring@ibmras@@QEAAXXZ 000000018000f380 f   ThreadPool.obj
 0001:0000e540       ??1ThreadPool@threads@agent@monitoring@ibmras@@QEAA@XZ 000000018000f540 f   ThreadPool.obj
 0001:0000e660       ?stop@WorkerThread@threads@agent@monitoring@ibmras@@QEAAXXZ 000000018000f660 f   WorkerThread.obj
 0001:0000e6e0       ?cleanUp@WorkerThread@threads@agent@monitoring@ibmras@@SAPEAXPEAVThreadData@port@common@5@@Z 000000018000f6e0 f   WorkerThread.obj
 0001:0000e700       ?threadEntry@WorkerThread@threads@agent@monitoring@ibmras@@SAPEAXPEAVThreadData@port@common@5@@Z 000000018000f700 f   WorkerThread.obj
 0001:0000e8e0       ??1Plugin@monitoring@ibmras@@UEAA@XZ 000000018000f8e0 f i SystemReceiver.obj
 0001:0000e950       ??_GPlugin@monitoring@ibmras@@UEAAPEAXI@Z 000000018000f950 f i SystemReceiver.obj
 0001:0000e950       ??_EPlugin@monitoring@ibmras@@UEAAPEAXI@Z 000000018000f950 f i * CIL library *:* CIL module *
 0001:0000e990       getVersionSys              000000018000f990 f   SystemReceiver.obj
 0001:0000e9a0       ??0SystemReceiver@agent@monitoring@ibmras@@QEAA@XZ 000000018000f9a0 f   SystemReceiver.obj
 0001:0000ea50       ??_ESystemReceiver@agent@monitoring@ibmras@@UEAAPEAXI@Z 000000018000fa50 f i * CIL library *:* CIL module *
 0001:0000ea50       ??_GSystemReceiver@agent@monitoring@ibmras@@UEAAPEAXI@Z 000000018000fa50 f i SystemReceiver.obj
 0001:0000eab0       ?receiveMessage@SystemReceiver@agent@monitoring@ibmras@@UEAAXAEBV?$basic_string@DU?$char_traits@D@std@@V?$allocator@D@2@@std@@IPEAX@Z 000000018000fab0 f   SystemReceiver.obj
 0001:0000efe0       ibmras_getSystemReceiver   000000018000ffe0 f   SystemReceiver.obj
 0001:0000effc       ??_ESystemReceiver@agent@monitoring@ibmras@@W7EAAPEAXI@Z 000000018000fffc f i SystemReceiver.obj
 0001:0000f010       ??0ConnectorManager@connector@monitoring@ibmras@@QEAA@XZ 0000000180010010 f   ConnectorManager.obj
 0001:0000f130       ??1ConnectorManager@connector@monitoring@ibmras@@UEAA@XZ 0000000180010130 f   ConnectorManager.obj
 0001:0000f220       ?addConnector@ConnectorManager@connector@monitoring@ibmras@@QEAAXPEAVConnector@234@@Z 0000000180010220 f   ConnectorManager.obj
 0001:0000f300       ?removeConnector@ConnectorManager@connector@monitoring@ibmras@@QEAAXPEAVConnector@234@@Z 0000000180010300 f   ConnectorManager.obj
 0001:0000f3f0       ?removeAllConnectors@ConnectorManager@connector@monitoring@ibmras@@QEAAXXZ 00000001800103f0 f   ConnectorManager.obj
 0001:0000f400       ?addReceiver@ConnectorManager@connector@monitoring@ibmras@@QEAAXPEAVReceiver@234@@Z 0000000180010400 f   ConnectorManager.obj
 0001:0000f4e0       ?removeReceiver@ConnectorManager@connector@monitoring@ibmras@@QEAAXPEAVReceiver@234@@Z 00000001800104e0 f   ConnectorManager.obj
 0001:0000f5d0       ?removeAllReceivers@ConnectorManager@connector@monitoring@ibmras@@QEAAXXZ 00000001800105d0 f   ConnectorManager.obj
 0001:0000f5e0       ?receiveMessage@ConnectorManager@connector@monitoring@ibmras@@UEAAXAEBV?$basic_string@DU?$char_traits@D@std@@V?$allocator@D@2@@std@@IPEAX@Z 00000001800105e0 f   ConnectorManager.obj
 0001:0000f6b0       ?processMessage@ConnectorManager@connector@monitoring@ibmras@@QEAAXAEBV?$basic_string@DU?$char_traits@D@std@@V?$allocator@D@2@@std@@IPEAX@Z 00000001800106b0 f   ConnectorManager.obj
 0001:0000f770       ?processReceivedMessage@ConnectorManager@connector@monitoring@ibmras@@AEAAXAEBVReceivedMessage@1234@@Z 0000000180010770 f   ConnectorManager.obj
 0001:0000f830       ?processThread@ConnectorManager@connector@monitoring@ibmras@@CAPEAXPEAVThreadData@port@common@4@@Z 0000000180010830 f   ConnectorManager.obj
 0001:0000f850       ?processReceivedMessages@ConnectorManager@connector@monitoring@ibmras@@AEAAXXZ 0000000180010850 f   ConnectorManager.obj
 0001:0000fb10       ?sendMessage@ConnectorManager@connector@monitoring@ibmras@@UEAAHAEBV?$basic_string@DU?$char_traits@D@std@@V?$allocator@D@2@@std@@IPEAX@Z 0000000180010b10 f   ConnectorManager.obj
 0001:0000fc50       ?getConnector@ConnectorManager@connector@monitoring@ibmras@@QEAAPEAVConnector@234@AEBV?$basic_string@DU?$char_traits@D@std@@V?$allocator@D@2@@std@@@Z 0000000180010c50 f   ConnectorManager.obj
 0001:0000fdd0       ?start@ConnectorManager@connector@monitoring@ibmras@@UEAAHXZ 0000000180010dd0 f   ConnectorManager.obj
 0001:0000feb0       ?stop@ConnectorManager@connector@monitoring@ibmras@@UEAAHXZ 0000000180010eb0 f   ConnectorManager.obj
 0001:0000ff70       ??0ReceivedMessage@ConnectorManager@connector@monitoring@ibmras@@QEAA@AEBV?$basic_string@DU?$char_traits@D@std@@V?$allocator@D@2@@std@@IPEAX@Z 0000000180010f70 f   ConnectorManager.obj
 0001:00010080       ??$_Insert_at@AEBQEAVReceiver@connector@monitoring@ibmras@@U_Not_a_node_tag@std@@@?$_Tree@V?$_Tset_traits@PEAVReceiver@connector@monitoring@ibmras@@U?$less@PEAVReceiver@connector@monitoring@ibmras@@@std@@V?$allocator@PEAVReceiver@connector@monitoring@ibmras@@@6@$0A@@std@@@std@@IEAA?AV?$_Tree_const_iterator@V?$_Tree_val@U?$_Tree_simple_types@PEAVReceiver@connector@monitoring@ibmras@@@std@@@std@@@1@_NPEAU?$_Tree_node@PEAVReceiver@connector@monitoring@ibmras@@PEAX@1@AEBQEAVReceiver@connector@monitoring@ibmras@@U_Not_a_node_tag@1@@Z 0000000180011080 f i ConnectorManager.obj
 0001:00010080       ??$_Insert_at@AEBQEAVConnector@connector@monitoring@ibmras@@U_Not_a_node_tag@std@@@?$_Tree@V?$_Tset_traits@PEAVConnector@connector@monitoring@ibmras@@U?$less@PEAVConnector@connector@monitoring@ibmras@@@std@@V?$allocator@PEAVConnector@connector@monitoring@ibmras@@@6@$0A@@std@@@std@@IEAA?AV?$_Tree_const_iterator@V?$_Tree_val@U?$_Tree_simple_types@PEAVConnector@connector@monitoring@ibmras@@@std@@@std@@@1@_NPEAU?$_Tree_node@PEAVConnector@connector@monitoring@ibmras@@PEAX@1@AEBQEAVConnector@connector@monitoring@ibmras@@U_Not_a_node_tag@1@@Z 0000000180011080 f i ConnectorManager.obj
 0001:00010360       ??0Bucket@agent@monitoring@ibmras@@QEAA@IIIAEBV?$basic_string@DU?$char_traits@D@std@@V?$allocator@D@2@@std@@@Z 0000000180011360 f   Bucket.obj
 0001:00010480       ??_EBucketData@Bucket@agent@monitoring@ibmras@@UEAAPEAXI@Z 0000000180011480 f i * CIL library *:* CIL module *
 0001:00010480       ??_GBucketData@Bucket@agent@monitoring@ibmras@@UEAAPEAXI@Z 0000000180011480 f i Bucket.obj
 0001:00010510       ?publish@Bucket@agent@monitoring@ibmras@@QEAAXAEAVConnector@connector@34@@Z 0000000180011510 f   Bucket.obj
 0001:000107c0       ?spill@Bucket@agent@monitoring@ibmras@@AEAA_NI@Z 00000001800117c0 f   Bucket.obj
 0001:000108f0       ?add@Bucket@agent@monitoring@ibmras@@QEAA_NPEAUmonitordata@@@Z 00000001800118f0 f   Bucket.obj
 0001:00010b70       ?getNextData@Bucket@agent@monitoring@ibmras@@QEAAIIAEAHPEAPEAXAEAI@Z 0000000180011b70 f   Bucket.obj
 0001:00010d00       ?getNextPersistentData@Bucket@agent@monitoring@ibmras@@QEAAIIAEAIPEAPEAX@Z 0000000180011d00 f   Bucket.obj
 0001:00010df0       ?republish@Bucket@agent@monitoring@ibmras@@QEAAXAEBV?$basic_string@DU?$char_traits@D@std@@V?$allocator@D@2@@std@@AEAVConnector@connector@34@@Z 0000000180011df0 f   Bucket.obj
 0001:00011190       ?toString@Bucket@agent@monitoring@ibmras@@QEAA?AV?$basic_string@DU?$char_traits@D@std@@V?$allocator@D@2@@std@@XZ 0000000180012190 f   Bucket.obj
 0001:000117d0       ?getProvID@Bucket@agent@monitoring@ibmras@@QEAAIXZ 00000001800127d0 f   Bucket.obj
 0001:000117e0       ?getSourceID@Bucket@agent@monitoring@ibmras@@QEAAIXZ 00000001800127e0 f   Bucket.obj
 0001:000117f0       ?getUniqueID@Bucket@agent@monitoring@ibmras@@QEAA?AV?$basic_string@DU?$char_traits@D@std@@V?$allocator@D@2@@std@@XZ 00000001800127f0 f   Bucket.obj
 0001:00011810       ?add@BucketList@agent@monitoring@ibmras@@QEAA_NPEAVBucket@234@@Z 0000000180012810 f   BucketList.obj
 0001:00011880       ?toString@BucketList@agent@monitoring@ibmras@@QEAA?AV?$basic_string@DU?$char_traits@D@std@@V?$allocator@D@2@@std@@XZ 0000000180012880 f   BucketList.obj
 0001:00011a40       ?add@BucketList@agent@monitoring@ibmras@@QEAA_NV?$vector@PEAVBucket@agent@monitoring@ibmras@@V?$allocator@PEAVBucket@agent@monitoring@ibmras@@@std@@@std@@@Z 0000000180012a40 f   BucketList.obj
 0001:00011b70       ?findBucket@BucketList@agent@monitoring@ibmras@@QEAAPEAVBucket@234@II@Z 0000000180012b70 f   BucketList.obj
 0001:00011bb0       ?findBucket@BucketList@agent@monitoring@ibmras@@QEAAPEAVBucket@234@AEBV?$basic_string@DU?$char_traits@D@std@@V?$allocator@D@2@@std@@@Z 0000000180012bb0 f   BucketList.obj
 0001:00011d00       ?publish@BucketList@agent@monitoring@ibmras@@QEAAXAEAVConnector@connector@34@@Z 0000000180012d00 f   BucketList.obj
 0001:00011d70       ?republish@BucketList@agent@monitoring@ibmras@@QEAAXAEBV?$basic_string@DU?$char_traits@D@std@@V?$allocator@D@2@@std@@AEAVConnector@connector@34@@Z 0000000180012d70 f   BucketList.obj
 0001:00011de0       ?addData@BucketList@agent@monitoring@ibmras@@QEAA_NPEAUmonitordata@@@Z 0000000180012de0 f   BucketList.obj
 0001:00011e70       ?getIDs@BucketList@agent@monitoring@ibmras@@QEAA?AV?$vector@V?$basic_string@DU?$char_traits@D@std@@V?$allocator@D@2@@std@@V?$allocator@V?$basic_string@DU?$char_traits@D@std@@V?$allocator@D@2@@std@@@2@@std@@XZ 0000000180012e70 f   BucketList.obj
 0001:00011fa0       ??$_Emplace_reallocate@V?$basic_string@DU?$char_traits@D@std@@V?$allocator@D@2@@std@@@?$vector@V?$basic_string@DU?$char_traits@D@std@@V?$allocator@D@2@@std@@V?$allocator@V?$basic_string@DU?$char_traits@D@std@@V?$allocator@D@2@@std@@@2@@std@@QEAAPEAV?$basic_string@DU?$char_traits@D@std@@V?$allocator@D@2@@1@QEAV21@$$QEAV21@@Z 0000000180012fa0 f i BucketList.obj
 0001:00012230       ??0Plugin@monitoring@ibmras@@QEAA@XZ 0000000180013230 f   Plugin.obj
 0001:000122b0       ?scan@Plugin@monitoring@ibmras@@SA?AV?$vector@PEAVPlugin@monitoring@ibmras@@V?$allocator@PEAVPlugin@monitoring@ibmras@@@std@@@std@@AEBV?$basic_string@DU?$char_traits@D@std@@V?$allocator@D@2@@5@@Z 00000001800132b0 f   Plugin.obj
 0001:000127e0       ?processLibrary@Plugin@monitoring@ibmras@@SAPEAV123@AEBV?$basic_string@DU?$char_traits@D@std@@V?$allocator@D@2@@std@@@Z 00000001800137e0 f   Plugin.obj
 0001:00012f90       ??0ConfigurationConnector@connector@monitoring@ibmras@@QEAA@XZ 0000000180013f90 f   ConfigurationConnector.obj
 0001:00013020       ??1ConfigurationConnector@connector@monitoring@ibmras@@UEAA@XZ 0000000180014020 f   ConfigurationConnector.obj
 0001:00013090       ?getConfig@ConfigurationConnector@connector@monitoring@ibmras@@QEAA?AV?$basic_string@DU?$char_traits@D@std@@V?$allocator@D@2@@std@@AEBV56@@Z 0000000180014090 f   ConfigurationConnector.obj
 0001:00013260       ?sendMessage@ConfigurationConnector@connector@monitoring@ibmras@@UEAAHAEBV?$basic_string@DU?$char_traits@D@std@@V?$allocator@D@2@@std@@IPEAX@Z 0000000180014260 f   ConfigurationConnector.obj
 0001:00013451       ?_Lock@?$basic_streambuf@DU?$char_traits@D@std@@@std@@UEAAXXZ 0000000180014451 f   msvcprt:MSVCP140.dll
 0001:00013457       ?_Unlock@?$basic_streambuf@DU?$char_traits@D@std@@@std@@UEAAXXZ 0000000180014457 f   msvcprt:MSVCP140.dll
 0001:0001345d       ?showmanyc@?$basic_streambuf@DU?$char_traits@D@std@@@std@@MEAA_JXZ 000000018001445d f   msvcprt:MSVCP140.dll
 0001:00013463       ?uflow@?$basic_streambuf@DU?$char_traits@D@std@@@std@@MEAAHXZ 0000000180014463 f   msvcprt:MSVCP140.dll
 0001:00013469       ?xsgetn@?$basic_streambuf@DU?$char_traits@D@std@@@std@@MEAA_JPEAD_J@Z 0000000180014469 f   msvcprt:MSVCP140.dll
 0001:0001346f       ?xsputn@?$basic_streambuf@DU?$char_traits@D@std@@@std@@MEAA_JPEBD_J@Z 000000018001446f f   msvcprt:MSVCP140.dll
 0001:00013475       ?setbuf@?$basic_streambuf@DU?$char_traits@D@std@@@std@@MEAAPEAV12@PEAD_J@Z 0000000180014475 f   msvcprt:MSVCP140.dll
 0001:0001347b       ?sync@?$basic_streambuf@DU?$char_traits@D@std@@@std@@MEAAHXZ 000000018001447b f   msvcprt:MSVCP140.dll
 0001:00013481       ?imbue@?$basic_streambuf@DU?$char_traits@D@std@@@std@@MEAAXAEBVlocale@2@@Z 0000000180014481 f   msvcprt:MSVCP140.dll
 0001:00013488       ??1_Fac_tidy_reg_t@std@@QEAA@XZ 0000000180014488 f i msvcprt:locale0_implib.obj
 0001:000134f0       ?_Facet_Register@std@@YAXPEAV_Facet_base@1@@Z 00000001800144f0 f   msvcprt:locale0_implib.obj
 0001:00013540       __security_check_cookie    0000000180014540 f   MSVCRT:amdsecgs.obj
 0001:00013564       ??_V@YAXPEAX_K@Z           0000000180014564 f   MSVCRT:delete_array_size.obj
 0001:0001356c       ??2@YAPEAX_K@Z             000000018001456c f   MSVCRT:new_scalar.obj
 0001:000135a8       ??_M@YAXPEAX_K1P6AX0@Z@Z   00000001800145a8 f   MSVCRT:ehvecdtr.obj
 0001:00013614       ?__ArrayUnwind@@YAXPEAX_K1P6AX0@Z@Z 0000000180014614 f   MSVCRT:ehvecdtr.obj
 0001:00013678       ??3@YAXPEAX_K@Z            0000000180014678 f   MSVCRT:delete_scalar_size.obj
 0001:00013678       ??_V@YAXPEAX@Z             0000000180014678 f   MSVCRT:delete_array.obj
 0001:00013680       ??_U@YAPEAX_KAEBUnothrow_t@std@@@Z 0000000180014680 f   MSVCRT:new_array_nothrow.obj
 0001:00013688       __scrt_acquire_startup_lock 0000000180014688 f   MSVCRT:utility.obj
 0001:000136c4       __scrt_dllmain_after_initialize_c 00000001800146c4 f   MSVCRT:utility.obj
 0001:000136f8       __scrt_dllmain_before_initialize_c 00000001800146f8 f   MSVCRT:utility.obj
 0001:00013710       __scrt_dllmain_crt_thread_attach 0000000180014710 f   MSVCRT:utility.obj
 0001:00013738       __scrt_dllmain_crt_thread_detach 0000000180014738 f   MSVCRT:utility.obj
 0001:00013750       __scrt_dllmain_exception_filter 0000000180014750 f   MSVCRT:utility.obj
 0001:000137b0       __scrt_dllmain_uninitialize_c 00000001800147b0 f   MSVCRT:utility.obj
 0001:000137e0       __scrt_dllmain_uninitialize_critical 00000001800147e0 f   MSVCRT:utility.obj
 0001:000137f4       __scrt_initialize_crt      00000001800147f4 f   MSVCRT:utility.obj
 0001:00013840       __scrt_initialize_onexit_tables 0000000180014840 f   MSVCRT:utility.obj
 0001:00013918       __scrt_is_nonwritable_in_current_image 0000000180014918 f   MSVCRT:utility.obj
 0001:000139b4       __scrt_release_startup_lock 00000001800149b4 f   MSVCRT:utility.obj
 0001:000139d8       __scrt_uninitialize_crt    00000001800149d8 f   MSVCRT:utility.obj
 0001:00013a04       _onexit                    0000000180014a04 f   MSVCRT:utility.obj
 0001:00013a54       atexit                     0000000180014a54 f   MSVCRT:utility.obj
 0001:00013d9c       _DllMainCRTStartup         0000000180014d9c f   MSVCRT:dll_dllmain.obj
 0001:00013ddc       __raise_securityfailure    0000000180014ddc f   MSVCRT:gs_report.obj
 0001:00013e10       __report_gsfailure         0000000180014e10 f   MSVCRT:gs_report.obj
 0001:00013f58       ??0bad_alloc@std@@QEAA@AEBV01@@Z 0000000180014f58 f i MSVCRT:throw_bad_alloc.obj
 0001:00013f98       ??0bad_alloc@std@@QEAA@XZ  0000000180014f98 f i MSVCRT:throw_bad_alloc.obj
 0001:00013fb8       ??0bad_array_new_length@std@@QEAA@AEBV01@@Z 0000000180014fb8 f i MSVCRT:throw_bad_alloc.obj
 0001:00013ff8       ??0bad_array_new_length@std@@QEAA@XZ 0000000180014ff8 f i MSVCRT:throw_bad_alloc.obj
 0001:00014018       ??0exception@std@@QEAA@AEBV01@@Z 0000000180015018 f i MSVCRT:throw_bad_alloc.obj
 0001:00014050       ??1bad_array_new_length@std@@UEAA@XZ 0000000180015050 f i MSVCRT:throw_bad_alloc.obj
 0001:00014050       ??1bad_alloc@std@@UEAA@XZ  0000000180015050 f i MSVCRT:throw_bad_alloc.obj
 0001:00014064       ??_Gbad_alloc@std@@UEAAPEAXI@Z 0000000180015064 f i MSVCRT:throw_bad_alloc.obj
 0001:00014064       ??_Ebad_alloc@std@@UEAAPEAXI@Z 0000000180015064 f i MSVCRT:throw_bad_alloc.obj
 0001:00014064       ??_Gexception@std@@UEAAPEAXI@Z 0000000180015064 f i MSVCRT:throw_bad_alloc.obj
 0001:00014064       ??_Gbad_array_new_length@std@@UEAAPEAXI@Z 0000000180015064 f i MSVCRT:throw_bad_alloc.obj
 0001:00014064       ??_Ebad_array_new_length@std@@UEAAPEAXI@Z 0000000180015064 f i MSVCRT:throw_bad_alloc.obj
 0001:00014064       ??_Eexception@std@@UEAAPEAXI@Z 0000000180015064 f i MSVCRT:throw_bad_alloc.obj
 0001:000140a8       ?__scrt_throw_std_bad_alloc@@YAXXZ 00000001800150a8 f   MSVCRT:throw_bad_alloc.obj
 0001:000140c8       ?__scrt_throw_std_bad_array_new_length@@YAXXZ 00000001800150c8 f   MSVCRT:throw_bad_alloc.obj
 0001:000140e8       ?what@exception@std@@UEBAPEBDXZ 00000001800150e8 f i MSVCRT:throw_bad_alloc.obj
 0001:000140fc       ??3@YAXPEAX@Z              00000001800150fc f   MSVCRT:delete_scalar.obj
 0001:00014104       ??2@YAPEAX_KAEBUnothrow_t@std@@@Z 0000000180015104 f   MSVCRT:new_scalar_nothrow.obj
 0001:00014124       __isa_available_init       0000000180015124 f   MSVCRT:cpu_disp.obj
 0001:000142e0       _get_startup_argv_mode     00000001800152e0 f   MSVCRT:argv_mode.obj
 0001:000142e8       __scrt_is_ucrt_dll_in_use  00000001800152e8 f   MSVCRT:ucrt_detection.obj
 0001:000142f4       __crt_debugger_hook        00000001800152f4 f   MSVCRT:utility_desktop.obj
 0001:000142fc       __scrt_fastfail            00000001800152fc f   MSVCRT:utility_desktop.obj
 0001:00014448       __security_init_cookie     0000000180015448 f   MSVCRT:gs_support.obj
 0001:000144f4       DllMain                    00000001800154f4 f   MSVCRT:dll_dllmain_stub.obj
 0001:00014518       ?__scrt_initialize_type_info@@YAXXZ 0000000180015518 f   MSVCRT:tncleanup.obj
 0001:00014528       ?__scrt_uninitialize_type_info@@YAXXZ 0000000180015528 f   MSVCRT:tncleanup.obj
 0001:00014534       __local_stdio_scanf_options 0000000180015534 f i MSVCRT:default_local_stdio_options.obj
 0001:0001453c       __scrt_initialize_default_local_stdio_options 000000018001553c f   MSVCRT:default_local_stdio_options.obj
 0001:00014558       __scrt_get_dyn_tls_init_callback 0000000180015558 f   MSVCRT:dyn_tls_init.obj
 0001:00014560       _RTC_Initialize            0000000180015560 f   MSVCRT:initsect.obj
 0001:0001459c       _RTC_Terminate             000000018001559c f   MSVCRT:initsect.obj
 0001:000145e0       ??_Etype_info@@UEAAPEAXI@Z 00000001800155e0 f i MSVCRT:std_type_info_static.obj
 0001:000145e0       ??_Gtype_info@@UEAAPEAXI@Z 00000001800155e0 f i MSVCRT:std_type_info_static.obj
 0001:0001460b       __CxxFrameHandler3         000000018001560b f   vcruntime:VCRUNTIME140.dll
 0001:00014611       __std_terminate            0000000180015611 f   vcruntime:VCRUNTIME140.dll
 0001:00014617       _purecall                  0000000180015617 f   vcruntime:VCRUNTIME140.dll
 0001:0001461d       __C_specific_handler       000000018001561d f   vcruntime:VCRUNTIME140.dll
 0001:00014623       __std_exception_copy       0000000180015623 f   vcruntime:VCRUNTIME140.dll
 0001:00014629       __std_exception_destroy    0000000180015629 f   vcruntime:VCRUNTIME140.dll
 0001:0001462f       _CxxThrowException         000000018001562f f   vcruntime:VCRUNTIME140.dll
 0001:00014635       memset                     0000000180015635 f   vcruntime:VCRUNTIME140.dll
 0001:0001463b       __std_type_info_destroy_list 000000018001563b f   vcruntime:VCRUNTIME140.dll
 0001:00014641       _callnewh                  0000000180015641 f   ucrt:api-ms-win-crt-heap-l1-1-0.dll
 0001:00014647       malloc                     0000000180015647 f   ucrt:api-ms-win-crt-heap-l1-1-0.dll
 0001:0001464d       terminate                  000000018001564d f   ucrt:api-ms-win-crt-runtime-l1-1-0.dll
 0001:00014653       _seh_filter_dll            0000000180015653 f   ucrt:api-ms-win-crt-runtime-l1-1-0.dll
 0001:00014659       _configure_narrow_argv     0000000180015659 f   ucrt:api-ms-win-crt-runtime-l1-1-0.dll
 0001:0001465f       _initialize_narrow_environment 000000018001565f f   ucrt:api-ms-win-crt-runtime-l1-1-0.dll
 0001:00014665       _initialize_onexit_table   0000000180015665 f   ucrt:api-ms-win-crt-runtime-l1-1-0.dll
 0001:0001466b       _register_onexit_function  000000018001566b f   ucrt:api-ms-win-crt-runtime-l1-1-0.dll
 0001:00014671       _execute_onexit_table      0000000180015671 f   ucrt:api-ms-win-crt-runtime-l1-1-0.dll
 0001:00014677       _crt_atexit                0000000180015677 f   ucrt:api-ms-win-crt-runtime-l1-1-0.dll
 0001:0001467d       _cexit                     000000018001567d f   ucrt:api-ms-win-crt-runtime-l1-1-0.dll
 0001:00014683       _initterm                  0000000180015683 f   ucrt:api-ms-win-crt-runtime-l1-1-0.dll
 0001:00014689       _initterm_e                0000000180015689 f   ucrt:api-ms-win-crt-runtime-l1-1-0.dll
 0001:0001468f       free                       000000018001568f f   ucrt:api-ms-win-crt-heap-l1-1-0.dll
 0001:00014695       IsProcessorFeaturePresent  0000000180015695 f   kernel32:KERNEL32.dll
 0001:0001469c       __scrt_stub_for_acrt_thread_detach 000000018001569c f   MSVCRT:ucrt_stubs.obj
 0001:0001469c       __vcrt_uninitialize        000000018001569c f   MSVCRT:ucrt_stubs.obj
 0001:0001469c       __vcrt_uninitialize_critical 000000018001569c f   MSVCRT:ucrt_stubs.obj
 0001:0001469c       __scrt_stub_for_acrt_uninitialize 000000018001569c f   MSVCRT:ucrt_stubs.obj
 0001:0001469c       __acrt_uninitialize_critical 000000018001569c f   MSVCRT:ucrt_stubs.obj
 0001:0001469c       __acrt_thread_attach       000000018001569c f   MSVCRT:ucrt_stubs.obj
 0001:0001469c       __acrt_thread_detach       000000018001569c f   MSVCRT:ucrt_stubs.obj
 0001:0001469c       __acrt_initialize          000000018001569c f   MSVCRT:ucrt_stubs.obj
 0001:0001469c       __scrt_stub_for_acrt_thread_attach 000000018001569c f   MSVCRT:ucrt_stubs.obj
 0001:0001469c       __vcrt_thread_detach       000000018001569c f   MSVCRT:ucrt_stubs.obj
 0001:0001469c       __vcrt_initialize          000000018001569c f   MSVCRT:ucrt_stubs.obj
 0001:0001469c       __vcrt_thread_attach       000000018001569c f   MSVCRT:ucrt_stubs.obj
 0001:0001469c       __acrt_uninitialize        000000018001569c f   MSVCRT:ucrt_stubs.obj
 0001:0001469c       __scrt_stub_for_acrt_initialize 000000018001569c f   MSVCRT:ucrt_stubs.obj
 0001:0001469c       __scrt_stub_for_acrt_uninitialize_critical 000000018001569c f   MSVCRT:ucrt_stubs.obj
 0001:000146a0       __GSHandlerCheck           00000001800156a0 f   MSVCRT:gshandler.obj
 0001:000146c0       __GSHandlerCheckCommon     00000001800156c0 f   MSVCRT:gshandler.obj
 0001:0001471c       __GSHandlerCheck_EH        000000018001571c f   MSVCRT:gshandlereh.obj
 0001:0001479b       memchr                     000000018001579b f   vcruntime:VCRUNTIME140.dll
 0001:000147a1       memcmp                     00000001800157a1 f   vcruntime:VCRUNTIME140.dll
 0001:000147a7       memcpy                     00000001800157a7 f   vcruntime:VCRUNTIME140.dll
 0001:000147ad       memmove                    00000001800157ad f   vcruntime:VCRUNTIME140.dll
 0001:000147d0       _guard_dispatch_icall_nop  00000001800157d0 f   MSVCRT:guard_dispatch.obj
 0002:00000000       __imp_RtlCaptureContext    0000000180017000     kernel32:KERNEL32.dll
 0002:00000008       __imp_RtlLookupFunctionEntry 0000000180017008     kernel32:KERNEL32.dll
 0002:00000010       __imp_GetLastError         0000000180017010     kernel32:KERNEL32.dll
 0002:00000018       __imp_LoadLibraryA         0000000180017018     kernel32:KERNEL32.dll
 0002:00000020       __imp_GetProcAddress       0000000180017020     kernel32:KERNEL32.dll
 0002:00000028       __imp_FreeLibrary          0000000180017028     kernel32:KERNEL32.dll
 0002:00000030       __imp_ReleaseSemaphore     0000000180017030     kernel32:KERNEL32.dll
 0002:00000038       __imp_WaitForSingleObject  0000000180017038     kernel32:KERNEL32.dll
 0002:00000040       __imp_Sleep                0000000180017040     kernel32:KERNEL32.dll
 0002:00000048       __imp_CloseHandle          0000000180017048     kernel32:KERNEL32.dll
 0002:00000050       __imp_CreateSemaphoreA     0000000180017050     kernel32:KERNEL32.dll
 0002:00000058       __imp_EnterCriticalSection 0000000180017058     kernel32:KERNEL32.dll
 0002:00000060       __imp_LeaveCriticalSection 0000000180017060     kernel32:KERNEL32.dll
 0002:00000068       __imp_InitializeCriticalSection 0000000180017068     kernel32:KERNEL32.dll
 0002:00000070       __imp_DeleteCriticalSection 0000000180017070     kernel32:KERNEL32.dll
 0002:00000078       __imp_GetSystemTime        0000000180017078     kernel32:KERNEL32.dll
 0002:00000080       __imp_FindFirstFileA       0000000180017080     kernel32:KERNEL32.dll
 0002:00000088       __imp_FindNextFileA        0000000180017088     kernel32:KERNEL32.dll
 0002:00000090       __imp_FindClose            0000000180017090     kernel32:KERNEL32.dll
 0002:00000098       __imp_IsProcessorFeaturePresent 0000000180017098     kernel32:KERNEL32.dll
 0002:000000a0       __imp_RtlVirtualUnwind     00000001800170a0     kernel32:KERNEL32.dll
 0002:000000a8       __imp_UnhandledExceptionFilter 00000001800170a8     kernel32:KERNEL32.dll
 0002:000000b0       __imp_InitializeSListHead  00000001800170b0     kernel32:KERNEL32.dll
 0002:000000b8       __imp_DisableThreadLibraryCalls 00000001800170b8     kernel32:KERNEL32.dll
 0002:000000c0       __imp_GetSystemTimeAsFileTime 00000001800170c0     kernel32:KERNEL32.dll
 0002:000000c8       __imp_GetCurrentThreadId   00000001800170c8     kernel32:KERNEL32.dll
 0002:000000d0       __imp_GetCurrentProcessId  00000001800170d0     kernel32:KERNEL32.dll
 0002:000000d8       __imp_QueryPerformanceCounter 00000001800170d8     kernel32:KERNEL32.dll
 0002:000000e0       __imp_TerminateProcess     00000001800170e0     kernel32:KERNEL32.dll
 0002:000000e8       __imp_GetCurrentProcess    00000001800170e8     kernel32:KERNEL32.dll
 0002:000000f0       __imp_SetUnhandledExceptionFilter 00000001800170f0     kernel32:KERNEL32.dll
 0002:000000f8       __imp_IsDebuggerPresent    00000001800170f8     kernel32:KERNEL32.dll
 0002:00000100       \177KERNEL32_NULL_THUNK_DATA 0000000180017100     kernel32:KERNEL32.dll
 0002:00000108       __imp_?_Pninc@?$basic_streambuf@DU?$char_traits@D@std@@@std@@IEAAPEADXZ 0000000180017108     msvcprt:MSVCP140.dll
 0002:00000110       __imp_??0?$basic_iostream@DU?$char_traits@D@std@@@std@@QEAA@PEAV?$basic_streambuf@DU?$char_traits@D@std@@@1@@Z 0000000180017110     msvcprt:MSVCP140.dll
 0002:00000118       __imp_??0?$basic_streambuf@DU?$char_traits@D@std@@@std@@IEAA@XZ 0000000180017118     msvcprt:MSVCP140.dll
 0002:00000120       __imp_?_Lock@?$basic_streambuf@DU?$char_traits@D@std@@@std@@UEAAXXZ 0000000180017120     msvcprt:MSVCP140.dll
 0002:00000128       __imp_?_Unlock@?$basic_streambuf@DU?$char_traits@D@std@@@std@@UEAAXXZ 0000000180017128     msvcprt:MSVCP140.dll
 0002:00000130       __imp_?showmanyc@?$basic_streambuf@DU?$char_traits@D@std@@@std@@MEAA_JXZ 0000000180017130     msvcprt:MSVCP140.dll
 0002:00000138       __imp_?uflow@?$basic_streambuf@DU?$char_traits@D@std@@@std@@MEAAHXZ 0000000180017138     msvcprt:MSVCP140.dll
 0002:00000140       __imp_?xsgetn@?$basic_streambuf@DU?$char_traits@D@std@@@std@@MEAA_JPEAD_J@Z 0000000180017140     msvcprt:MSVCP140.dll
 0002:00000148       __imp_?xsputn@?$basic_streambuf@DU?$char_traits@D@std@@@std@@MEAA_JPEBD_J@Z 0000000180017148     msvcprt:MSVCP140.dll
 0002:00000150       __imp_?setbuf@?$basic_streambuf@DU?$char_traits@D@std@@@std@@MEAAPEAV12@PEAD_J@Z 0000000180017150     msvcprt:MSVCP140.dll
 0002:00000158       __imp_?sync@?$basic_streambuf@DU?$char_traits@D@std@@@std@@MEAAHXZ 0000000180017158     msvcprt:MSVCP140.dll
 0002:00000160       __imp_?imbue@?$basic_streambuf@DU?$char_traits@D@std@@@std@@MEAAXAEBVlocale@2@@Z 0000000180017160     msvcprt:MSVCP140.dll
 0002:00000168       __imp_??1?$basic_iostream@DU?$char_traits@D@std@@@std@@UEAA@XZ 0000000180017168     msvcprt:MSVCP140.dll
 0002:00000170       __imp_?cerr@std@@3V?$basic_ostream@DU?$char_traits@D@std@@@1@A 0000000180017170     msvcprt:MSVCP140.dll
 0002:00000178       __imp_?_Xout_of_range@std@@YAXPEBD@Z 0000000180017178     msvcprt:MSVCP140.dll
 0002:00000180       __imp_??1_Lockit@std@@QEAA@XZ 0000000180017180     msvcprt:MSVCP140.dll
 0002:00000188       __imp_??0_Lockit@std@@QEAA@H@Z 0000000180017188     msvcprt:MSVCP140.dll
 0002:00000190       __imp_?_Getgloballocale@locale@std@@CAPEAV_Locimp@12@XZ 0000000180017190     msvcprt:MSVCP140.dll
 0002:00000198       __imp_?id@?$codecvt@DDU_Mbstatet@@@std@@2V0locale@2@A 0000000180017198     msvcprt:MSVCP140.dll
 0002:000001a0       __imp_?_Fiopen@std@@YAPEAU_iobuf@@PEBDHH@Z 00000001800171a0     msvcprt:MSVCP140.dll
 0002:000001a8       __imp_?_Ipfx@?$basic_istream@DU?$char_traits@D@std@@@std@@QEAA_N_N@Z 00000001800171a8     msvcprt:MSVCP140.dll
 0002:000001b0       __imp_?snextc@?$basic_streambuf@DU?$char_traits@D@std@@@std@@QEAAHXZ 00000001800171b0     msvcprt:MSVCP140.dll
 0002:000001b8       __imp_?_Getcat@?$codecvt@DDU_Mbstatet@@@std@@SA_KPEAPEBVfacet@locale@2@PEBV42@@Z 00000001800171b8     msvcprt:MSVCP140.dll
 0002:000001c0       __imp_?sbumpc@?$basic_streambuf@DU?$char_traits@D@std@@@std@@QEAAHXZ 00000001800171c0     msvcprt:MSVCP140.dll
 0002:000001c8       __imp_?sgetc@?$basic_streambuf@DU?$char_traits@D@std@@@std@@QEAAHXZ 00000001800171c8     msvcprt:MSVCP140.dll
 0002:000001d0       __imp_?getloc@?$basic_streambuf@DU?$char_traits@D@std@@@std@@QEBA?AVlocale@2@XZ 00000001800171d0     msvcprt:MSVCP140.dll
 0002:000001d8       __imp_?_Init@?$basic_streambuf@DU?$char_traits@D@std@@@std@@IEAAXXZ 00000001800171d8     msvcprt:MSVCP140.dll
 0002:000001e0       __imp_?unshift@?$codecvt@DDU_Mbstatet@@@std@@QEBAHAEAU_Mbstatet@@PEAD1AEAPEAD@Z 00000001800171e0     msvcprt:MSVCP140.dll
 0002:000001e8       __imp_?sputc@?$basic_streambuf@DU?$char_traits@D@std@@@std@@QEAAHD@Z 00000001800171e8     msvcprt:MSVCP140.dll
 0002:000001f0       __imp_?in@?$codecvt@DDU_Mbstatet@@@std@@QEBAHAEAU_Mbstatet@@PEBD1AEAPEBDPEAD3AEAPEAD@Z 00000001800171f0     msvcprt:MSVCP140.dll
 0002:000001f8       __imp_?out@?$codecvt@DDU_Mbstatet@@@std@@QEBAHAEAU_Mbstatet@@PEBD1AEAPEBDPEAD3AEAPEAD@Z 00000001800171f8     msvcprt:MSVCP140.dll
 0002:00000200       __imp_??1?$basic_istream@DU?$char_traits@D@std@@@std@@UEAA@XZ 0000000180017200     msvcprt:MSVCP140.dll
 0002:00000208       __imp_?always_noconv@codecvt_base@std@@QEBA_NXZ 0000000180017208     msvcprt:MSVCP140.dll
 0002:00000210       __imp_??Bid@locale@std@@QEAA_KXZ 0000000180017210     msvcprt:MSVCP140.dll
 0002:00000218       __imp_?_Xbad_alloc@std@@YAXXZ 0000000180017218     msvcprt:MSVCP140.dll
 0002:00000220       __imp_?sputn@?$basic_streambuf@DU?$char_traits@D@std@@@std@@QEAA_JPEBD_J@Z 0000000180017220     msvcprt:MSVCP140.dll
 0002:00000228       __imp_?_Xlength_error@std@@YAXPEBD@Z 0000000180017228     msvcprt:MSVCP140.dll
 0002:00000230       __imp_??1?$basic_streambuf@DU?$char_traits@D@std@@@std@@UEAA@XZ 0000000180017230     msvcprt:MSVCP140.dll
 0002:00000238       __imp_??0?$basic_istream@DU?$char_traits@D@std@@@std@@QEAA@PEAV?$basic_streambuf@DU?$char_traits@D@std@@@1@_N@Z 0000000180017238     msvcprt:MSVCP140.dll
 0002:00000240       \177MSVCP140_NULL_THUNK_DATA 0000000180017240     msvcprt:MSVCP140.dll
 0002:00000248       __imp__CxxThrowException   0000000180017248     vcruntime:VCRUNTIME140.dll
 0002:00000250       __imp_memset               0000000180017250     vcruntime:VCRUNTIME140.dll
 0002:00000258       __imp___std_exception_copy 0000000180017258     vcruntime:VCRUNTIME140.dll
 0002:00000260       __imp__purecall            0000000180017260     vcruntime:VCRUNTIME140.dll
 0002:00000268       __imp___std_terminate      0000000180017268     vcruntime:VCRUNTIME140.dll
 0002:00000270       __imp___CxxFrameHandler3   0000000180017270     vcruntime:VCRUNTIME140.dll
 0002:00000278       __imp___std_type_info_destroy_list 0000000180017278     vcruntime:VCRUNTIME140.dll
 0002:00000280       __imp___std_exception_destroy 0000000180017280     vcruntime:VCRUNTIME140.dll
 0002:00000288       __imp_memmove              0000000180017288     vcruntime:VCRUNTIME140.dll
 0002:00000290       __imp_memchr               0000000180017290     vcruntime:VCRUNTIME140.dll
 0002:00000298       __imp_memcmp               0000000180017298     vcruntime:VCRUNTIME140.dll
 0002:000002a0       __imp_memcpy               00000001800172a0     vcruntime:VCRUNTIME140.dll
 0002:000002a8       __imp___C_specific_handler 00000001800172a8     vcruntime:VCRUNTIME140.dll
 0002:000002b0       \177VCRUNTIME140_NULL_THUNK_DATA 00000001800172b0     vcruntime:VCRUNTIME140.dll
 0002:000002b8       __imp_gethostname          00000001800172b8     Ws2_32:WS2_32.dll
 0002:000002c0       \177WS2_32_NULL_THUNK_DATA 00000001800172c0     Ws2_32:WS2_32.dll
 0002:000002c8       __imp__lock_file           00000001800172c8     ucrt:api-ms-win-crt-filesystem-l1-1-0.dll
 0002:000002d0       __imp__unlock_file         00000001800172d0     ucrt:api-ms-win-crt-filesystem-l1-1-0.dll
 0002:000002d8       \177api-ms-win-crt-filesystem-l1-1-0_NULL_THUNK_DATA 00000001800172d8     ucrt:api-ms-win-crt-filesystem-l1-1-0.dll
 0002:000002e0       __imp_free                 00000001800172e0     ucrt:api-ms-win-crt-heap-l1-1-0.dll
 0002:000002e8       __imp__callnewh            00000001800172e8     ucrt:api-ms-win-crt-heap-l1-1-0.dll
 0002:000002f0       __imp_malloc               00000001800172f0     ucrt:api-ms-win-crt-heap-l1-1-0.dll
 0002:000002f8       \177api-ms-win-crt-heap-l1-1-0_NULL_THUNK_DATA 00000001800172f8     ucrt:api-ms-win-crt-heap-l1-1-0.dll
 0002:00000300       __imp__beginthread         0000000180017300     ucrt:api-ms-win-crt-runtime-l1-1-0.dll
 0002:00000308       __imp__endthread           0000000180017308     ucrt:api-ms-win-crt-runtime-l1-1-0.dll
 0002:00000310       __imp__initterm_e          0000000180017310     ucrt:api-ms-win-crt-runtime-l1-1-0.dll
 0002:00000318       __imp__initterm            0000000180017318     ucrt:api-ms-win-crt-runtime-l1-1-0.dll
 0002:00000320       __imp__cexit               0000000180017320     ucrt:api-ms-win-crt-runtime-l1-1-0.dll
 0002:00000328       __imp__crt_atexit          0000000180017328     ucrt:api-ms-win-crt-runtime-l1-1-0.dll
 0002:00000330       __imp__invalid_parameter_noinfo_noreturn 0000000180017330     ucrt:api-ms-win-crt-runtime-l1-1-0.dll
 0002:00000338       __imp__getpid              0000000180017338     ucrt:api-ms-win-crt-runtime-l1-1-0.dll
 0002:00000340       __imp_terminate            0000000180017340     ucrt:api-ms-win-crt-runtime-l1-1-0.dll
 0002:00000348       __imp__seh_filter_dll      0000000180017348     ucrt:api-ms-win-crt-runtime-l1-1-0.dll
 0002:00000350       __imp__configure_narrow_argv 0000000180017350     ucrt:api-ms-win-crt-runtime-l1-1-0.dll
 0002:00000358       __imp__initialize_narrow_environment 0000000180017358     ucrt:api-ms-win-crt-runtime-l1-1-0.dll
 0002:00000360       __imp__initialize_onexit_table 0000000180017360     ucrt:api-ms-win-crt-runtime-l1-1-0.dll
 0002:00000368       __imp__register_onexit_function 0000000180017368     ucrt:api-ms-win-crt-runtime-l1-1-0.dll
 0002:00000370       __imp__execute_onexit_table 0000000180017370     ucrt:api-ms-win-crt-runtime-l1-1-0.dll
 0002:00000378       __imp_abort                0000000180017378     ucrt:api-ms-win-crt-runtime-l1-1-0.dll
 0002:00000380       \177api-ms-win-crt-runtime-l1-1-0_NULL_THUNK_DATA 0000000180017380     ucrt:api-ms-win-crt-runtime-l1-1-0.dll
 0002:00000388       __imp_fread                0000000180017388     ucrt:api-ms-win-crt-stdio-l1-1-0.dll
 0002:00000390       __imp__get_stream_buffer_pointers 0000000180017390     ucrt:api-ms-win-crt-stdio-l1-1-0.dll
 0002:00000398       __imp_fclose               0000000180017398     ucrt:api-ms-win-crt-stdio-l1-1-0.dll
 0002:000003a0       __imp_fputc                00000001800173a0     ucrt:api-ms-win-crt-stdio-l1-1-0.dll
 0002:000003a8       __imp_fgetc                00000001800173a8     ucrt:api-ms-win-crt-stdio-l1-1-0.dll
 0002:000003b0       __imp_fsetpos              00000001800173b0     ucrt:api-ms-win-crt-stdio-l1-1-0.dll
 0002:000003b8       __imp__fseeki64            00000001800173b8     ucrt:api-ms-win-crt-stdio-l1-1-0.dll
 0002:000003c0       __imp_ungetc               00000001800173c0     ucrt:api-ms-win-crt-stdio-l1-1-0.dll
 0002:000003c8       __imp_fflush               00000001800173c8     ucrt:api-ms-win-crt-stdio-l1-1-0.dll
 0002:000003d0       __imp_setvbuf              00000001800173d0     ucrt:api-ms-win-crt-stdio-l1-1-0.dll
 0002:000003d8       __imp_fgetpos              00000001800173d8     ucrt:api-ms-win-crt-stdio-l1-1-0.dll
 0002:000003e0       __imp_fwrite               00000001800173e0     ucrt:api-ms-win-crt-stdio-l1-1-0.dll
 0002:000003e8       __imp___stdio_common_vsnprintf_s 00000001800173e8     ucrt:api-ms-win-crt-stdio-l1-1-0.dll
 0002:000003f0       \177api-ms-win-crt-stdio-l1-1-0_NULL_THUNK_DATA 00000001800173f0     ucrt:api-ms-win-crt-stdio-l1-1-0.dll
 0002:000003f8       __imp_toupper              00000001800173f8     ucrt:api-ms-win-crt-string-l1-1-0.dll
 0002:00000400       __imp_isspace              0000000180017400     ucrt:api-ms-win-crt-string-l1-1-0.dll
 0002:00000408       \177api-ms-win-crt-string-l1-1-0_NULL_THUNK_DATA 0000000180017408     ucrt:api-ms-win-crt-string-l1-1-0.dll
 0002:00000410       __imp_strftime             0000000180017410     ucrt:api-ms-win-crt-time-l1-1-0.dll
 0002:00000418       __imp__time64              0000000180017418     ucrt:api-ms-win-crt-time-l1-1-0.dll
 0002:00000420       __imp__localtime64         0000000180017420     ucrt:api-ms-win-crt-time-l1-1-0.dll
 0002:00000428       \177api-ms-win-crt-time-l1-1-0_NULL_THUNK_DATA 0000000180017428     ucrt:api-ms-win-crt-time-l1-1-0.dll
 0002:00000430       __imp_??0?$basic_ios@DU?$char_traits@D@std@@@std@@IEAA@XZ 0000000180017430     node:node.exe
 0002:00000438       __imp_??1?$basic_ios@DU?$char_traits@D@std@@@std@@UEAA@XZ 0000000180017438     node:node.exe
 0002:00000440       __imp_?widen@?$basic_ios@DU?$char_traits@D@std@@@std@@QEBADD@Z 0000000180017440     node:node.exe
 0002:00000448       __imp_?flush@?$basic_ostream@DU?$char_traits@D@std@@@std@@QEAAAEAV12@XZ 0000000180017448     node:node.exe
 0002:00000450       __imp_?_Osfx@?$basic_ostream@DU?$char_traits@D@std@@@std@@QEAAXXZ 0000000180017450     node:node.exe
 0002:00000458       __imp_?setstate@?$basic_ios@DU?$char_traits@D@std@@@std@@QEAAXH_N@Z 0000000180017458     node:node.exe
 0002:00000460       \177node_NULL_THUNK_DATA   0000000180017460     node:node.exe
 0002:00000468       __guard_check_icall_fptr   0000000180017468     MSVCRT:guard_support.obj
 0002:00000470       __guard_dispatch_icall_fptr 0000000180017470     MSVCRT:guard_support.obj
 0002:00000478       __xc_a                     0000000180017478     MSVCRT:initializers.obj
 0002:000004e8       __xc_z                     00000001800174e8     MSVCRT:initializers.obj
 0002:000004f0       __xi_a                     00000001800174f0     MSVCRT:initializers.obj
 0002:000004f8       __xi_z                     00000001800174f8     MSVCRT:initializers.obj
 0002:00000500       __xp_a                     0000000180017500     MSVCRT:initializers.obj
 0002:00000508       __xp_z                     0000000180017508     MSVCRT:initializers.obj
 0002:00000510       __xt_a                     0000000180017510     MSVCRT:initializers.obj
 0002:00000518       __xt_z                     0000000180017518     MSVCRT:initializers.obj
 0002:00000548       _pRawDllMain               0000000180017548     MSVCRT:dll_dllmain.obj
 0002:00000548       _pDefaultRawDllMain        0000000180017548     MSVCRT:dll_dllmain.obj
 0002:00000568       ??_7exception@std@@6B@     0000000180017568     MSVCRT:throw_bad_alloc.obj
 0002:00000578       ??_C@_0BC@EOODALEL@Unknown?5exception@ 0000000180017578     MSVCRT:throw_bad_alloc.obj
 0002:00000598       ??_7bad_alloc@std@@6B@     0000000180017598     MSVCRT:throw_bad_alloc.obj
 0002:000005a8       ??_C@_0P@GHFPNOJB@bad?5allocation@ 00000001800175a8     MSVCRT:throw_bad_alloc.obj
 0002:000005c0       ??_7bad_array_new_length@std@@6B@ 00000001800175c0     MSVCRT:throw_bad_alloc.obj
 0002:000005d0       ??_C@_0BF@KINCDENJ@bad?5array?5new?5length@ 00000001800175d0     MSVCRT:throw_bad_alloc.obj
 0002:00000618       ??_7type_info@@6B@         0000000180017618     MSVCRT:std_type_info_static.obj
 0002:00000620       ??_C@_02HAOIJKIC@?$CFc@    0000000180017620     Logger.obj
 0002:00000628       ??_C@_0CD@HKOGDKDO@?5com?4ibm?4diagnostics?4healthcent@ 0000000180017628     Logger.obj
 0002:0000064c       ??_C@_06NGAPLPGC@?4debug@  000000018001764c     Logger.obj
 0002:00000658       ??_C@_07CPNGLIBA@?5INFO?3?5@ 0000000180017658     Logger.obj
 0002:00000660       ??_C@_0L@PGNNCIMC@?5WARNING?3?5@ 0000000180017660     Logger.obj
 0002:00000670       ??_C@_07JLFGFDOE@?5FINE?3?5@ 0000000180017670     Logger.obj
 0002:00000678       ??_C@_09EHHMLOD@?5FINEST?3?5@ 0000000180017678     Logger.obj
 0002:00000688       ??_C@_08CIDLDAIH@?5DEBUG?3?5@ 0000000180017688     Logger.obj
 0002:00000694       ??_C@_01CLKCMJKC@?5@       0000000180017694     Logger.obj
 0002:00000698       ??_C@_0CN@OPJALNO@?$CIwarning?$CJ?5failed?5to?5write?5repla@ 0000000180017698     Logger.obj
 0002:000006c8       ??_C@_0BA@JFNIOLAK@string?5too?5long@ 00000001800176c8     Logger.obj
 0002:000006d8       ??_8?$basic_stringstream@DU?$char_traits@D@std@@V?$allocator@D@2@@std@@7B?$basic_ostream@DU?$char_traits@D@std@@@1@@ 00000001800176d8     Logger.obj
 0002:000006e0       ??_7?$basic_stringbuf@DU?$char_traits@D@std@@V?$allocator@D@2@@std@@6B@ 00000001800176e0     Logger.obj
 0002:00000758       ??_7?$basic_stringstream@DU?$char_traits@D@std@@V?$allocator@D@2@@std@@6B@ 0000000180017758     Logger.obj
 0002:00000760       ??_7Logger@common@ibmras@@6B@ 0000000180017760     Logger.obj
 0002:00000768       ??_8?$basic_stringstream@DU?$char_traits@D@std@@V?$allocator@D@2@@std@@7B?$basic_istream@DU?$char_traits@D@std@@@1@@ 0000000180017768     Logger.obj
 0002:00000770       ??_C@_05KJNJLLGA@level@    0000000180017770     LogManager.obj
 0002:00000778       ??_C@_07FPLKDJGL@warning@  0000000180017778     LogManager.obj
 0002:00000780       ??_C@_04NIDJFNBE@info@     0000000180017780     LogManager.obj
 0002:00000788       ??_C@_04DDECELEO@fine@     0000000180017788     LogManager.obj
 0002:00000790       ??_C@_06JCBAKDCK@finest@   0000000180017790     LogManager.obj
 0002:00000798       ??_C@_05GFCDIDHO@debug@    0000000180017798     LogManager.obj
 0002:000007a0       ??_C@_0BD@OLBABOEK@vector?$DMT?$DO?5too?5long@ 00000001800177a0     LogManager.obj
 0002:000007b4       ??_C@_06HLKELJGF@memory@   00000001800177b4     MemoryManager.obj
 0002:000007c0       ??_C@_0CF@FDAMECBK@Failed?5to?5allocate?5memory?5of?5si@ 00000001800177c0     MemoryManager.obj
 0002:000007e8       ??_C@_0BD@BPAPAMPP@Allocated?5?$CFd?5at?5?$CFp@ 00000001800177e8     MemoryManager.obj
 0002:00000800       ??_C@_0BJ@POFIPAFL@Deallocate?5called?5for?5?$CFp@ 0000000180017800     MemoryManager.obj
 0002:00000820       ??_C@_0BK@ECEOABII@Deallocating?5memory?5at?5?$CFp@ 0000000180017820     MemoryManager.obj
 0002:00000840       ??_7MemoryManager@common@ibmras@@6B@ 0000000180017840     MemoryManager.obj
 0002:00000858       ??_C@_09HCDLHOJE@FileUtils@ 0000000180017858     FileUtils.obj
 0002:00000868       ??_C@_0BI@CFPLBAOH@invalid?5string?5position@ 0000000180017868     LibraryUtils.obj
 0002:00000880       ??_C@_04HOKNCALA@Port@     0000000180017880     Thread.obj
 0002:00000888       ??_C@_0BH@BEEDMMMN@in?5thread?4cpp?9?$DOwrapper@ 0000000180017888     Thread.obj
 0002:000008a0       ??_C@_0BM@KPCPKHLH@in?5thread?4cpp?9?$DOcreateThread@ 00000001800178a0     Thread.obj
 0002:000008c0       ??_C@_0CI@KOCJMMDA@in?5thread?4cpp?5creating?5CreateSe@ 00000001800178c0     Thread.obj
 0002:000008e8       ??_C@_0CL@LJMNMPHA@Failed?5to?5create?5semaphore?5?3?5er@ 00000001800178e8     Thread.obj
 0002:00000918       ??_C@_0CE@HMPICEOG@Incrementing?5semaphore?5ticket?5c@ 0000000180017918     Thread.obj
 0002:00000940       ??_C@_0BA@KOAOBNDG@Semaphore?3?3wait@ 0000000180017940     Thread.obj
 0002:00000950       ??_C@_0BI@FNDKDLMP@Semaphore?3?3wait?5SUCCESS@ 0000000180017950     Thread.obj
 0002:00000968       ??_C@_0BN@CGHLMNGI@Semaphore?3?3wait?5WAIT_TIMEOUT@ 0000000180017968     Thread.obj
 0002:00000988       ??_C@_0BM@ECPBBNL@Semaphore?3?3wait?5WAIT_FAILED@ 0000000180017988     Thread.obj
 0002:000009a8       ??_C@_0BI@EFNBPKLC@Semaphore?3?3?$HOSemaphore?$CI?$CJ@ 00000001800179a8     Thread.obj
 0002:000009c0       ??_C@_07CIFAGBMG@unknown@  00000001800179c0     Process.obj
 0002:000009c8       ??_C@_07CODODBAF@locking@  00000001800179c8     Lock.obj
 0002:000009d0       ??_C@_0CO@NLHFEBGI@Attempted?5to?5acquire?5a?5previous@ 00000001800179d0     Lock.obj
 0002:00000a00       ??_C@_0CO@GDFKGAEA@Attempted?5to?5release?5a?5previous@ 0000000180017a00     Lock.obj
 0002:00000a30       ??_C@_01NEMOKFLO@?$DN@     0000000180017a30     Properties.obj
 0002:00000a38       ??_C@_0BB@MOGOBHAF@list?$DMT?$DO?5too?5long@ 0000000180017a38     Properties.obj
 0002:00000a50       ??_C@_0BE@JONHPENG@map?1set?$DMT?$DO?5too?5long@ 0000000180017a50     Properties.obj
 0002:00000a68       ??_7Properties@common@ibmras@@6B@ 0000000180017a68     Properties.obj
 0002:00000a68       ??_7PropertiesFile@common@ibmras@@6B@ 0000000180017a68     PropertiesFile.obj
 0002:00000ab0       ?LIBSUFFIX@@3PEBDEB        0000000180017ab0     Agent.obj
 0002:00000ab8       ?LIBPREFIX@@3PEBDEB        0000000180017ab8     Agent.obj
 0002:00000ad0       ?sysRecVersion@agent@monitoring@ibmras@@3PEBDEB 0000000180017ad0     SystemReceiver.obj
 0002:00000ad8       ?SYM_RECEIVE_MESSAGE@monitoring@ibmras@@3PEBDEB 0000000180017ad8     Plugin.obj
 0002:00000ae0       ?SYM_INIT@monitoring@ibmras@@3PEBDEB 0000000180017ae0     Plugin.obj
 0002:00000ae8       ?SYM_REGISTER_PUSH_SOURCE@monitoring@ibmras@@3PEBDEB 0000000180017ae8     Plugin.obj
 0002:00000af0       ?SYM_CONNECTOR_FACTORY@monitoring@ibmras@@3PEBDEB 0000000180017af0     Plugin.obj
 0002:00000af8       ?SYM_REGISTER_PULL_SOURCE@monitoring@ibmras@@3PEBDEB 0000000180017af8     Plugin.obj
 0002:00000b00       ?SYM_START@monitoring@ibmras@@3PEBDEB 0000000180017b00     Plugin.obj
 0002:00000b08       ?SYM_RECEIVER_FACTORY@monitoring@ibmras@@3PEBDEB 0000000180017b08     Plugin.obj
 0002:00000b10       ?SYM_VERSION@monitoring@ibmras@@3PEBDEB 0000000180017b10     Plugin.obj
 0002:00000b18       ?SYM_STOP@monitoring@ibmras@@3PEBDEB 0000000180017b18     Plugin.obj
 0002:00000b20       ??_7?$basic_filebuf@DU?$char_traits@D@std@@@std@@6B@ 0000000180017b20     PropertiesFile.obj
 0002:00000b98       ??_8?$basic_ifstream@DU?$char_traits@D@std@@@std@@7B@ 0000000180017b98     PropertiesFile.obj
 0002:00000ba0       ??_7?$basic_ifstream@DU?$char_traits@D@std@@@std@@6B@ 0000000180017ba0     PropertiesFile.obj
 0002:00000ba8       ??_7ReceivedMessage@ConnectorManager@connector@monitoring@ibmras@@6B@ 0000000180017ba8     Agent.obj
 0002:00000bb0       ??_7Receiver@connector@monitoring@ibmras@@6B@ 0000000180017bb0     Agent.obj
 0002:00000bc0       ??_7Connector@connector@monitoring@ibmras@@6B@ 0000000180017bc0     Agent.obj
 0002:00000bf0       ??_7ConnectorManager@connector@monitoring@ibmras@@6BConnector@123@@ 0000000180017bf0     Agent.obj
 0002:00000c20       ??_7ConnectorManager@connector@monitoring@ibmras@@6BReceiver@123@@ 0000000180017c20     Agent.obj
 0002:00000c30       ??_7ConfigurationConnector@connector@monitoring@ibmras@@6B@ 0000000180017c30     Agent.obj
 0002:00000c60       ??_7AgentExtensionReceiver@monitoring@ibmras@@6B@ 0000000180017c60     Agent.obj
 0002:00000c70       ??_C@_05LAPONLG@false@     0000000180017c70     Agent.obj
 0002:00000c78       ??_C@_04LOAJBDKD@true@     0000000180017c78     Agent.obj
 0002:00000c7d       ??_C@_00CNPNBAHC@@         0000000180017c7d     Agent.obj
 0002:00000c80       ??_C@_09MILONDLI@Connector@ 0000000180017c80     Agent.obj
 0002:00000c90       ??_C@_0BH@NMDFCGG@ConfigurationConnector@ 0000000180017c90     Agent.obj
 0002:00000ca8       ??_C@_04HLONOPDM@?4dll@    0000000180017ca8     Agent.obj
 0002:00000cb0       ??_C@_07KBDNECO@plugins@   0000000180017cb0     Agent.obj
 0002:00000cb8       ??_C@_06JECEJHIJ@loader@   0000000180017cb8     Agent.obj
 0002:00000cc0       ??_C@_0CC@KNJLIJLF@com?4ibm?4diagnostics?4healthcente@ 0000000180017cc0     Agent.obj
 0002:00000ce8       ??_C@_09NCPIAHOP@heartbeat@ 0000000180017ce8     Agent.obj
 0002:00000cf4       ??_C@_05KEMJHBCB@Agent@    0000000180017cf4     Agent.obj
 0002:00000d00       ??_C@_0BF@LFDBOKOP@May?520?52019?517?330?346@ 0000000180017d00     Agent.obj
 0002:00000d18       ??_C@_05NEFHGMEA@3?42?49@  0000000180017d18     Agent.obj
 0002:00000d20       ??_C@_08PIMOCHPK@logging?4@ 0000000180017d20     Agent.obj
 0002:00000d30       ??_C@_0BP@IHEEOELB@Starting?5agent?5publishing?5loop@ 0000000180017d30     Agent.obj
 0002:00000d50       ??_C@_08NKHNANGO@headless@ 0000000180017d50     Agent.obj
 0002:00000d5c       ??_C@_02LIELOMNJ@on@       0000000180017d5c     Agent.obj
 0002:00000d60       ??_C@_0BO@OOGOPCIH@Exiting?5agent?5publishing?5loop@ 0000000180017d60     Agent.obj
 0002:00000d80       ??_C@_0EF@CIAIGNNL@Pull?5source?5?$CFs?5disabled?5due?5to?5@ 0000000180017d80     Agent.obj
 0002:00000dc8       ??_C@_0CI@FKANPIEP@Starting?5agent?5process?5pull?5sou@ 0000000180017dc8     Agent.obj
 0002:00000df0       ??_C@_0CH@PJMEEBPL@Exiting?5agent?5process?5pull?5sour@ 0000000180017df0     Agent.obj
 0002:00000e18       ??_C@_0BK@EHIOKILF@Push?5sources?5were?5defined@ 0000000180017e18     Agent.obj
 0002:00000e38       ??_C@_0BP@NDFCCDEE@Push?5source?5list?5size?5now?5?3?5?$CFd@ 0000000180017e38     Agent.obj
 0002:00000e58       ??_C@_0BK@JAFFBGJL@No?5sources?5were?5defined?5?$CB@ 0000000180017e58     Agent.obj
 0002:00000e78       ??_C@_0BK@NLKMHNNC@Pull?5sources?5were?5defined@ 0000000180017e78     Agent.obj
 0002:00000e98       ??_C@_0BP@PPHJGCK@Pull?5source?5list?5size?5now?5?3?5?$CFd@ 0000000180017e98     Agent.obj
 0002:00000eb8       ??_C@_0BP@KHEHDNJ@No?5pull?5sources?5were?5defined?5?$CB@ 0000000180017eb8     Agent.obj
 0002:00000ed8       ??_C@_0BB@GLLBNNAK@Creating?5buckets@ 0000000180017ed8     Agent.obj
 0002:00000ef0       ??_C@_0BB@LAOKGBKL@Adding?5plugin?5?$CFs@ 0000000180017ef0     Agent.obj
 0002:00000f08       ??_C@_0DC@LEKONPJF@Push?5source?5?$CFp?0?5Pull?5source?5?$CFp?0@ 0000000180017f08     Agent.obj
 0002:00000f40       ??_C@_0P@LCGOJFFE@?$CFs?0?5version?5?$CFs@ 0000000180017f40     Agent.obj
 0002:00000f50       ??_C@_0N@MGNIDIJJ@Plugin?5added@ 0000000180017f50     Agent.obj
 0002:00000f60       ??_C@_0BL@IEGILBKD@Attempt?5to?5add?5null?5plugin@ 0000000180017f60     Agent.obj
 0002:00000f80       ??_C@_0EF@FDIPNPGO@Zip?5called?5for?5by?5headless?5plug@ 0000000180017f80     Agent.obj
 0002:00000fc8       ??_C@_0BN@KILDFFCD@Agent?5initialisation?5?3?5start@ 0000000180017fc8     Agent.obj
 0002:00000fe8       ??_C@_0M@HPNDKHMO@plugin?4path@ 0000000180017fe8     Agent.obj
 0002:00000ff8       ??_C@_0BI@BJKNKKHP@Plugin?5search?5path?5?3?5?$CFs@ 0000000180017ff8     Agent.obj
 0002:00001010       ??_C@_0BI@LCHJKIEK@agent?4native?4build?4date@ 0000000180018010     Agent.obj
 0002:00001028       ??_C@_0BB@LMEPEEIK@?$CFd?5plugins?5found@ 0000000180018028     Agent.obj
 0002:00001040       ??_C@_0N@DCEFIPAL@Library?5?3?5?$CFs@ 0000000180018040     Agent.obj
 0002:00001050       ??_C@_08JOKHDEJH@readonly@ 0000000180018050     Agent.obj
 0002:00001060       ??_C@_0BE@GCBLJMJL@Agent?5start?5?3?5begin@ 0000000180018060     Agent.obj
 0002:00001078       ??_C@_0BI@MEIOLNFE@Agent?5start?5?3?5receivers@ 0000000180018078     Agent.obj
 0002:00001090       ??_C@_0BJ@NGCFODLN@Agent?5start?5?3?5connectors@ 0000000180018090     Agent.obj
 0002:000010b0       ??_C@_0BN@BCBKOJDK@Agent?5start?5?3?5data?5providers@ 00000001800180b0     Agent.obj
 0002:000010d0       ??_C@_0BF@FAPIAGMF@Agent?5start?5?3?5finish@ 00000001800180d0     Agent.obj
 0002:000010e8       ??_C@_0CA@MKAHKPGP@Invoking?5plugin?5start?5method?5?$CFs@ 00000001800180e8     Agent.obj
 0002:00001108       ??_C@_0CI@OPIONFJH@Warning?5?3?5no?5start?5method?5defin@ 0000000180018108     Agent.obj
 0002:00001130       ??_C@_0BP@POKBOGAD@Invoking?5plugin?5stop?5method?5?$CFs@ 0000000180018130     Agent.obj
 0002:00001150       ??_C@_0CH@KFMNML@Warning?5?3?5no?5stop?5method?5define@ 0000000180018150     Agent.obj
 0002:00001178       ??_C@_0CF@LHABADBP@Add?5receiver?5?$CFs?5to?5connector?5ma@ 0000000180018178     Agent.obj
 0002:000011a0       ??_C@_0CP@DKJLIJPL@Add?5extension?5receiver?5?$CFs?5to?5co@ 00000001800181a0     Agent.obj
 0002:000011d0       ??_C@_0CF@ICABOPEA@Agent?3?3startConnectors?5?$CFs?5type?5@ 00000001800181d0     Agent.obj
 0002:000011f8       ??_C@_0BC@DIGOBFHI@it?5is?5a?5connector@ 00000001800181f8     Agent.obj
 0002:00001210       ??_C@_0BP@LPDPLAHI@Invoking?5factory?5method?5for?5?$CFs@ 0000000180018210     Agent.obj
 0002:00001230       ??_C@_0CD@FKJMHPKJ@Add?5connector?5to?5connector?5mana@ 0000000180018230     Agent.obj
 0002:00001258       ??_C@_0CK@MKKEDOPK@Warning?5?3?5no?5factory?5method?5def@ 0000000180018258     Agent.obj
 0002:00001288       ??_C@_0BD@CEAFAJBA@Agent?5stop?5?3?5begin@ 0000000180018288     Agent.obj
 0002:000012a0       ??_C@_0CD@JHPJBPFA@Waiting?5for?5active?5threads?5to?5s@ 00000001800182a0     Agent.obj
 0002:000012c8       ??_C@_0CF@LMFIMIBC@Checking?5thread?5count?5?9?5current@ 00000001800182c8     Agent.obj
 0002:000012f0       ??_C@_0BM@CDHLDKAI@All?5active?5threads?5now?5quit@ 00000001800182f0     Agent.obj
 0002:00001310       ??_C@_0BE@CKNEECPI@Agent?5stop?5?3?5finish@ 0000000180018310     Agent.obj
 0002:00001328       ??_C@_0BH@EAABNDBH@Agent?5shutdown?5?3?5begin@ 0000000180018328     Agent.obj
 0002:00001340       ??_C@_0BI@LENENDIB@Agent?5shutdown?5?3?5finish@ 0000000180018340     Agent.obj
 0002:00001358       ??_C@_0BM@LHODEHCB@Number?5of?5active?5threads?5?$CFd@ 0000000180018358     Agent.obj
 0002:00001378       ??_C@_0BG@OLIMBBFL@data?4collection?4level@ 0000000180018378     Agent.obj
 0002:00001390       ??_C@_0CO@BBMKPBEA@com?4ibm?4java?4diagnostics?4health@ 0000000180018390     Agent.obj
 0002:000013c0       ??_C@_0BL@FBGOBMFM@Data?5source?5list?5?3?5size?5?$DN?5@ 00000001800183c0     Agent.obj
 0002:000013e0       ??_C@_0BC@KBDMBKEH@deque?$DMT?$DO?5too?5long@ 00000001800183e0     Agent.obj
 0002:000013f4       ??_C@_02MNMNLDAI@?$CJ?6@   00000001800183f4     Agent.obj
 0002:000013f8       ??_C@_01JLIPDDHJ@?3@       00000001800183f8     Agent.obj
 0002:00001400       ??_C@_07MFLFEHHL@?5?$CIid?5?$DN?5@ 0000000180018400     Agent.obj
 0002:00001408       ??_C@_07CMIGFCHA@Threads@  0000000180018408     ThreadPool.obj
 0002:00001410       ??_C@_0BF@NAOLNFFK@Starting?5thread?5pool@ 0000000180018410     ThreadPool.obj
 0002:00001428       ??_C@_0BF@DCEKIPIA@Stopping?5thread?5pool@ 0000000180018428     ThreadPool.obj
 0002:00001440       ??_C@_0CG@PMHALKI@Waiting?5for?5?$CFd?5worker?5threads?5t@ 0000000180018440     ThreadPool.obj
 0002:00001468       ??_C@_0BI@HKLFHBMO@Processing?5pull?5sources@ 0000000180018468     ThreadPool.obj
 0002:00001480       ??_C@_0BO@LMFIOLIF@Starting?5worker?5thread?5for?5?$CFs@ 0000000180018480     WorkerThread.obj
 0002:000014a0       ??_C@_0BN@EMHIOFGI@Worker?5thread?5for?5?$CFs?5stopped@ 00000001800184a0     WorkerThread.obj
 0002:000014c0       ??_C@_0CO@HOHFLOEF@Worker?5thread?5process?5for?5?$CFs?0?5c@ 00000001800184c0     WorkerThread.obj
 0002:000014f0       ??_C@_0BN@DEFIEALM@Worker?5thread?5started?5for?5?$CFs@ 00000001800184f0     WorkerThread.obj
 0002:00001510       ??_C@_0BM@LFAOIPOD@Pulling?5data?5from?5source?5?$CFs@ 0000000180018510     WorkerThread.obj
 0002:00001530       ??_C@_0CH@CDMCEMEA@?$CFd?5bytes?5of?5data?5pulled?5from?5so@ 0000000180018530     WorkerThread.obj
 0002:00001558       ??_C@_0CK@HKFCFALD@Worker?5thread?5for?5?$CFs?5exiting?5pr@ 0000000180018558     WorkerThread.obj
 0002:00001584       ??_C@_03HLLJOCDO@1?40@     0000000180018584     SystemReceiver.obj
 0002:00001588       ??_C@_0BA@CHAODDFK@System?5receiver@ 0000000180018588     SystemReceiver.obj
 0002:00001598       ??_C@_0M@GONPGJKL@datasources@ 0000000180018598     SystemReceiver.obj
 0002:000015a8       ??_C@_0M@HJEFPBL@?1datasource@ 00000001800185a8     SystemReceiver.obj
 0002:000015b8       ??_C@_07MMNEDCBK@history@  00000001800185b8     SystemReceiver.obj
 0002:000015c0       ??_C@_09FEGHDBKA@?1history?1@ 00000001800185c0     SystemReceiver.obj
 0002:000015d0       ??_7SystemReceiver@agent@monitoring@ibmras@@6BPlugin@23@@ 00000001800185d0     SystemReceiver.obj
 0002:000015d8       ??_7Plugin@monitoring@ibmras@@6B@ 00000001800185d8     SystemReceiver.obj
 0002:000015e0       ??_7SystemReceiver@agent@monitoring@ibmras@@6BReceiver@connector@23@@ 00000001800185e0     SystemReceiver.obj
 0002:000015f0       ??_C@_06NNBCBAAF@Bucket@   00000001800185f0     Bucket.obj
 0002:00001600       ??_C@_0EF@FONENKJD@Bucket?5created?5for?3?5?$CFs?0?5provide@ 0000000180018600     Bucket.obj
 0002:00001648       ??_C@_0CN@HKIDKPEK@publishing?5batched?5message?5to?5?$CF@ 0000000180018648     Bucket.obj
 0002:00001678       ??_C@_0CF@CKEAPAHJ@publishing?5message?5to?5?$CFs?5of?5?$CFd?5@ 0000000180018678     Bucket.obj
 0002:000016a0       ??_C@_0CD@HLDENFMO@Removed?5?$CFd?5entries?5from?5the?5buc@ 00000001800186a0     Bucket.obj
 0002:000016c8       ??_C@_0CN@KGCGIDLM@Bucket?5stats?5?$FL?$CFd?3?$CFd?$FN?5?3?5count?5?$DN?5@ 00000001800186c8     Bucket.obj
 0002:000016f8       ??_C@_0DM@GCCJLJNP@Wrong?5data?5sent?5to?5bucket?5?3?5rec@ 00000001800186f8     Bucket.obj
 0002:00001738       ??_C@_0DB@KMFFGKFO@Unable?5to?5allocate?5memory?5for?5?$CF@ 0000000180018738     Bucket.obj
 0002:00001770       ??_C@_0CJ@DJGLNGLO@No?5room?5in?5bucket?5?$CFs?5for?5data?5o@ 0000000180018770     Bucket.obj
 0002:000017a0       ??_C@_0EA@PEDCEAMN@Bucket?5data?5?$FL?$CFs?$FN?5?3?5data?5size?5?$DN?5@ 00000001800187a0     Bucket.obj
 0002:000017e0       ??_C@_0CA@MBJFBHDN@Unable?5to?5allocate?5buffer?5of?5?$CFd@ 00000001800187e0     Bucket.obj
 0002:00001800       ??_C@_0CD@CPKOPPFD@in?5Bucket?3?3getNextPersistentDat@ 0000000180018800     Bucket.obj
 0002:00001828       ??_C@_0DB@JIDIFCED@in?5Bucket?3?3getNextPersistentDat@ 0000000180018828     Bucket.obj
 0002:00001860       ??_C@_0DN@NILMFPDN@in?5Bucket?3?3getNextPersistentDat@ 0000000180018860     Bucket.obj
 0002:000018a0       ??_C@_0BM@KOADFKBB@in?5Bucket?3?3republish?5for?5?$CFs@ 00000001800188a0     Bucket.obj
 0002:000018c0       ??_C@_09NPFLBBAN@?0?5used?5?$DN?5@ 00000001800188c0     Bucket.obj
 0002:000018d0       ??_C@_0L@KCHPHFFD@?0?5count?5?$DN?5@ 00000001800188d0     Bucket.obj
 0002:000018e0       ??_C@_0P@EAKNLBAB@?$FN?0?5capacity?5?$DN?5@ 00000001800188e0     Bucket.obj
 0002:000018f0       ??_C@_08BMCPLEM@Bucket?5?$FL@ 00000001800188f0     Bucket.obj
 0002:00001900       ??_7BucketData@Bucket@agent@monitoring@ibmras@@6B@ 0000000180018900     Bucket.obj
 0002:00001908       ??_C@_0DB@CPDICHDP@BucketList?3?3add?$CIBucket?$CK?5bucket?$CJ@ 0000000180018908     BucketList.obj
 0002:00001940       ??_C@_0BF@CCJMCMHG@Bucket?5list?5?3?5start?6@ 0000000180018940     BucketList.obj
 0002:00001958       ??_C@_0DP@CJGPHEEL@BucketList?3?3add?$CIstd?3?3vector?$DMBuc@ 0000000180018958     BucketList.obj
 0002:00001998       ??_C@_0DA@DFABFL@Attempted?5to?5add?5data?5to?5missin@ 0000000180018998     BucketList.obj
 0002:000019c8       ??_C@_06BFMLBAJE@Plugin@   00000001800189c8     Plugin.obj
 0002:000019d0       ??_C@_0BO@PNPOHOKJ@ibmras_monitoring_plugin_init@ 00000001800189d0     Plugin.obj
 0002:000019f0       ??_C@_0CF@LBGOIJDP@ibmras_monitoring_registerPushS@ 00000001800189f0     Plugin.obj
 0002:00001a18       ??_C@_0CF@EGFNAKGF@ibmras_monitoring_registerPullS@ 0000000180018a18     Plugin.obj
 0002:00001a40       ??_C@_0BO@IIOLPPMH@ibmras_monitoring_plugin_stop@ 0000000180018a40     Plugin.obj
 0002:00001a60       ??_C@_0BP@KNIAKDED@ibmras_monitoring_plugin_start@ 0000000180018a60     Plugin.obj
 0002:00001a80       ??_C@_0BP@CBEHAIEK@ibmras_monitoring_getConnector@ 0000000180018a80     Plugin.obj
 0002:00001aa0       ??_C@_0BO@CMCDNLCK@ibmras_monitoring_getReceiver@ 0000000180018aa0     Plugin.obj
 0002:00001ac0       ??_C@_0CB@PFKBNIPC@ibmras_monitoring_receiveMessag@ 0000000180018ac0     Plugin.obj
 0002:00001ae8       ??_C@_0BN@BHCNENHM@ibmras_monitoring_getVersion@ 0000000180018ae8     Plugin.obj
 0002:00001b08       ??_C@_0BL@MFDLOBIK@Processing?5plugin?5path?3?5?$CFs@ 0000000180018b08     Plugin.obj
 0002:00001b28       ??_C@_0BF@MOBNEBJH@The?5path?5is?5too?5long@ 0000000180018b28     Plugin.obj
 0002:00001b40       ??_C@_06GCOBGCMM@?2?$CK?4dll@ 0000000180018b40     Plugin.obj
 0002:00001b48       ??_C@_0M@PEHIALOF@Scanning?5?$CFs@ 0000000180018b48     Plugin.obj
 0002:00001b58       ??_C@_0BO@CIGKMEIE@Unable?5to?5access?5the?5contents@ 0000000180018b58     Plugin.obj
 0002:00001b78       ??_C@_01KICIPPFI@?2@       0000000180018b78     Plugin.obj
 0002:00001b80       ??_C@_0CB@CEEBCMKJ@Error?5while?5traversing?5director@ 0000000180018b80     Plugin.obj
 0002:00001ba8       ??_C@_0BO@LCEMCJNI@Processing?5plugin?5library?3?5?$CFs@ 0000000180018ba8     Plugin.obj
 0002:00001bc8       ??_C@_0CL@BEONJGPK@Library?5?$CFs?3?5start?$DN?$CFp?5stop?$DN?$CFp?5ge@ 0000000180018bc8     Plugin.obj
 0002:00001bf8       ??_C@_0CH@JPIOBHJM@Library?5?$CFs?5was?5successfully?5rec@ 0000000180018bf8     Plugin.obj
 0002:00001c20       ??_C@_0DF@OMABHKOA@Library?5?$CFs?3?5Both?5?$CFs?5and?5?$CFs?5are?5@ 0000000180018c20     Plugin.obj
 0002:00001c58       ??_C@_0P@MEPPHEDA@configuration?1@ 0000000180018c58     ConfigurationConnector.obj
 0002:00001dd0       __xmm@000000000000000f0000000000000000 0000000180018dd0     ConnectorManager.obj
 0002:00002a80       _load_config_used          0000000180019a80     MSVCRT:loadcfg.obj
 0002:00002b80       ??_R4exception@std@@6B@    0000000180019b80     MSVCRT:throw_bad_alloc.obj
 0002:00002ba8       ??_R3exception@std@@8      0000000180019ba8     MSVCRT:throw_bad_alloc.obj
 0002:00002bc0       ??_R2exception@std@@8      0000000180019bc0     MSVCRT:throw_bad_alloc.obj
 0002:00002bd0       ??_R1A@?0A@EA@exception@std@@8 0000000180019bd0     MSVCRT:throw_bad_alloc.obj
 0002:00002bf8       ??_R4bad_alloc@std@@6B@    0000000180019bf8     MSVCRT:throw_bad_alloc.obj
 0002:00002c20       ??_R3bad_alloc@std@@8      0000000180019c20     MSVCRT:throw_bad_alloc.obj
 0002:00002c38       ??_R2bad_alloc@std@@8      0000000180019c38     MSVCRT:throw_bad_alloc.obj
 0002:00002c50       ??_R1A@?0A@EA@bad_alloc@std@@8 0000000180019c50     MSVCRT:throw_bad_alloc.obj
 0002:00002c78       ??_R4bad_array_new_length@std@@6B@ 0000000180019c78     MSVCRT:throw_bad_alloc.obj
 0002:00002ca0       ??_R3bad_array_new_length@std@@8 0000000180019ca0     MSVCRT:throw_bad_alloc.obj
 0002:00002cb8       ??_R2bad_array_new_length@std@@8 0000000180019cb8     MSVCRT:throw_bad_alloc.obj
 0002:00002cd8       ??_R1A@?0A@EA@bad_array_new_length@std@@8 0000000180019cd8     MSVCRT:throw_bad_alloc.obj
 0002:00002d00       ??_R4type_info@@6B@        0000000180019d00     MSVCRT:std_type_info_static.obj
 0002:00002d28       ??_R3type_info@@8          0000000180019d28     MSVCRT:std_type_info_static.obj
 0002:00002d40       ??_R2type_info@@8          0000000180019d40     MSVCRT:std_type_info_static.obj
 0002:00002d50       ??_R1A@?0A@EA@type_info@@8 0000000180019d50     MSVCRT:std_type_info_static.obj
 0002:000030c8       __rtc_iaa                  000000018001a0c8     MSVCRT:initsect.obj
 0002:000030d0       __rtc_izz                  000000018001a0d0     MSVCRT:initsect.obj
 0002:000030d8       __rtc_taa                  000000018001a0d8     MSVCRT:initsect.obj
 0002:000030e0       __rtc_tzz                  000000018001a0e0     MSVCRT:initsect.obj
 0002:00005ac8       _TI2?AVbad_alloc@std@@     000000018001cac8     MSVCRT:throw_bad_alloc.obj
 0002:00005ae8       _CTA2?AVbad_alloc@std@@    000000018001cae8     MSVCRT:throw_bad_alloc.obj
 0002:00005b00       _CT??_R0?AVbad_alloc@std@@@8??0bad_alloc@std@@QEAA@AEBV01@@Z24 000000018001cb00     MSVCRT:throw_bad_alloc.obj
 0002:00005b28       _CT??_R0?AVexception@std@@@8??0exception@std@@QEAA@AEBV01@@Z24 000000018001cb28     MSVCRT:throw_bad_alloc.obj
 0002:00005b50       _TI3?AVbad_array_new_length@std@@ 000000018001cb50     MSVCRT:throw_bad_alloc.obj
 0002:00005b70       _CTA3?AVbad_array_new_length@std@@ 000000018001cb70     MSVCRT:throw_bad_alloc.obj
 0002:00005b90       _CT??_R0?AVbad_array_new_length@std@@@8??0bad_array_new_length@std@@QEAA@AEBV01@@Z24 000000018001cb90     MSVCRT:throw_bad_alloc.obj
 0002:00009f44       __IMPORT_DESCRIPTOR_WS2_32 0000000180020f44     Ws2_32:WS2_32.dll
 0002:00009f58       __IMPORT_DESCRIPTOR_KERNEL32 0000000180020f58     kernel32:KERNEL32.dll
 0002:00009f6c       __IMPORT_DESCRIPTOR_node   0000000180020f6c     node:node.exe
 0002:00009f80       __IMPORT_DESCRIPTOR_MSVCP140 0000000180020f80     msvcprt:MSVCP140.dll
 0002:00009f94       __IMPORT_DESCRIPTOR_VCRUNTIME140 0000000180020f94     vcruntime:VCRUNTIME140.dll
 0002:00009fa8       __IMPORT_DESCRIPTOR_api-ms-win-crt-time-l1-1-0 0000000180020fa8     ucrt:api-ms-win-crt-time-l1-1-0.dll
 0002:00009fbc       __IMPORT_DESCRIPTOR_api-ms-win-crt-stdio-l1-1-0 0000000180020fbc     ucrt:api-ms-win-crt-stdio-l1-1-0.dll
 0002:00009fd0       __IMPORT_DESCRIPTOR_api-ms-win-crt-runtime-l1-1-0 0000000180020fd0     ucrt:api-ms-win-crt-runtime-l1-1-0.dll
 0002:00009fe4       __IMPORT_DESCRIPTOR_api-ms-win-crt-filesystem-l1-1-0 0000000180020fe4     ucrt:api-ms-win-crt-filesystem-l1-1-0.dll
 0002:00009ff8       __IMPORT_DESCRIPTOR_api-ms-win-crt-string-l1-1-0 0000000180020ff8     ucrt:api-ms-win-crt-string-l1-1-0.dll
 0002:0000a00c       __IMPORT_DESCRIPTOR_api-ms-win-crt-heap-l1-1-0 000000018002100c     ucrt:api-ms-win-crt-heap-l1-1-0.dll
 0002:0000a020       __NULL_IMPORT_DESCRIPTOR   0000000180021020     Ws2_32:WS2_32.dll
 0003:00000000       __scrt_native_dllmain_reason 0000000180023000     MSVCRT:utility.obj
 0003:00000008       __security_cookie_complement 0000000180023008     MSVCRT:gs_cookie.obj
 0003:00000010       __security_cookie          0000000180023010     MSVCRT:gs_cookie.obj
 0003:00000018       __isa_available            0000000180023018     MSVCRT:cpu_disp.obj
 0003:0000001c       __isa_enabled              000000018002301c     MSVCRT:cpu_disp.obj
 0003:00000020       __memcpy_nt_iters          0000000180023020     MSVCRT:cpu_disp.obj
 0003:00000030       __scrt_ucrt_dll_is_in_use  0000000180023030     MSVCRT:ucrt_stubs.obj
 0003:00000058       ??_R0?AVbad_alloc@std@@@8  0000000180023058     MSVCRT:throw_bad_alloc.obj
 0003:00000080       ??_R0?AVexception@std@@@8  0000000180023080     MSVCRT:throw_bad_alloc.obj
 0003:000000a8       ??_R0?AVbad_array_new_length@std@@@8 00000001800230a8     MSVCRT:throw_bad_alloc.obj
 0003:000000d8       ??_R0?AVtype_info@@@8      00000001800230d8     MSVCRT:std_type_info_static.obj
 0003:00000100       ?nothrow@std@@3Unothrow_t@1@B 0000000180023100     msvcprt:nothrow.obj
 0003:00000118       __scrt_current_native_startup_state 0000000180023118     MSVCRT:utility.obj
 0003:00000120       __scrt_native_startup_lock 0000000180023120     MSVCRT:utility.obj
 0003:000006e0       __favor                    00000001800236e0     MSVCRT:cpu_disp.obj
 0003:000006e4       __scrt_debugger_hook_flag  00000001800236e4     MSVCRT:utility_desktop.obj
 0003:000006f0       ?__type_info_root_node@@3U__type_info_node@@A 00000001800236f0     MSVCRT:tncleanup.obj
 0003:00000700       ?_OptionsStorage@?1??__local_stdio_scanf_options@@9@4_KA 0000000180023700     MSVCRT:default_local_stdio_options.obj
 0003:00000708       ?_OptionsStorage@?1??__local_stdio_printf_options@@9@4_KA 0000000180023708     Logger.obj
 0003:00000710       ?instance@LogManager@common@ibmras@@0PEAV123@EA 0000000180023710     LogManager.obj
 0003:00000718       ?localLogFunc@LogManager@common@ibmras@@2P6APEAXAEBV?$basic_string@DU?$char_traits@D@std@@V?$allocator@D@2@@std@@@ZEA 0000000180023718     LogManager.obj
 0003:00000720       ?updateNow@agent@monitoring@ibmras@@3_NA 0000000180023720     Agent.obj
 0003:00000721       ?running@agent@monitoring@ibmras@@3_NA 0000000180023721     Agent.obj
 0003:00000722       ?headlessRunning@agent@monitoring@ibmras@@3_NA 0000000180023722     Agent.obj
 0003:00000728       ?aCF@agent@monitoring@ibmras@@3UagentCoreFunctions@@A 0000000180023728     Agent.obj
 0003:00000748       ?logger@common@ibmras@@3PEAVLogger@12@EA 0000000180023748     MemoryManager.obj
 0003:00000750       ?logger@util@common@ibmras@@3PEAVLogger@23@EA 0000000180023750     FileUtils.obj
 0003:00000758       ?logger@port@common@ibmras@@3PEAVLogger@23@EA 0000000180023758     Thread.obj
 0003:00000760       ?logger@locking@port@common@ibmras@@3PEAVLogger@34@EA 0000000180023760     Lock.obj
 0003:00000768       ?corelogger@agent@monitoring@ibmras@@3PEAVLogger@common@3@EA 0000000180023768     Agent.obj
 0003:00000770       ?logger@agent@monitoring@ibmras@@3PEAVLogger@common@3@EA 0000000180023770     Agent.obj
 0003:00000778       ?pluginlogger@agent@monitoring@ibmras@@3PEAVLogger@common@3@EA 0000000180023778     Agent.obj
 0003:00000780       ?instance@agent@monitoring@ibmras@@3PEAVAgent@123@EA 0000000180023780     Agent.obj
 0003:00000788       ?logger@threads@agent@monitoring@ibmras@@3PEAVLogger@common@4@EA 0000000180023788     ThreadPool.obj
 0003:00000790       ?logger@bucket@agent@monitoring@ibmras@@3PEAVLogger@common@4@EA 0000000180023790     Bucket.obj
 0003:00000798       ?logger@monitoring@ibmras@@3PEAVLogger@common@2@EA 0000000180023798     Plugin.obj
 0003:000007a8       ?_Psave@?$_Facetptr@V?$codecvt@DDU_Mbstatet@@@std@@@std@@2PEBVfacet@locale@2@EB 00000001800237a8     PropertiesFile.obj
 0003:000007b0       ?_Stinit@?1??_Init@?$basic_filebuf@DU?$char_traits@D@std@@@std@@IEAAXPEAU_iobuf@@W4_Initfl@23@@Z@4U_Mbstatet@@A 00000001800237b0     PropertiesFile.obj
 0003:000007b8       __dyn_tls_init_callback    00000001800237b8     <common>

 entry point at        0001:00013d9c

 Static symbols

 0000:fffd8000       .debug$S                   0000000180000000     Ws2_32:WS2_32.dll
 0000:fffd8000       .debug$S                   0000000180000000     vcruntime:VCRUNTIME140.dll
 0000:fffd8000       .debug$S                   0000000180000000     vcruntime:VCRUNTIME140.dll
 0000:fffd8000       .debug$S                   0000000180000000     vcruntime:VCRUNTIME140.dll
 0000:fffd8000       .debug$S                   0000000180000000     vcruntime:VCRUNTIME140.dll
 0000:fffd8000       .debug$S                   0000000180000000     agentcore.exp
 0000:fffd8000       .debug$S                   0000000180000000     kernel32:KERNEL32.dll
 0000:fffd8000       .debug$S                   0000000180000000     kernel32:KERNEL32.dll
 0000:fffd8000       .debug$S                   0000000180000000     kernel32:KERNEL32.dll
 0000:fffd8000       .debug$S                   0000000180000000     kernel32:KERNEL32.dll
 0000:fffd8000       .debug$S                   0000000180000000     kernel32:KERNEL32.dll
 0000:fffd8000       .debug$S                   0000000180000000     kernel32:KERNEL32.dll
 0000:fffd8000       .debug$S                   0000000180000000     kernel32:KERNEL32.dll
 0000:fffd8000       .debug$S                   0000000180000000     kernel32:KERNEL32.dll
 0000:fffd8000       .debug$S                   0000000180000000     kernel32:KERNEL32.dll
 0000:fffd8000       .debug$S                   0000000180000000     kernel32:KERNEL32.dll
 0000:fffd8000       .debug$S                   0000000180000000     kernel32:KERNEL32.dll
 0000:fffd8000       .debug$S                   0000000180000000     kernel32:KERNEL32.dll
 0000:fffd8000       .debug$S                   0000000180000000     kernel32:KERNEL32.dll
 0000:fffd8000       .debug$S                   0000000180000000     kernel32:KERNEL32.dll
 0000:fffd8000       .debug$S                   0000000180000000     kernel32:KERNEL32.dll
 0000:fffd8000       .debug$S                   0000000180000000     kernel32:KERNEL32.dll
 0000:fffd8000       .debug$S                   0000000180000000     kernel32:KERNEL32.dll
 0000:fffd8000       .debug$S                   0000000180000000     kernel32:KERNEL32.dll
 0000:fffd8000       .debug$S                   0000000180000000     kernel32:KERNEL32.dll
 0000:fffd8000       .debug$S                   0000000180000000     ucrt:api-ms-win-crt-heap-l1-1-0.dll
 0000:fffd8000       .debug$S                   0000000180000000     kernel32:KERNEL32.dll
 0000:fffd8000       .debug$S                   0000000180000000     ucrt:api-ms-win-crt-runtime-l1-1-0.dll
 0000:fffd8000       .debug$S                   0000000180000000     kernel32:KERNEL32.dll
 0000:fffd8000       .debug$S                   0000000180000000     ucrt:api-ms-win-crt-runtime-l1-1-0.dll
 0000:fffd8000       .debug$S                   0000000180000000     kernel32:KERNEL32.dll
 0000:fffd8000       .debug$S                   0000000180000000     ucrt:api-ms-win-crt-runtime-l1-1-0.dll
 0000:fffd8000       .debug$S                   0000000180000000     ucrt:api-ms-win-crt-runtime-l1-1-0.dll
 0000:fffd8000       .debug$S                   0000000180000000     ucrt:api-ms-win-crt-runtime-l1-1-0.dll
 0000:fffd8000       .debug$S                   0000000180000000     ucrt:api-ms-win-crt-runtime-l1-1-0.dll
 0000:fffd8000       .debug$S                   0000000180000000     kernel32:KERNEL32.dll
 0000:fffd8000       .debug$S                   0000000180000000     ucrt:api-ms-win-crt-runtime-l1-1-0.dll
 0000:fffd8000       .debug$S                   0000000180000000     ucrt:api-ms-win-crt-runtime-l1-1-0.dll
 0000:fffd8000       .debug$S                   0000000180000000     ucrt:api-ms-win-crt-runtime-l1-1-0.dll
 0000:fffd8000       .debug$S                   0000000180000000     ucrt:api-ms-win-crt-runtime-l1-1-0.dll
 0000:fffd8000       .debug$S                   0000000180000000     kernel32:KERNEL32.dll
 0000:fffd8000       .debug$S                   0000000180000000     ucrt:api-ms-win-crt-runtime-l1-1-0.dll
 0000:fffd8000       .debug$S                   0000000180000000     ucrt:api-ms-win-crt-runtime-l1-1-0.dll
 0000:fffd8000       .debug$S                   0000000180000000     ucrt:api-ms-win-crt-heap-l1-1-0.dll
 0000:fffd8000       .debug$S                   0000000180000000     kernel32:KERNEL32.dll
 0000:fffd8000       .debug$S                   0000000180000000     ucrt:api-ms-win-crt-heap-l1-1-0.dll
 0000:fffd8000       .debug$S                   0000000180000000     ucrt:api-ms-win-crt-string-l1-1-0.dll
 0000:fffd8000       .debug$S                   0000000180000000     ucrt:api-ms-win-crt-stdio-l1-1-0.dll
 0000:fffd8000       .debug$S                   0000000180000000     ucrt:api-ms-win-crt-stdio-l1-1-0.dll
 0000:fffd8000       .debug$S                   0000000180000000     ucrt:api-ms-win-crt-stdio-l1-1-0.dll
 0000:fffd8000       .debug$S                   0000000180000000     ucrt:api-ms-win-crt-stdio-l1-1-0.dll
 0000:fffd8000       .debug$S                   0000000180000000     ucrt:api-ms-win-crt-string-l1-1-0.dll
 0000:fffd8000       .debug$S                   0000000180000000     ucrt:api-ms-win-crt-stdio-l1-1-0.dll
 0000:fffd8000       .debug$S                   0000000180000000     ucrt:api-ms-win-crt-stdio-l1-1-0.dll
 0000:fffd8000       .debug$S                   0000000180000000     ucrt:api-ms-win-crt-stdio-l1-1-0.dll
 0000:fffd8000       .debug$S                   0000000180000000     ucrt:api-ms-win-crt-stdio-l1-1-0.dll
 0000:fffd8000       .debug$S                   0000000180000000     ucrt:api-ms-win-crt-filesystem-l1-1-0.dll
 0000:fffd8000       .debug$S                   0000000180000000     kernel32:KERNEL32.dll
 0000:fffd8000       .debug$S                   0000000180000000     ucrt:api-ms-win-crt-filesystem-l1-1-0.dll
 0000:fffd8000       .debug$S                   0000000180000000     kernel32:KERNEL32.dll
 0000:fffd8000       .debug$S                   0000000180000000     ucrt:api-ms-win-crt-stdio-l1-1-0.dll
 0000:fffd8000       .debug$S                   0000000180000000     ucrt:api-ms-win-crt-stdio-l1-1-0.dll
 0000:fffd8000       .debug$S                   0000000180000000     ucrt:api-ms-win-crt-stdio-l1-1-0.dll
 0000:fffd8000       .debug$S                   0000000180000000     ucrt:api-ms-win-crt-stdio-l1-1-0.dll
 0000:fffd8000       .debug$S                   0000000180000000     kernel32:KERNEL32.dll
 0000:fffd8000       .debug$S                   0000000180000000     ucrt:api-ms-win-crt-runtime-l1-1-0.dll
 0000:fffd8000       .debug$S                   0000000180000000     kernel32:KERNEL32.dll
 0000:fffd8000       .debug$S                   0000000180000000     ucrt:api-ms-win-crt-runtime-l1-1-0.dll
 0000:fffd8000       .debug$S                   0000000180000000     ucrt:api-ms-win-crt-runtime-l1-1-0.dll
 0000:fffd8000       .debug$S                   0000000180000000     ucrt:api-ms-win-crt-runtime-l1-1-0.dll
 0000:fffd8000       .debug$S                   0000000180000000     ucrt:api-ms-win-crt-runtime-l1-1-0.dll
 0000:fffd8000       .debug$S                   0000000180000000     ucrt:api-ms-win-crt-time-l1-1-0.dll
 0000:fffd8000       .debug$S                   0000000180000000     ucrt:api-ms-win-crt-time-l1-1-0.dll
 0000:fffd8000       .debug$S                   0000000180000000     ucrt:api-ms-win-crt-stdio-l1-1-0.dll
 0000:fffd8000       .debug$S                   0000000180000000     ucrt:api-ms-win-crt-time-l1-1-0.dll
 0000:fffd8000       .debug$S                   0000000180000000     vcruntime:VCRUNTIME140.dll
 0000:fffd8000       .debug$S                   0000000180000000     vcruntime:VCRUNTIME140.dll
 0000:fffd8000       .debug$S                   0000000180000000     kernel32:KERNEL32.dll
 0000:fffd8000       .debug$S                   0000000180000000     vcruntime:VCRUNTIME140.dll
 0000:fffd8000       .debug$S                   0000000180000000     kernel32:KERNEL32.dll
 0000:fffd8000       .debug$S                   0000000180000000     vcruntime:VCRUNTIME140.dll
 0000:fffd8000       .debug$S                   0000000180000000     kernel32:KERNEL32.dll
 0000:fffd8000       .debug$S                   0000000180000000     vcruntime:VCRUNTIME140.dll
 0000:fffd8000       .debug$S                   0000000180000000     kernel32:KERNEL32.dll
 0000:fffd8000       .debug$S                   0000000180000000     vcruntime:VCRUNTIME140.dll
 0000:fffd8000       .debug$S                   0000000180000000     kernel32:KERNEL32.dll
 0000:fffd8000       .debug$S                   0000000180000000     vcruntime:VCRUNTIME140.dll
 0000:fffd8000       .debug$S                   0000000180000000     vcruntime:VCRUNTIME140.dll
 0000:fffd8000       .debug$S                   0000000180000000     vcruntime:VCRUNTIME140.dll
 0000:fffd8000       .debug$S                   0000000180000000     msvcprt:MSVCP140.dll
 0000:fffd8000       .debug$S                   0000000180000000     kernel32:KERNEL32.dll
 0000:fffd8000       .debug$S                   0000000180000000     msvcprt:MSVCP140.dll
 0000:fffd8000       .debug$S                   0000000180000000     kernel32:KERNEL32.dll
 0000:fffd8000       .debug$S                   0000000180000000     msvcprt:MSVCP140.dll
 0000:fffd8000       .debug$S                   0000000180000000     msvcprt:MSVCP140.dll
 0000:fffd8000       .debug$S                   0000000180000000     msvcprt:MSVCP140.dll
 0000:fffd8000       .debug$S                   0000000180000000     msvcprt:MSVCP140.dll
 0000:fffd8000       .debug$S                   0000000180000000     kernel32:KERNEL32.dll
 0000:fffd8000       .debug$S                   0000000180000000     msvcprt:MSVCP140.dll
 0000:fffd8000       .debug$S                   0000000180000000     kernel32:KERNEL32.dll
 0000:fffd8000       .debug$S                   0000000180000000     msvcprt:MSVCP140.dll
 0000:fffd8000       .debug$S                   0000000180000000     msvcprt:MSVCP140.dll
 0000:fffd8000       .debug$S                   0000000180000000     msvcprt:MSVCP140.dll
 0000:fffd8000       .debug$S                   0000000180000000     node:node.exe
 0000:fffd8000       .debug$S                   0000000180000000     msvcprt:MSVCP140.dll
 0000:fffd8000       .debug$S                   0000000180000000     node:node.exe
 0000:fffd8000       .debug$S                   0000000180000000     msvcprt:MSVCP140.dll
 0000:fffd8000       .debug$S                   0000000180000000     node:node.exe
 0000:fffd8000       .debug$S                   0000000180000000     msvcprt:MSVCP140.dll
 0000:fffd8000       .debug$S                   0000000180000000     node:node.exe
 0000:fffd8000       .debug$S                   0000000180000000     msvcprt:MSVCP140.dll
 0000:fffd8000       .debug$S                   0000000180000000     msvcprt:MSVCP140.dll
 0000:fffd8000       .debug$S                   0000000180000000     msvcprt:MSVCP140.dll
 0000:fffd8000       .debug$S                   0000000180000000     msvcprt:MSVCP140.dll
 0000:fffd8000       .debug$S                   0000000180000000     msvcprt:MSVCP140.dll
 0000:fffd8000       .debug$S                   0000000180000000     msvcprt:MSVCP140.dll
 0000:fffd8000       .debug$S                   0000000180000000     msvcprt:MSVCP140.dll
 0000:fffd8000       .debug$S                   0000000180000000     node:node.exe
 0000:fffd8000       .debug$S                   0000000180000000     msvcprt:MSVCP140.dll
 0000:fffd8000       .debug$S                   0000000180000000     msvcprt:MSVCP140.dll
 0000:fffd8000       .debug$S                   0000000180000000     msvcprt:MSVCP140.dll
 0000:fffd8000       .debug$S                   0000000180000000     msvcprt:MSVCP140.dll
 0000:fffd8000       .debug$S                   0000000180000000     node:node.exe
 0000:fffd8000       .debug$S                   0000000180000000     msvcprt:MSVCP140.dll
 0000:fffd8000       .debug$S                   0000000180000000     msvcprt:MSVCP140.dll
 0000:fffd8000       .debug$S                   0000000180000000     msvcprt:MSVCP140.dll
 0000:fffd8000       .debug$S                   0000000180000000     msvcprt:MSVCP140.dll
 0000:fffd8000       .debug$S                   0000000180000000     msvcprt:MSVCP140.dll
 0000:fffd8000       .debug$S                   0000000180000000     msvcprt:MSVCP140.dll
 0000:fffd8000       .debug$S                   0000000180000000     node:node.exe
 0000:fffd8000       .debug$S                   0000000180000000     msvcprt:MSVCP140.dll
 0000:fffd8000       .debug$S                   0000000180000000     node:node.exe
 0000:fffd8000       .debug$S                   0000000180000000     msvcprt:MSVCP140.dll
 0000:fffd8000       .debug$S                   0000000180000000     node:node.exe
 0000:fffd8000       .debug$S                   0000000180000000     msvcprt:MSVCP140.dll
 0000:fffd8000       .debug$S                   0000000180000000     msvcprt:MSVCP140.dll
 0000:fffd8000       .debug$S                   0000000180000000     msvcprt:MSVCP140.dll
 0000:fffd8000       .debug$S                   0000000180000000     msvcprt:MSVCP140.dll
 0000:fffd8000       .debug$S                   0000000180000000     msvcprt:MSVCP140.dll
 0000:fffd8000       .debug$S                   0000000180000000     msvcprt:MSVCP140.dll
 0000:fffd8000       .debug$S                   0000000180000000     msvcprt:MSVCP140.dll
 0000:fffd8000       .debug$S                   0000000180000000     msvcprt:MSVCP140.dll
 0000:fffd8000       .debug$S                   0000000180000000     msvcprt:MSVCP140.dll
 0000:fffd8000       .debug$S                   0000000180000000     msvcprt:MSVCP140.dll
 0000:fffd8000       .debug$S                   0000000180000000     msvcprt:MSVCP140.dll
 0000:fffd8000       .debug$S                   0000000180000000     msvcprt:MSVCP140.dll
 0000:fffd8000       .debug$S                   0000000180000000     msvcprt:MSVCP140.dll
 0000:fffd8000       .debug$S                   0000000180000000     msvcprt:MSVCP140.dll
 0000:fffd8000       .debug$S                   0000000180000000     msvcprt:MSVCP140.dll
 0000:fffd8000       .debug$S                   0000000180000000     msvcprt:MSVCP140.dll
 0000:fffd8000       .debug$S                   0000000180000000     msvcprt:MSVCP140.dll
 0000:fffd8000       .debug$S                   0000000180000000     msvcprt:MSVCP140.dll
 0000:fffd8000       .debug$S                   0000000180000000     msvcprt:MSVCP140.dll
 0000:fffd8000       .debug$S                   0000000180000000     msvcprt:MSVCP140.dll
 0000:fffd8000       .debug$S                   0000000180000000     msvcprt:MSVCP140.dll
 0000:fffd8000       .debug$S                   0000000180000000     msvcprt:MSVCP140.dll
 0000:fffd8000       .debug$S                   0000000180000000     msvcprt:MSVCP140.dll
 0000:fffd8000       .debug$S                   0000000180000000     msvcprt:MSVCP140.dll
 0000:fffd8000       .debug$S                   0000000180000000     msvcprt:MSVCP140.dll
 0000:fffd8000       .debug$S                   0000000180000000     msvcprt:MSVCP140.dll
 0000:fffd8000       .debug$S                   0000000180000000     msvcprt:MSVCP140.dll
 0000:fffd8000       .debug$S                   0000000180000000     msvcprt:MSVCP140.dll
 0000:fffd8000       .debug$S                   0000000180000000     msvcprt:MSVCP140.dll
 0000:fffd8000       .debug$S                   0000000180000000     msvcprt:MSVCP140.dll
 0001:00000000       ??__Elogger@common@ibmras@@YAXXZ 0000000180001000 f   MemoryManager.obj
 0001:00000020       ??__Elogger@util@common@ibmras@@YAXXZ 0000000180001020 f   FileUtils.obj
 0001:00000030       ??__Elogger@port@common@ibmras@@YAXXZ 0000000180001030 f   Thread.obj
 0001:00000050       ??__Elogger@locking@port@common@ibmras@@YAXXZ 0000000180001050 f   Lock.obj
 0001:00000070       ??__Epluginlogger@agent@monitoring@ibmras@@YAXXZ 0000000180001070 f   Agent.obj
 0001:00000090       ??__Ecorelogger@agent@monitoring@ibmras@@YAXXZ 0000000180001090 f   Agent.obj
 0001:000000b0       ??__Einstance@agent@monitoring@ibmras@@YAXXZ 00000001800010b0 f   Agent.obj
 0001:000000f0       ??__Elogger@agent@monitoring@ibmras@@YAXXZ 00000001800010f0 f   Agent.obj
 0001:00000110       ??__Elogger@threads@agent@monitoring@ibmras@@YAXXZ 0000000180001110 f   ThreadPool.obj
 0001:00000130       ??__Elogger@bucket@agent@monitoring@ibmras@@YAXXZ 0000000180001130 f   Bucket.obj
 0001:00000150       ??__Elogger@monitoring@ibmras@@YAXXZ 0000000180001150 f   Plugin.obj
 0001:00000170       ??__ECONFIGURATION_TOPIC@connector@monitoring@ibmras@@YAXXZ 0000000180001170 f   ConfigurationConnector.obj
 0001:000001a0       ??__E_Fac_tidy_reg@std@@YAXXZ 00000001800011a0 f   msvcprt:locale0_implib.obj
 0001:00013530       $$000000                   0000000180014530     MSVCRT:amdsecgs.obj
 0001:00013a6c       ?dllmain_crt_dispatch@@YAHQEAUHINSTANCE__@@KQEAX@Z 0000000180014a6c f   MSVCRT:dll_dllmain.obj
 0001:00013abc       ?dllmain_crt_process_attach@@YAHQEAUHINSTANCE__@@QEAX@Z 0000000180014abc f   MSVCRT:dll_dllmain.obj
 0001:00013bd8       ?dllmain_crt_process_detach@@YAH_N@Z 0000000180014bd8 f   MSVCRT:dll_dllmain.obj
 0001:00013c68       ?dllmain_dispatch@@YAHQEAUHINSTANCE__@@KQEAX@Z 0000000180014c68 f   MSVCRT:dll_dllmain.obj
 0001:00013ee4       capture_previous_context   0000000180014ee4 f   MSVCRT:gs_report.obj
 0001:000147c0       $$000000                   00000001800157c0     MSVCRT:guard_dispatch.obj
 0001:000147e0       ?dtor$0@?0??logDebug@Logger@common@ibmras@@QEAAXW4loggingLevel@@PEBDZZ@4HA 00000001800157e0 f   Logger.obj
 0001:000147e0       ?dtor$0@?0??log@Logger@common@ibmras@@QEAAXW4loggingLevel@@PEBDZZ@4HA 00000001800157e0 f   Logger.obj
 0001:000147ec       ?dtor$4@?0??logDebug@Logger@common@ibmras@@QEAAXW4loggingLevel@@PEBDZZ@4HA 00000001800157ec f   Logger.obj
 0001:000147ec       ?dtor$4@?0??log@Logger@common@ibmras@@QEAAXW4loggingLevel@@PEBDZZ@4HA 00000001800157ec f   Logger.obj
 0001:00014815       ?dtor$1@?0??logDebug@Logger@common@ibmras@@QEAAXW4loggingLevel@@PEBDZZ@4HA 0000000180015815 f   Logger.obj
 0001:00014815       ?dtor$1@?0??log@Logger@common@ibmras@@QEAAXW4loggingLevel@@PEBDZZ@4HA 0000000180015815 f   Logger.obj
 0001:00014821       ?dtor$2@?0??logDebug@Logger@common@ibmras@@QEAAXW4loggingLevel@@PEBDZZ@4HA 0000000180015821 f   Logger.obj
 0001:00014821       ?dtor$2@?0??log@Logger@common@ibmras@@QEAAXW4loggingLevel@@PEBDZZ@4HA 0000000180015821 f   Logger.obj
 0001:00014830       ?dtor$0@?0???0?$basic_stringstream@DU?$char_traits@D@std@@V?$allocator@D@2@@std@@QEAA@H@Z@4HA 0000000180015830 f   Logger.obj
 0001:0001485e       ?dtor$1@?0???0?$basic_stringstream@DU?$char_traits@D@std@@V?$allocator@D@2@@std@@QEAA@H@Z@4HA 000000018001585e f   Logger.obj
 0001:00014870       ?dtor$1@?0???$_Insert_string@DU?$char_traits@D@std@@_K@std@@YAAEAV?$basic_ostream@DU?$char_traits@D@std@@@0@AEAV10@QEBD_K@Z@4HA 0000000180015870 f   Logger.obj
 0001:00014870       ?dtor$1@?0???$?6U?$char_traits@D@std@@@std@@YAAEAV?$basic_ostream@DU?$char_traits@D@std@@@0@AEAV10@PEBD@Z@4HA 0000000180015870 f   Logger.obj
 0001:00014870       ?dtor$1@?0???$?6U?$char_traits@D@std@@@std@@YAAEAV?$basic_ostream@DU?$char_traits@D@std@@@0@AEAV10@D@Z@4HA 0000000180015870 f   Logger.obj
 0001:0001487c       ?dtor$0@?0???$?6U?$char_traits@D@std@@@std@@YAAEAV?$basic_ostream@DU?$char_traits@D@std@@@0@AEAV10@PEBD@Z@4HA 000000018001587c f   Logger.obj
 0001:0001487c       ?dtor$0@?0???$?6U?$char_traits@D@std@@@std@@YAAEAV?$basic_ostream@DU?$char_traits@D@std@@@0@AEAV10@D@Z@4HA 000000018001587c f   Logger.obj
 0001:0001487c       ?dtor$0@?0???$_Insert_string@DU?$char_traits@D@std@@_K@std@@YAAEAV?$basic_ostream@DU?$char_traits@D@std@@@0@AEAV10@QEBD_K@Z@4HA 000000018001587c f   Logger.obj
 0001:00014890       ?dtor$1@?0??getInstance@LogManager@common@ibmras@@SAPEAV123@XZ@4HA 0000000180015890 f   LogManager.obj
 0001:000148b0       ?dtor$0@?0??getLogger@LogManager@common@ibmras@@SAPEAVLogger@23@AEBV?$basic_string@DU?$char_traits@D@std@@V?$allocator@D@2@@std@@@Z@4HA 00000001800158b0 f   LogManager.obj
 0001:000148d0       ?dtor$2@?0???0Properties@common@ibmras@@QEAA@AEBV012@@Z@4HA 00000001800158d0 f   Properties.obj
 0001:000148e0       ?dtor$0@?0??getKeys@Properties@common@ibmras@@UEAA?AV?$list@V?$basic_string@DU?$char_traits@D@std@@V?$allocator@D@2@@std@@V?$allocator@V?$basic_string@DU?$char_traits@D@std@@V?$allocator@D@2@@std@@@2@@std@@AEBV?$basic_string@DU?$char_traits@D@std@@V?$allocator@D@2@@5@@Z@4HA 00000001800158e0 f   Properties.obj
 0001:00014910       ?dtor$2@?0??add@Properties@common@ibmras@@UEAAXAEBV?$basic_string@DU?$char_traits@D@std@@V?$allocator@D@2@@std@@@Z@4HA 0000000180015910 f   Properties.obj
 0001:0001493c       ?dtor$3@?0??add@Properties@common@ibmras@@UEAAXAEBV?$basic_string@DU?$char_traits@D@std@@V?$allocator@D@2@@std@@@Z@4HA 000000018001593c f   Properties.obj
 0001:00014970       ?dtor$0@?0??toString@Properties@common@ibmras@@UEAA?AV?$basic_string@DU?$char_traits@D@std@@V?$allocator@D@2@@std@@XZ@4HA 0000000180015970 f   Properties.obj
 0001:0001497c       ?dtor$3@?0??toString@Properties@common@ibmras@@UEAA?AV?$basic_string@DU?$char_traits@D@std@@V?$allocator@D@2@@std@@XZ@4HA 000000018001597c f   Properties.obj
 0001:000149b0       ?dtor$0@?0???$_Copy_nodes@U_Copy_tag@?$_Tree@V?$_Tmap_traits@V?$basic_string@DU?$char_traits@D@std@@V?$allocator@D@2@@std@@V12@U?$less@V?$basic_string@DU?$char_traits@D@std@@V?$allocator@D@2@@std@@@2@V?$allocator@U?$pair@$$CBV?$basic_string@DU?$char_traits@D@std@@V?$allocator@D@2@@std@@V12@@std@@@2@$0A@@std@@@std@@@?$_Tree@V?$_Tmap_traits@V?$basic_string@DU?$char_traits@D@std@@V?$allocator@D@2@@std@@V12@U?$less@V?$basic_string@DU?$char_traits@D@std@@V?$allocator@D@2@@std@@@2@V?$allocator@U?$pair@$$CBV?$basic_string@DU?$char_traits@D@std@@V?$allocator@D@2@@std@@V12@@std@@@2@$0A@@std@@@std@@IEAAPEAU?$_Tree_node@U?$pair@$$CBV?$basic_string@DU?$char_traits@D@std@@V?$allocator@D@2@@std@@V12@@std@@PEAX@1@PEAU21@0U_Copy_tag@01@@Z@4HA 00000001800159b0 f   Properties.obj
 0001:000149c0       ?dtor$0@?0??load@PropertiesFile@common@ibmras@@QEAAHAEBV?$basic_string@DU?$char_traits@D@std@@V?$allocator@D@2@@std@@@Z@4HA 00000001800159c0 f   PropertiesFile.obj
 0001:000149cc       ?dtor$1@?0??load@PropertiesFile@common@ibmras@@QEAAHAEBV?$basic_string@DU?$char_traits@D@std@@V?$allocator@D@2@@std@@@Z@4HA 00000001800159cc f   PropertiesFile.obj
 0001:000149d8       ?dtor$2@?0??load@PropertiesFile@common@ibmras@@QEAAHAEBV?$basic_string@DU?$char_traits@D@std@@V?$allocator@D@2@@std@@@Z@4HA 00000001800159d8 f   PropertiesFile.obj
 0001:000149e4       ?dtor$3@?0??load@PropertiesFile@common@ibmras@@QEAAHAEBV?$basic_string@DU?$char_traits@D@std@@V?$allocator@D@2@@std@@@Z@4HA 00000001800159e4 f   PropertiesFile.obj
 0001:000149f0       ?dtor$0@?0???0?$basic_ifstream@DU?$char_traits@D@std@@@std@@QEAA@PEBDHH@Z@4HA 00000001800159f0 f   PropertiesFile.obj
 0001:00014a24       ?dtor$1@?0???0?$basic_ifstream@DU?$char_traits@D@std@@@std@@QEAA@PEBDHH@Z@4HA 0000000180015a24 f   PropertiesFile.obj
 0001:00014a36       ?dtor$3@?0???0?$basic_ifstream@DU?$char_traits@D@std@@@std@@QEAA@PEBDHH@Z@4HA 0000000180015a36 f   PropertiesFile.obj
 0001:00014a44       ?dtor$2@?0???0?$basic_ifstream@DU?$char_traits@D@std@@@std@@QEAA@PEBDHH@Z@4HA 0000000180015a44 f   PropertiesFile.obj
 0001:00014a54       ?dtor$4@?0???0?$basic_ifstream@DU?$char_traits@D@std@@@std@@QEAA@PEBDHH@Z@4HA 0000000180015a54 f   PropertiesFile.obj
 0001:00014a60       ?dtor$0@?0??uflow@?$basic_filebuf@DU?$char_traits@D@std@@@std@@MEAAHXZ@4HA 0000000180015a60 f   PropertiesFile.obj
 0001:00014a70       ?dtor$0@?0???$use_facet@V?$codecvt@DDU_Mbstatet@@@std@@@std@@YAAEBV?$codecvt@DDU_Mbstatet@@@0@AEBVlocale@0@@Z@4HA 0000000180015a70 f   PropertiesFile.obj
 0001:00014a7e       ?dtor$1@?0???$use_facet@V?$codecvt@DDU_Mbstatet@@@std@@@std@@YAAEBV?$codecvt@DDU_Mbstatet@@@0@AEBVlocale@0@@Z@4HA 0000000180015a7e f   PropertiesFile.obj
 0001:00014a90       ?dtor$1@?0???$getline@DU?$char_traits@D@std@@V?$allocator@D@2@@std@@YAAEAV?$basic_istream@DU?$char_traits@D@std@@@0@$$QEAV10@AEAV?$basic_string@DU?$char_traits@D@std@@V?$allocator@D@2@@0@D@Z@4HA 0000000180015a90 f   PropertiesFile.obj
 0001:00014a9c       ?dtor$0@?0???$getline@DU?$char_traits@D@std@@V?$allocator@D@2@@std@@YAAEAV?$basic_istream@DU?$char_traits@D@std@@@0@$$QEAV10@AEAV?$basic_string@DU?$char_traits@D@std@@V?$allocator@D@2@@0@D@Z@4HA 0000000180015a9c f   PropertiesFile.obj
 0001:00014ab0       ?dtor$2@?0??split@util@common@ibmras@@YAAEAV?$vector@V?$basic_string@DU?$char_traits@D@std@@V?$allocator@D@2@@std@@V?$allocator@V?$basic_string@DU?$char_traits@D@std@@V?$allocator@D@2@@std@@@2@@std@@AEBV?$basic_string@DU?$char_traits@D@std@@V?$allocator@D@2@@5@DAEAV45@@Z@4HA 0000000180015ab0 f   strUtils.obj
 0001:00014ade       ?dtor$3@?0??split@util@common@ibmras@@YAAEAV?$vector@V?$basic_string@DU?$char_traits@D@std@@V?$allocator@D@2@@std@@V?$allocator@V?$basic_string@DU?$char_traits@D@std@@V?$allocator@D@2@@std@@@2@@std@@AEBV?$basic_string@DU?$char_traits@D@std@@V?$allocator@D@2@@5@DAEAV45@@Z@4HA 0000000180015ade f   strUtils.obj
 0001:00014af0       ?dtor$5@?0??split@util@common@ibmras@@YAAEAV?$vector@V?$basic_string@DU?$char_traits@D@std@@V?$allocator@D@2@@std@@V?$allocator@V?$basic_string@DU?$char_traits@D@std@@V?$allocator@D@2@@std@@@2@@std@@AEBV?$basic_string@DU?$char_traits@D@std@@V?$allocator@D@2@@5@DAEAV45@@Z@4HA 0000000180015af0 f   strUtils.obj
 0001:00014afe       ?dtor$0@?0??split@util@common@ibmras@@YAAEAV?$vector@V?$basic_string@DU?$char_traits@D@std@@V?$allocator@D@2@@std@@V?$allocator@V?$basic_string@DU?$char_traits@D@std@@V?$allocator@D@2@@std@@@2@@std@@AEBV?$basic_string@DU?$char_traits@D@std@@V?$allocator@D@2@@5@DAEAV45@@Z@4HA 0000000180015afe f   strUtils.obj
 0001:00014b0a       ?dtor$1@?0??split@util@common@ibmras@@YAAEAV?$vector@V?$basic_string@DU?$char_traits@D@std@@V?$allocator@D@2@@std@@V?$allocator@V?$basic_string@DU?$char_traits@D@std@@V?$allocator@D@2@@std@@@2@@std@@AEBV?$basic_string@DU?$char_traits@D@std@@V?$allocator@D@2@@5@DAEAV45@@Z@4HA 0000000180015b0a f   strUtils.obj
 0001:00014b20       ?dtor$0@?0???0ConnectorManager@connector@monitoring@ibmras@@QEAA@AEBV0123@@Z@4HA 0000000180015b20 f   Agent.obj
 0001:00014b2c       ?dtor$1@?0???0ConnectorManager@connector@monitoring@ibmras@@QEAA@AEBV0123@@Z@4HA 0000000180015b2c f   Agent.obj
 0001:00014b3c       ?dtor$8@?0???0ConnectorManager@connector@monitoring@ibmras@@QEAA@AEBV0123@@Z@4HA 0000000180015b3c f   Agent.obj
 0001:00014b48       ?dtor$13@?0???0ConnectorManager@connector@monitoring@ibmras@@QEAA@AEBV0123@@Z@4HA 0000000180015b48 f   Agent.obj
 0001:00014b58       ?dtor$2@?0???0ConnectorManager@connector@monitoring@ibmras@@QEAA@AEBV0123@@Z@4HA 0000000180015b58 f   Agent.obj
 0001:00014b68       ?dtor$3@?0???0ConnectorManager@connector@monitoring@ibmras@@QEAA@AEBV0123@@Z@4HA 0000000180015b68 f   Agent.obj
 0001:00014b78       ?dtor$4@?0???0ConnectorManager@connector@monitoring@ibmras@@QEAA@AEBV0123@@Z@4HA 0000000180015b78 f   Agent.obj
 0001:00014b88       ?dtor$18@?0???0ConnectorManager@connector@monitoring@ibmras@@QEAA@AEBV0123@@Z@4HA 0000000180015b88 f   Agent.obj
 0001:00014b94       ?dtor$5@?0???0ConnectorManager@connector@monitoring@ibmras@@QEAA@AEBV0123@@Z@4HA 0000000180015b94 f   Agent.obj
 0001:00014ba4       ?dtor$20@?0???0ConnectorManager@connector@monitoring@ibmras@@QEAA@AEBV0123@@Z@4HA 0000000180015ba4 f   Agent.obj
 0001:00014bb0       ?dtor$0@?0???0ConfigurationConnector@connector@monitoring@ibmras@@QEAA@AEBV0123@@Z@4HA 0000000180015bb0 f   Agent.obj
 0001:00014bc0       ?dtor$0@?0???0Agent@agent@monitoring@ibmras@@QEAA@AEBV0123@@Z@4HA 0000000180015bc0 f   Agent.obj
 0001:00014bcc       ?dtor$1@?0???0Agent@agent@monitoring@ibmras@@QEAA@AEBV0123@@Z@4HA 0000000180015bcc f   Agent.obj
 0001:00014bdc       ?dtor$2@?0???0Agent@agent@monitoring@ibmras@@QEAA@AEBV0123@@Z@4HA 0000000180015bdc f   Agent.obj
 0001:00014bef       ?dtor$3@?0???0Agent@agent@monitoring@ibmras@@QEAA@AEBV0123@@Z@4HA 0000000180015bef f   Agent.obj
 0001:00014c02       ?dtor$6@?0???0Agent@agent@monitoring@ibmras@@QEAA@AEBV0123@@Z@4HA 0000000180015c02 f   Agent.obj
 0001:00014c10       ?dtor$0@?0???0Agent@agent@monitoring@ibmras@@QEAA@$$QEAV0123@@Z@4HA 0000000180015c10 f   Agent.obj
 0001:00014c1c       ?dtor$1@?0???0Agent@agent@monitoring@ibmras@@QEAA@$$QEAV0123@@Z@4HA 0000000180015c1c f   Agent.obj
 0001:00014c2c       ?dtor$2@?0???0Agent@agent@monitoring@ibmras@@QEAA@$$QEAV0123@@Z@4HA 0000000180015c2c f   Agent.obj
 0001:00014c3f       ?dtor$3@?0???0Agent@agent@monitoring@ibmras@@QEAA@$$QEAV0123@@Z@4HA 0000000180015c3f f   Agent.obj
 0001:00014c52       ?dtor$6@?0???0Agent@agent@monitoring@ibmras@@QEAA@$$QEAV0123@@Z@4HA 0000000180015c52 f   Agent.obj
 0001:00014c60       ?dtor$0@?0???__Einstance@agent@monitoring@ibmras@@YAXXZ@4HA 0000000180015c60 f   Agent.obj
 0001:00014c80       ?dtor$0@?0???0Agent@agent@monitoring@ibmras@@QEAA@XZ@4HA 0000000180015c80 f   Agent.obj
 0001:00014c8c       ?dtor$1@?0???0Agent@agent@monitoring@ibmras@@QEAA@XZ@4HA 0000000180015c8c f   Agent.obj
 0001:00014c9c       ?dtor$2@?0???0Agent@agent@monitoring@ibmras@@QEAA@XZ@4HA 0000000180015c9c f   Agent.obj
 0001:00014caf       ?dtor$3@?0???0Agent@agent@monitoring@ibmras@@QEAA@XZ@4HA 0000000180015caf f   Agent.obj
 0001:00014cd0       ?dtor$0@?0??setLogLevels@Agent@agent@monitoring@ibmras@@QEAAXXZ@4HA 0000000180015cd0 f   Agent.obj
 0001:00014cdc       ?dtor$1@?0??setLogLevels@Agent@agent@monitoring@ibmras@@QEAAXXZ@4HA 0000000180015cdc f   Agent.obj
 0001:00014ce8       ?dtor$2@?0??setLogLevels@Agent@agent@monitoring@ibmras@@QEAAXXZ@4HA 0000000180015ce8 f   Agent.obj
 0001:00014cf4       ?dtor$3@?0??setLogLevels@Agent@agent@monitoring@ibmras@@QEAAXXZ@4HA 0000000180015cf4 f   Agent.obj
 0001:00014d00       ?dtor$4@?0??setLogLevels@Agent@agent@monitoring@ibmras@@QEAAXXZ@4HA 0000000180015d00 f   Agent.obj
 0001:00014d10       ?dtor$0@?0??getPushSource@Agent@agent@monitoring@ibmras@@QEAAPEAV?$DataSource@Upushsource@@@234@V?$basic_string@DU?$char_traits@D@std@@V?$allocator@D@2@@std@@@Z@4HA 0000000180015d10 f   Agent.obj
 0001:00014d10       ?dtor$0@?0??getPullSource@Agent@agent@monitoring@ibmras@@QEAAPEAV?$DataSource@Upullsource@@@234@V?$basic_string@DU?$char_traits@D@std@@V?$allocator@D@2@@std@@@Z@4HA 0000000180015d10 f   Agent.obj
 0001:00014d20       ?dtor$0@?0??processPublishLoop@agent@monitoring@ibmras@@YAPEAXPEAVThreadData@port@common@3@@Z@4HA 0000000180015d20 f   Agent.obj
 0001:00014d2c       ?dtor$1@?0??processPublishLoop@agent@monitoring@ibmras@@YAPEAXPEAVThreadData@port@common@3@@Z@4HA 0000000180015d2c f   Agent.obj
 0001:00014d38       ?dtor$2@?0??processPublishLoop@agent@monitoring@ibmras@@YAPEAXPEAVThreadData@port@common@3@@Z@4HA 0000000180015d38 f   Agent.obj
 0001:00014d50       ?dtor$0@?0??processPullSourceLoop@agent@monitoring@ibmras@@YAPEAXPEAVThreadData@port@common@3@@Z@4HA 0000000180015d50 f   Agent.obj
 0001:00014d5c       ?dtor$1@?0??processPullSourceLoop@agent@monitoring@ibmras@@YAPEAXPEAVThreadData@port@common@3@@Z@4HA 0000000180015d5c f   Agent.obj
 0001:00014d68       ?dtor$7@?0??processPullSourceLoop@agent@monitoring@ibmras@@YAPEAXPEAVThreadData@port@common@3@@Z@4HA 0000000180015d68 f   Agent.obj
 0001:00014d90       ?dtor$1@?0??addPushSource@Agent@agent@monitoring@ibmras@@AEAAXV?$_Vector_iterator@V?$_Vector_val@U?$_Simple_types@PEAVPlugin@monitoring@ibmras@@@std@@@std@@@std@@I@Z@4HA 0000000180015d90 f   Agent.obj
 0001:00014d90       ?dtor$0@?0??getProperty@Agent@agent@monitoring@ibmras@@QEAA?AV?$basic_string@DU?$char_traits@D@std@@V?$allocator@D@2@@std@@AEBV56@@Z@4HA 0000000180015d90 f   Agent.obj
 0001:00014d90       ?dtor$1@?0??addPullSource@Agent@agent@monitoring@ibmras@@AEAAXV?$_Vector_iterator@V?$_Vector_val@U?$_Simple_types@PEAVPlugin@monitoring@ibmras@@@std@@@std@@@std@@I@Z@4HA 0000000180015d90 f   Agent.obj
 0001:00014da0       ?dtor$0@?0??addPlugin@Agent@agent@monitoring@ibmras@@QEAAXAEBV?$basic_string@DU?$char_traits@D@std@@V?$allocator@D@2@@std@@V56@@Z@4HA 0000000180015da0 f   Agent.obj
 0001:00014dac       ?dtor$5@?0??addPlugin@Agent@agent@monitoring@ibmras@@QEAAXAEBV?$basic_string@DU?$char_traits@D@std@@V?$allocator@D@2@@std@@V56@@Z@4HA 0000000180015dac f   Agent.obj
 0001:00014dd2       ?dtor$2@?0??addPlugin@Agent@agent@monitoring@ibmras@@QEAAXAEBV?$basic_string@DU?$char_traits@D@std@@V?$allocator@D@2@@std@@V56@@Z@4HA 0000000180015dd2 f   Agent.obj
 0001:00014dde       ?dtor$3@?0??addPlugin@Agent@agent@monitoring@ibmras@@QEAAXAEBV?$basic_string@DU?$char_traits@D@std@@V?$allocator@D@2@@std@@V56@@Z@4HA 0000000180015dde f   Agent.obj
 0001:00014dea       ?dtor$4@?0??addPlugin@Agent@agent@monitoring@ibmras@@QEAAXAEBV?$basic_string@DU?$char_traits@D@std@@V?$allocator@D@2@@std@@V56@@Z@4HA 0000000180015dea f   Agent.obj
 0001:00014e00       ?dtor$0@?0??addPlugin@Agent@agent@monitoring@ibmras@@QEAAXPEBD@Z@4HA 0000000180015e00 f   Agent.obj
 0001:00014e10       ?dtor$0@?0??addSystemPlugins@Agent@agent@monitoring@ibmras@@AEAAXXZ@4HA 0000000180015e10 f   Agent.obj
 0001:00014e30       ?dtor$0@?0??init@Agent@agent@monitoring@ibmras@@QEAAXXZ@4HA 0000000180015e30 f   Agent.obj
 0001:00014e3c       ?dtor$1@?0??init@Agent@agent@monitoring@ibmras@@QEAAXXZ@4HA 0000000180015e3c f   Agent.obj
 0001:00014e48       ?dtor$2@?0??init@Agent@agent@monitoring@ibmras@@QEAAXXZ@4HA 0000000180015e48 f   Agent.obj
 0001:00014e54       ?dtor$11@?0??init@Agent@agent@monitoring@ibmras@@QEAAXXZ@4HA 0000000180015e54 f   Agent.obj
 0001:00014e71       ?dtor$3@?0??init@Agent@agent@monitoring@ibmras@@QEAAXXZ@4HA 0000000180015e71 f   Agent.obj
 0001:00014e7d       ?dtor$4@?0??init@Agent@agent@monitoring@ibmras@@QEAAXXZ@4HA 0000000180015e7d f   Agent.obj
 0001:00014e89       ?dtor$5@?0??init@Agent@agent@monitoring@ibmras@@QEAAXXZ@4HA 0000000180015e89 f   Agent.obj
 0001:00014e95       ?dtor$6@?0??init@Agent@agent@monitoring@ibmras@@QEAAXXZ@4HA 0000000180015e95 f   Agent.obj
 0001:00014eb0       ?dtor$0@?0??shutdown@Agent@agent@monitoring@ibmras@@QEAAXXZ@4HA 0000000180015eb0 f   Agent.obj
 0001:00014eb0       ?dtor$0@?0??readOnly@Agent@agent@monitoring@ibmras@@QEAA_NXZ@4HA 0000000180015eb0 f   Agent.obj
 0001:00014ec0       ?dtor$0@?0??startConnectors@Agent@agent@monitoring@ibmras@@AEAAXXZ@4HA 0000000180015ec0 f   Agent.obj
 0001:00014ed0       ?dtor$0@?0??getAgentProperty@Agent@agent@monitoring@ibmras@@QEAA?AV?$basic_string@DU?$char_traits@D@std@@V?$allocator@D@2@@std@@AEBV56@@Z@4HA 0000000180015ed0 f   Agent.obj
 0001:00014edc       ?dtor$1@?0??getAgentProperty@Agent@agent@monitoring@ibmras@@QEAA?AV?$basic_string@DU?$char_traits@D@std@@V?$allocator@D@2@@std@@AEBV56@@Z@4HA 0000000180015edc f   Agent.obj
 0001:00014ef0       ?dtor$0@?0??sendMessage@ConfigurationConnector@connector@monitoring@ibmras@@UEAAHAEBV?$basic_string@DU?$char_traits@D@std@@V?$allocator@D@2@@std@@IPEAX@Z@4HA 0000000180015ef0 f   ConfigurationConnector.obj
 0001:00014ef0       ?dtor$0@?0??setAgentProperty@Agent@agent@monitoring@ibmras@@QEAAXAEBV?$basic_string@DU?$char_traits@D@std@@V?$allocator@D@2@@std@@0@Z@4HA 0000000180015ef0 f   Agent.obj
 0001:00014ef0       ?dtor$0@?0??agentPropertyExists@Agent@agent@monitoring@ibmras@@QEAA_NAEBV?$basic_string@DU?$char_traits@D@std@@V?$allocator@D@2@@std@@@Z@4HA 0000000180015ef0 f   Agent.obj
 0001:00014efc       ?dtor$1@?0??agentPropertyExists@Agent@agent@monitoring@ibmras@@QEAA_NAEBV?$basic_string@DU?$char_traits@D@std@@V?$allocator@D@2@@std@@@Z@4HA 0000000180015efc f   Agent.obj
 0001:00014efc       ?dtor$1@?0??setAgentProperty@Agent@agent@monitoring@ibmras@@QEAAXAEBV?$basic_string@DU?$char_traits@D@std@@V?$allocator@D@2@@std@@0@Z@4HA 0000000180015efc f   Agent.obj
 0001:00014efc       ?dtor$1@?0??sendMessage@ConfigurationConnector@connector@monitoring@ibmras@@UEAAHAEBV?$basic_string@DU?$char_traits@D@std@@V?$allocator@D@2@@std@@IPEAX@Z@4HA 0000000180015efc f   ConfigurationConnector.obj
 0001:00014f10       ?dtor$0@?0??setHeadlessRunning@Agent@agent@monitoring@ibmras@@QEAAX_N@Z@4HA 0000000180015f10 f   Agent.obj
 0001:00014f1c       ?dtor$1@?0??setHeadlessRunning@Agent@agent@monitoring@ibmras@@QEAAX_N@Z@4HA 0000000180015f1c f   Agent.obj
 0001:00014f28       ?dtor$3@?0??setHeadlessRunning@Agent@agent@monitoring@ibmras@@QEAAX_N@Z@4HA 0000000180015f28 f   Agent.obj
 0001:00014f34       ?dtor$4@?0??setHeadlessRunning@Agent@agent@monitoring@ibmras@@QEAAX_N@Z@4HA 0000000180015f34 f   Agent.obj
 0001:00014f40       ?dtor$5@?0??setHeadlessRunning@Agent@agent@monitoring@ibmras@@QEAAX_N@Z@4HA 0000000180015f40 f   Agent.obj
 0001:00014f4c       ?dtor$6@?0??setHeadlessRunning@Agent@agent@monitoring@ibmras@@QEAAX_N@Z@4HA 0000000180015f4c f   Agent.obj
 0001:00014f60       ?dtor$0@?0??loadPropertiesFile@Agent@agent@monitoring@ibmras@@QEAA_NPEBD@Z@4HA 0000000180015f60 f   Agent.obj
 0001:00014f6c       ?dtor$1@?0??loadPropertiesFile@Agent@agent@monitoring@ibmras@@QEAA_NPEBD@Z@4HA 0000000180015f6c f   Agent.obj
 0001:00014f80       ?dtor$0@?0??add@?$DataSourceList@Upushsource@@@agent@monitoring@ibmras@@QEAAXIPEAUpushsource@@V?$basic_string@DU?$char_traits@D@std@@V?$allocator@D@2@@std@@@Z@4HA 0000000180015f80 f   Agent.obj
 0001:00014f80       ?dtor$0@?0??add@?$DataSourceList@Upullsource@@@agent@monitoring@ibmras@@QEAAXIPEAUpullsource@@V?$basic_string@DU?$char_traits@D@std@@V?$allocator@D@2@@std@@@Z@4HA 0000000180015f80 f   Agent.obj
 0001:00014f8c       ?dtor$1@?0??add@?$DataSourceList@Upushsource@@@agent@monitoring@ibmras@@QEAAXIPEAUpushsource@@V?$basic_string@DU?$char_traits@D@std@@V?$allocator@D@2@@std@@@Z@4HA 0000000180015f8c f   Agent.obj
 0001:00014f8c       ?dtor$1@?0??add@?$DataSourceList@Upullsource@@@agent@monitoring@ibmras@@QEAAXIPEAUpullsource@@V?$basic_string@DU?$char_traits@D@std@@V?$allocator@D@2@@std@@@Z@4HA 0000000180015f8c f   Agent.obj
 0001:00014fa9       ?dtor$2@?0??add@?$DataSourceList@Upushsource@@@agent@monitoring@ibmras@@QEAAXIPEAUpushsource@@V?$basic_string@DU?$char_traits@D@std@@V?$allocator@D@2@@std@@@Z@4HA 0000000180015fa9 f   Agent.obj
 0001:00014fa9       ?dtor$2@?0??add@?$DataSourceList@Upullsource@@@agent@monitoring@ibmras@@QEAAXIPEAUpullsource@@V?$basic_string@DU?$char_traits@D@std@@V?$allocator@D@2@@std@@@Z@4HA 0000000180015fa9 f   Agent.obj
 0001:00014fb9       ?dtor$3@?0??add@?$DataSourceList@Upullsource@@@agent@monitoring@ibmras@@QEAAXIPEAUpullsource@@V?$basic_string@DU?$char_traits@D@std@@V?$allocator@D@2@@std@@@Z@4HA 0000000180015fb9 f   Agent.obj
 0001:00014fb9       ?dtor$3@?0??add@?$DataSourceList@Upushsource@@@agent@monitoring@ibmras@@QEAAXIPEAUpushsource@@V?$basic_string@DU?$char_traits@D@std@@V?$allocator@D@2@@std@@@Z@4HA 0000000180015fb9 f   Agent.obj
 0001:00014fd0       ?dtor$0@?0??toString@?$DataSourceList@Upushsource@@@agent@monitoring@ibmras@@QEAA?AV?$basic_string@DU?$char_traits@D@std@@V?$allocator@D@2@@std@@XZ@4HA 0000000180015fd0 f   Agent.obj
 0001:00014fd0       ?dtor$0@?0??toString@?$DataSourceList@Upullsource@@@agent@monitoring@ibmras@@QEAA?AV?$basic_string@DU?$char_traits@D@std@@V?$allocator@D@2@@std@@XZ@4HA 0000000180015fd0 f   Agent.obj
 0001:00014fdc       ?dtor$1@?0??toString@?$DataSourceList@Upullsource@@@agent@monitoring@ibmras@@QEAA?AV?$basic_string@DU?$char_traits@D@std@@V?$allocator@D@2@@std@@XZ@4HA 0000000180015fdc f   Agent.obj
 0001:00014fdc       ?dtor$1@?0??toString@?$DataSourceList@Upushsource@@@agent@monitoring@ibmras@@QEAA?AV?$basic_string@DU?$char_traits@D@std@@V?$allocator@D@2@@std@@XZ@4HA 0000000180015fdc f   Agent.obj
 0001:00014fe8       ?dtor$2@?0??toString@?$DataSourceList@Upushsource@@@agent@monitoring@ibmras@@QEAA?AV?$basic_string@DU?$char_traits@D@std@@V?$allocator@D@2@@std@@XZ@4HA 0000000180015fe8 f   Agent.obj
 0001:00014fe8       ?dtor$2@?0??toString@?$DataSourceList@Upullsource@@@agent@monitoring@ibmras@@QEAA?AV?$basic_string@DU?$char_traits@D@std@@V?$allocator@D@2@@std@@XZ@4HA 0000000180015fe8 f   Agent.obj
 0001:00014ff4       ?dtor$16@?0??toString@?$DataSourceList@Upullsource@@@agent@monitoring@ibmras@@QEAA?AV?$basic_string@DU?$char_traits@D@std@@V?$allocator@D@2@@std@@XZ@4HA 0000000180015ff4 f   Agent.obj
 0001:00014ff4       ?dtor$16@?0??toString@?$DataSourceList@Upushsource@@@agent@monitoring@ibmras@@QEAA?AV?$basic_string@DU?$char_traits@D@std@@V?$allocator@D@2@@std@@XZ@4HA 0000000180015ff4 f   Agent.obj
 0001:00015020       ?dtor$0@?0??getBuckets@?$DataSourceList@Upullsource@@@agent@monitoring@ibmras@@QEAA?AV?$vector@PEAVBucket@agent@monitoring@ibmras@@V?$allocator@PEAVBucket@agent@monitoring@ibmras@@@std@@@std@@XZ@4HA 0000000180016020 f   Agent.obj
 0001:00015020       ?dtor$0@?0??getBuckets@?$DataSourceList@Upushsource@@@agent@monitoring@ibmras@@QEAA?AV?$vector@PEAVBucket@agent@monitoring@ibmras@@V?$allocator@PEAVBucket@agent@monitoring@ibmras@@@std@@@std@@XZ@4HA 0000000180016020 f   Agent.obj
 0001:00015046       ?dtor$1@?0??getBuckets@?$DataSourceList@Upushsource@@@agent@monitoring@ibmras@@QEAA?AV?$vector@PEAVBucket@agent@monitoring@ibmras@@V?$allocator@PEAVBucket@agent@monitoring@ibmras@@@std@@@std@@XZ@4HA 0000000180016046 f   Agent.obj
 0001:00015046       ?dtor$1@?0??getBuckets@?$DataSourceList@Upullsource@@@agent@monitoring@ibmras@@QEAA?AV?$vector@PEAVBucket@agent@monitoring@ibmras@@V?$allocator@PEAVBucket@agent@monitoring@ibmras@@@std@@@std@@XZ@4HA 0000000180016046 f   Agent.obj
 0001:00015063       ?dtor$2@?0??getBuckets@?$DataSourceList@Upushsource@@@agent@monitoring@ibmras@@QEAA?AV?$vector@PEAVBucket@agent@monitoring@ibmras@@V?$allocator@PEAVBucket@agent@monitoring@ibmras@@@std@@@std@@XZ@4HA 0000000180016063 f   Agent.obj
 0001:00015063       ?dtor$2@?0??getBuckets@?$DataSourceList@Upullsource@@@agent@monitoring@ibmras@@QEAA?AV?$vector@PEAVBucket@agent@monitoring@ibmras@@V?$allocator@PEAVBucket@agent@monitoring@ibmras@@@std@@@std@@XZ@4HA 0000000180016063 f   Agent.obj
 0001:00015090       ?dtor$11@?0???$insert@V?$_Deque_const_iterator@V?$_Deque_val@U?$_Deque_simple_types@VReceivedMessage@ConnectorManager@connector@monitoring@ibmras@@@std@@@std@@@std@@X@?$deque@VReceivedMessage@ConnectorManager@connector@monitoring@ibmras@@V?$allocator@VReceivedMessage@ConnectorManager@connector@monitoring@ibmras@@@std@@@std@@QEAA?AV?$_Deque_iterator@V?$_Deque_val@U?$_Deque_simple_types@VReceivedMessage@ConnectorManager@connector@monitoring@ibmras@@@std@@@std@@@1@V?$_Deque_const_iterator@V?$_Deque_val@U?$_Deque_simple_types@VReceivedMessage@ConnectorManager@connector@monitoring@ibmras@@@std@@@std@@@1@00@Z@4HA 0000000180016090 f   Agent.obj
 0001:000150a0       ?dtor$0@?0??push_back@?$deque@VReceivedMessage@ConnectorManager@connector@monitoring@ibmras@@V?$allocator@VReceivedMessage@ConnectorManager@connector@monitoring@ibmras@@@std@@@std@@QEAAXAEBVReceivedMessage@ConnectorManager@connector@monitoring@ibmras@@@Z@4HA 00000001800160a0 f   Agent.obj
 0001:000150b0       ?dtor$0@?0??toString@?$DataSource@Upullsource@@@agent@monitoring@ibmras@@QEAA?AV?$basic_string@DU?$char_traits@D@std@@V?$allocator@D@2@@std@@XZ@4HA 00000001800160b0 f   Agent.obj
 0001:000150b0       ?dtor$0@?0??toString@?$DataSource@Upushsource@@@agent@monitoring@ibmras@@QEAA?AV?$basic_string@DU?$char_traits@D@std@@V?$allocator@D@2@@std@@XZ@4HA 00000001800160b0 f   Agent.obj
 0001:000150bc       ?dtor$1@?0??toString@?$DataSource@Upullsource@@@agent@monitoring@ibmras@@QEAA?AV?$basic_string@DU?$char_traits@D@std@@V?$allocator@D@2@@std@@XZ@4HA 00000001800160bc f   Agent.obj
 0001:000150bc       ?dtor$1@?0??toString@?$DataSource@Upushsource@@@agent@monitoring@ibmras@@QEAA?AV?$basic_string@DU?$char_traits@D@std@@V?$allocator@D@2@@std@@XZ@4HA 00000001800160bc f   Agent.obj
 0001:000150c8       ?dtor$2@?0??toString@?$DataSource@Upushsource@@@agent@monitoring@ibmras@@QEAA?AV?$basic_string@DU?$char_traits@D@std@@V?$allocator@D@2@@std@@XZ@4HA 00000001800160c8 f   Agent.obj
 0001:000150c8       ?dtor$2@?0??toString@?$DataSource@Upullsource@@@agent@monitoring@ibmras@@QEAA?AV?$basic_string@DU?$char_traits@D@std@@V?$allocator@D@2@@std@@XZ@4HA 00000001800160c8 f   Agent.obj
 0001:000150d4       ?dtor$19@?0??toString@?$DataSource@Upullsource@@@agent@monitoring@ibmras@@QEAA?AV?$basic_string@DU?$char_traits@D@std@@V?$allocator@D@2@@std@@XZ@4HA 00000001800160d4 f   Agent.obj
 0001:000150d4       ?dtor$19@?0??toString@?$DataSource@Upushsource@@@agent@monitoring@ibmras@@QEAA?AV?$basic_string@DU?$char_traits@D@std@@V?$allocator@D@2@@std@@XZ@4HA 00000001800160d4 f   Agent.obj
 0001:00015100       ?dtor$0@?0???0SystemReceiver@agent@monitoring@ibmras@@QEAA@XZ@4HA 0000000180016100 f   SystemReceiver.obj
 0001:0001510c       ?dtor$1@?0???0SystemReceiver@agent@monitoring@ibmras@@QEAA@XZ@4HA 000000018001610c f   SystemReceiver.obj
 0001:00015120       ?dtor$0@?0??receiveMessage@SystemReceiver@agent@monitoring@ibmras@@UEAAXAEBV?$basic_string@DU?$char_traits@D@std@@V?$allocator@D@2@@std@@IPEAX@Z@4HA 0000000180016120 f   SystemReceiver.obj
 0001:0001512c       ?dtor$1@?0??receiveMessage@SystemReceiver@agent@monitoring@ibmras@@UEAAXAEBV?$basic_string@DU?$char_traits@D@std@@V?$allocator@D@2@@std@@IPEAX@Z@4HA 000000018001612c f   SystemReceiver.obj
 0001:00015138       ?dtor$2@?0??receiveMessage@SystemReceiver@agent@monitoring@ibmras@@UEAAXAEBV?$basic_string@DU?$char_traits@D@std@@V?$allocator@D@2@@std@@IPEAX@Z@4HA 0000000180016138 f   SystemReceiver.obj
 0001:00015144       ?dtor$3@?0??receiveMessage@SystemReceiver@agent@monitoring@ibmras@@UEAAXAEBV?$basic_string@DU?$char_traits@D@std@@V?$allocator@D@2@@std@@IPEAX@Z@4HA 0000000180016144 f   SystemReceiver.obj
 0001:00015150       ?dtor$8@?0??receiveMessage@SystemReceiver@agent@monitoring@ibmras@@UEAAXAEBV?$basic_string@DU?$char_traits@D@std@@V?$allocator@D@2@@std@@IPEAX@Z@4HA 0000000180016150 f   SystemReceiver.obj
 0001:00015179       ?dtor$4@?0??receiveMessage@SystemReceiver@agent@monitoring@ibmras@@UEAAXAEBV?$basic_string@DU?$char_traits@D@std@@V?$allocator@D@2@@std@@IPEAX@Z@4HA 0000000180016179 f   SystemReceiver.obj
 0001:00015185       ?dtor$5@?0??receiveMessage@SystemReceiver@agent@monitoring@ibmras@@UEAAXAEBV?$basic_string@DU?$char_traits@D@std@@V?$allocator@D@2@@std@@IPEAX@Z@4HA 0000000180016185 f   SystemReceiver.obj
 0001:000151a0       ?dtor$0@?0???0ConnectorManager@connector@monitoring@ibmras@@QEAA@XZ@4HA 00000001800161a0 f   ConnectorManager.obj
 0001:000151ac       ?dtor$1@?0???0ConnectorManager@connector@monitoring@ibmras@@QEAA@XZ@4HA 00000001800161ac f   ConnectorManager.obj
 0001:000151bc       ?dtor$2@?0???0ConnectorManager@connector@monitoring@ibmras@@QEAA@XZ@4HA 00000001800161bc f   ConnectorManager.obj
 0001:000151cc       ?dtor$3@?0???0ConnectorManager@connector@monitoring@ibmras@@QEAA@XZ@4HA 00000001800161cc f   ConnectorManager.obj
 0001:000151dc       ?dtor$4@?0???0ConnectorManager@connector@monitoring@ibmras@@QEAA@XZ@4HA 00000001800161dc f   ConnectorManager.obj
 0001:000151ec       ?dtor$5@?0???0ConnectorManager@connector@monitoring@ibmras@@QEAA@XZ@4HA 00000001800161ec f   ConnectorManager.obj
 0001:00015200       ?dtor$0@?0??receiveMessage@ConnectorManager@connector@monitoring@ibmras@@UEAAXAEBV?$basic_string@DU?$char_traits@D@std@@V?$allocator@D@2@@std@@IPEAX@Z@4HA 0000000180016200 f   ConnectorManager.obj
 0001:00015200       ?dtor$0@?0??processMessage@ConnectorManager@connector@monitoring@ibmras@@QEAAXAEBV?$basic_string@DU?$char_traits@D@std@@V?$allocator@D@2@@std@@IPEAX@Z@4HA 0000000180016200 f   ConnectorManager.obj
 0001:00015210       ?dtor$4@?0??processReceivedMessages@ConnectorManager@connector@monitoring@ibmras@@AEAAXXZ@4HA 0000000180016210 f   ConnectorManager.obj
 0001:00015220       ?dtor$0@?0??processReceivedMessages@ConnectorManager@connector@monitoring@ibmras@@AEAAXXZ@4HA 0000000180016220 f   ConnectorManager.obj
 0001:00015230       ?catch$0@?0??sendMessage@ConnectorManager@connector@monitoring@ibmras@@UEAAHAEBV?$basic_string@DU?$char_traits@D@std@@V?$allocator@D@2@@std@@IPEAX@Z@4HA 0000000180016230 f   ConnectorManager.obj
 0001:0001523d       __catch$?sendMessage@ConnectorManager@connector@monitoring@ibmras@@UEAAHAEBV?$basic_string@DU?$char_traits@D@std@@V?$allocator@D@2@@std@@IPEAX@Z$0 000000018001623d f   ConnectorManager.obj
 0001:00015250       ?dtor$0@?0???0ReceivedMessage@ConnectorManager@connector@monitoring@ibmras@@QEAA@AEBV?$basic_string@DU?$char_traits@D@std@@V?$allocator@D@2@@std@@IPEAX@Z@4HA 0000000180016250 f   ConnectorManager.obj
 0001:00015260       ?dtor$1@?0???0ReceivedMessage@ConnectorManager@connector@monitoring@ibmras@@QEAA@AEBV?$basic_string@DU?$char_traits@D@std@@V?$allocator@D@2@@std@@IPEAX@Z@4HA 0000000180016260 f   ConnectorManager.obj
 0001:00015270       ?dtor$0@?0???0Bucket@agent@monitoring@ibmras@@QEAA@IIIAEBV?$basic_string@DU?$char_traits@D@std@@V?$allocator@D@2@@std@@@Z@4HA 0000000180016270 f   Bucket.obj
 0001:00015280       ?dtor$1@?0???0Bucket@agent@monitoring@ibmras@@QEAA@IIIAEBV?$basic_string@DU?$char_traits@D@std@@V?$allocator@D@2@@std@@@Z@4HA 0000000180016280 f   Bucket.obj
 0001:000152a0       ?dtor$0@?0??add@Bucket@agent@monitoring@ibmras@@QEAA_NPEAUmonitordata@@@Z@4HA 00000001800162a0 f   Bucket.obj
 0001:000152c0       ?dtor$2@?0??republish@Bucket@agent@monitoring@ibmras@@QEAAXAEBV?$basic_string@DU?$char_traits@D@std@@V?$allocator@D@2@@std@@AEAVConnector@connector@34@@Z@4HA 00000001800162c0 f   Bucket.obj
 0001:000152f0       ?dtor$0@?0??toString@Bucket@agent@monitoring@ibmras@@QEAA?AV?$basic_string@DU?$char_traits@D@std@@V?$allocator@D@2@@std@@XZ@4HA 00000001800162f0 f   Bucket.obj
 0001:000152fc       ?dtor$1@?0??toString@Bucket@agent@monitoring@ibmras@@QEAA?AV?$basic_string@DU?$char_traits@D@std@@V?$allocator@D@2@@std@@XZ@4HA 00000001800162fc f   Bucket.obj
 0001:00015308       ?dtor$2@?0??toString@Bucket@agent@monitoring@ibmras@@QEAA?AV?$basic_string@DU?$char_traits@D@std@@V?$allocator@D@2@@std@@XZ@4HA 0000000180016308 f   Bucket.obj
 0001:00015314       ?dtor$3@?0??toString@Bucket@agent@monitoring@ibmras@@QEAA?AV?$basic_string@DU?$char_traits@D@std@@V?$allocator@D@2@@std@@XZ@4HA 0000000180016314 f   Bucket.obj
 0001:00015320       ?dtor$4@?0??toString@Bucket@agent@monitoring@ibmras@@QEAA?AV?$basic_string@DU?$char_traits@D@std@@V?$allocator@D@2@@std@@XZ@4HA 0000000180016320 f   Bucket.obj
 0001:0001532c       ?dtor$5@?0??toString@Bucket@agent@monitoring@ibmras@@QEAA?AV?$basic_string@DU?$char_traits@D@std@@V?$allocator@D@2@@std@@XZ@4HA 000000018001632c f   Bucket.obj
 0001:00015338       ?dtor$43@?0??toString@Bucket@agent@monitoring@ibmras@@QEAA?AV?$basic_string@DU?$char_traits@D@std@@V?$allocator@D@2@@std@@XZ@4HA 0000000180016338 f   Bucket.obj
 0001:00015370       ?dtor$0@?0??toString@BucketList@agent@monitoring@ibmras@@QEAA?AV?$basic_string@DU?$char_traits@D@std@@V?$allocator@D@2@@std@@XZ@4HA 0000000180016370 f   BucketList.obj
 0001:0001537c       ?dtor$1@?0??toString@BucketList@agent@monitoring@ibmras@@QEAA?AV?$basic_string@DU?$char_traits@D@std@@V?$allocator@D@2@@std@@XZ@4HA 000000018001637c f   BucketList.obj
 0001:00015388       ?dtor$8@?0??toString@BucketList@agent@monitoring@ibmras@@QEAA?AV?$basic_string@DU?$char_traits@D@std@@V?$allocator@D@2@@std@@XZ@4HA 0000000180016388 f   BucketList.obj
 0001:000153b0       ?dtor$0@?0??add@BucketList@agent@monitoring@ibmras@@QEAA_NV?$vector@PEAVBucket@agent@monitoring@ibmras@@V?$allocator@PEAVBucket@agent@monitoring@ibmras@@@std@@@std@@@Z@4HA 00000001800163b0 f   BucketList.obj
 0001:000153c0       ?dtor$0@?0??getIDs@BucketList@agent@monitoring@ibmras@@QEAA?AV?$vector@V?$basic_string@DU?$char_traits@D@std@@V?$allocator@D@2@@std@@V?$allocator@V?$basic_string@DU?$char_traits@D@std@@V?$allocator@D@2@@std@@@2@@std@@XZ@4HA 00000001800163c0 f   BucketList.obj
 0001:000153e6       ?dtor$1@?0??getIDs@BucketList@agent@monitoring@ibmras@@QEAA?AV?$vector@V?$basic_string@DU?$char_traits@D@std@@V?$allocator@D@2@@std@@V?$allocator@V?$basic_string@DU?$char_traits@D@std@@V?$allocator@D@2@@std@@@2@@std@@XZ@4HA 00000001800163e6 f   BucketList.obj
 0001:00015400       ?dtor$0@?0??scan@Plugin@monitoring@ibmras@@SA?AV?$vector@PEAVPlugin@monitoring@ibmras@@V?$allocator@PEAVPlugin@monitoring@ibmras@@@std@@@std@@AEBV?$basic_string@DU?$char_traits@D@std@@V?$allocator@D@2@@5@@Z@4HA 0000000180016400 f   Plugin.obj
 0001:0001540c       ?dtor$2@?0??scan@Plugin@monitoring@ibmras@@SA?AV?$vector@PEAVPlugin@monitoring@ibmras@@V?$allocator@PEAVPlugin@monitoring@ibmras@@@std@@@std@@AEBV?$basic_string@DU?$char_traits@D@std@@V?$allocator@D@2@@5@@Z@4HA 000000018001640c f   Plugin.obj
 0001:00015420       ?dtor$10@?0??processLibrary@Plugin@monitoring@ibmras@@SAPEAV123@AEBV?$basic_string@DU?$char_traits@D@std@@V?$allocator@D@2@@std@@@Z@4HA 0000000180016420 f   Plugin.obj
 0001:00015440       ?dtor$0@?0???0ConfigurationConnector@connector@monitoring@ibmras@@QEAA@XZ@4HA 0000000180016440 f   ConfigurationConnector.obj
 0001:0001544c       ?dtor$1@?0???0ConfigurationConnector@connector@monitoring@ibmras@@QEAA@XZ@4HA 000000018001644c f   ConfigurationConnector.obj
 0001:00015460       ?dtor$0@?0??getConfig@ConfigurationConnector@connector@monitoring@ibmras@@QEAA?AV?$basic_string@DU?$char_traits@D@std@@V?$allocator@D@2@@std@@AEBV56@@Z@4HA 0000000180016460 f   ConfigurationConnector.obj
 0001:00015486       ?dtor$1@?0??getConfig@ConfigurationConnector@connector@monitoring@ibmras@@QEAA?AV?$basic_string@DU?$char_traits@D@std@@V?$allocator@D@2@@std@@AEBV56@@Z@4HA 0000000180016486 f   ConfigurationConnector.obj
 0001:00015492       ?fin$0@?0???_M@YAXPEAX_K1P6AX0@Z@Z@4HA 0000000180016492 f   MSVCRT:ehvecdtr.obj
 0001:000154be       ?filt$0@?0??__ArrayUnwind@@YAXPEAX_K1P6AX0@Z@Z@4HA 00000001800164be f   MSVCRT:ehvecdtr.obj
 0001:000154ff       __scrt_is_nonwritable_in_current_image$filt$0 00000001800164ff f   MSVCRT:utility.obj
 0001:00015517       ?fin$0@?0??dllmain_crt_process_attach@@YAHQEAUHINSTANCE__@@QEAX@Z@4HA 0000000180016517 f   MSVCRT:dll_dllmain.obj
 0001:0001552e       ?fin$0@?0??dllmain_crt_process_detach@@YAH_N@Z@4HA 000000018001652e f   MSVCRT:dll_dllmain.obj
 0001:0001554a       ?filt$0@?0??dllmain_dispatch@@YAHQEAUHINSTANCE__@@KQEAX@Z@4HA 000000018001654a f   MSVCRT:dll_dllmain.obj
 0001:00015580       ?catch$0@?0???2@YAPEAX_KAEBUnothrow_t@std@@@Z@4HA 0000000180016580 f   MSVCRT:new_scalar_nothrow.obj
 0001:0001558d       __catch$??2@YAPEAX_KAEBUnothrow_t@std@@@Z$0 000000018001658d f   MSVCRT:new_scalar_nothrow.obj
 0001:000155a0       ??__FCONFIGURATION_TOPIC@connector@monitoring@ibmras@@YAXXZ 00000001800165a0 f   ConfigurationConnector.obj
 0001:00015604       ??__F_Fac_tidy_reg@std@@YAXXZ 0000000180016604 f   msvcprt:locale0_implib.obj
 0002:00000480       ?_Fac_tidy_reg$initializer$@std@@3P6AXXZEA 0000000180017480     msvcprt:locale0_implib.obj
 0002:00000488       ?logger$initializer$@common@ibmras@@3P6AXXZEA 0000000180017488     MemoryManager.obj
 0002:00000490       ?logger$initializer$@util@common@ibmras@@3P6AXXZEA 0000000180017490     FileUtils.obj
 0002:00000498       ?logger$initializer$@port@common@ibmras@@3P6AXXZEA 0000000180017498     Thread.obj
 0002:000004a0       ?logger$initializer$@locking@port@common@ibmras@@3P6AXXZEA 00000001800174a0     Lock.obj
 0002:000004a8       ?pluginlogger$initializer$@agent@monitoring@ibmras@@3P6AXXZEA 00000001800174a8     Agent.obj
 0002:000004b0       ?corelogger$initializer$@agent@monitoring@ibmras@@3P6AXXZEA 00000001800174b0     Agent.obj
 0002:000004b8       ?instance$initializer$@agent@monitoring@ibmras@@3P6AXXZEA 00000001800174b8     Agent.obj
 0002:000004c0       ?logger$initializer$@agent@monitoring@ibmras@@3P6AXXZEA 00000001800174c0     Agent.obj
 0002:000004c8       ?logger$initializer$@threads@agent@monitoring@ibmras@@3P6AXXZEA 00000001800174c8     ThreadPool.obj
 0002:000004d0       ?logger$initializer$@bucket@agent@monitoring@ibmras@@3P6AXXZEA 00000001800174d0     Bucket.obj
 0002:000004d8       ?logger$initializer$@monitoring@ibmras@@3P6AXXZEA 00000001800174d8     Plugin.obj
 0002:000004e0       ?CONFIGURATION_TOPIC$initializer$@connector@monitoring@ibmras@@3P6AXXZEA 00000001800174e0     ConfigurationConnector.obj
 0002:00000520       $cppxdata$??1_Fac_tidy_reg_t@std@@QEAA@XZ 0000000180017520     msvcprt:locale0_implib.obj
 0002:00000550       GS_ExceptionPointers       0000000180017550     MSVCRT:gs_report.obj
 0002:000005e8       $cppxdata$??2@YAPEAX_KAEBUnothrow_t@std@@@Z 00000001800175e8     MSVCRT:new_scalar_nothrow.obj
 0002:00000aa8       ?piecewise_construct@std@@3Upiecewise_construct_t@1@B 0000000180017aa8     Properties.obj
 0002:00000ac0       ?PROPERTIES_PREFIX@agent@monitoring@ibmras@@3PEBDEB 0000000180017ac0     Agent.obj
 0002:00000ac8       ?HEARTBEAT_TOPIC@agent@monitoring@ibmras@@3PEBDEB 0000000180017ac8     Agent.obj
 0002:00001c68       $cppxdata$??$_Insert_string@DU?$char_traits@D@std@@_K@std@@YAAEAV?$basic_ostream@DU?$char_traits@D@std@@@0@AEAV10@QEBD_K@Z 0000000180018c68     Logger.obj
 0002:00001c90       $cppxdata$??1_Sentry_base@?$basic_istream@DU?$char_traits@D@std@@@std@@QEAA@XZ 0000000180018c90     PropertiesFile.obj
 0002:00001c90       $cppxdata$??1_Sentry_base@?$basic_ostream@DU?$char_traits@D@std@@@std@@QEAA@XZ 0000000180018c90     Logger.obj
 0002:00001cb8       $cppxdata$??1sentry@?$basic_ostream@DU?$char_traits@D@std@@@std@@QEAA@XZ 0000000180018cb8     Logger.obj
 0002:00001ce0       $cppxdata$??$?6U?$char_traits@D@std@@@std@@YAAEAV?$basic_ostream@DU?$char_traits@D@std@@@0@AEAV10@D@Z 0000000180018ce0     Logger.obj
 0002:00001d08       $cppxdata$??$?6U?$char_traits@D@std@@@std@@YAAEAV?$basic_ostream@DU?$char_traits@D@std@@@0@AEAV10@PEBD@Z 0000000180018d08     Logger.obj
 0002:00001d30       $cppxdata$??0?$basic_stringstream@DU?$char_traits@D@std@@V?$allocator@D@2@@std@@QEAA@H@Z 0000000180018d30     Logger.obj
 0002:00001d58       $cppxdata$?logDebug@Logger@common@ibmras@@QEAAXW4loggingLevel@@PEBDZZ 0000000180018d58     Logger.obj
 0002:00001d80       $cppxdata$?log@Logger@common@ibmras@@QEAAXW4loggingLevel@@PEBDZZ 0000000180018d80     Logger.obj
 0002:00001da8       $cppxdata$??_ELogger@common@ibmras@@UEAAPEAXI@Z 0000000180018da8     Logger.obj
 0002:00001de0       $cppxdata$?getLogger@LogManager@common@ibmras@@SAPEAVLogger@23@AEBV?$basic_string@DU?$char_traits@D@std@@V?$allocator@D@2@@std@@@Z 0000000180018de0     LogManager.obj
 0002:00001e08       $cppxdata$?getInstance@LogManager@common@ibmras@@SAPEAV123@XZ 0000000180018e08     LogManager.obj
 0002:00001e30       $cppxdata$??$_Copy_nodes@U_Copy_tag@?$_Tree@V?$_Tmap_traits@V?$basic_string@DU?$char_traits@D@std@@V?$allocator@D@2@@std@@V12@U?$less@V?$basic_string@DU?$char_traits@D@std@@V?$allocator@D@2@@std@@@2@V?$allocator@U?$pair@$$CBV?$basic_string@DU?$char_traits@D@std@@V?$allocator@D@2@@std@@V12@@std@@@2@$0A@@std@@@std@@@?$_Tree@V?$_Tmap_traits@V?$basic_string@DU?$char_traits@D@std@@V?$allocator@D@2@@std@@V12@U?$less@V?$basic_string@DU?$char_traits@D@std@@V?$allocator@D@2@@std@@@2@V?$allocator@U?$pair@$$CBV?$basic_string@DU?$char_traits@D@std@@V?$allocator@D@2@@std@@V12@@std@@@2@$0A@@std@@@std@@IEAAPEAU?$_Tree_node@U?$pair@$$CBV?$basic_string@DU?$char_traits@D@std@@V?$allocator@D@2@@std@@V12@@std@@PEAX@1@PEAU21@0U_Copy_tag@01@@Z 0000000180018e30     Properties.obj
 0002:00001e58       $cppxdata$?clear@?$_Tree@V?$_Tmap_traits@V?$basic_string@DU?$char_traits@D@std@@V?$allocator@D@2@@std@@V12@U?$less@V?$basic_string@DU?$char_traits@D@std@@V?$allocator@D@2@@std@@@2@V?$allocator@U?$pair@$$CBV?$basic_string@DU?$char_traits@D@std@@V?$allocator@D@2@@std@@V12@@std@@@2@$0A@@std@@@std@@QEAAXXZ 0000000180018e58     Properties.obj
 0002:00001e80       $cppxdata$?toString@Properties@common@ibmras@@UEAA?AV?$basic_string@DU?$char_traits@D@std@@V?$allocator@D@2@@std@@XZ 0000000180018e80     Properties.obj
 0002:00001ea8       $cppxdata$?add@Properties@common@ibmras@@UEAAXAEBV?$basic_string@DU?$char_traits@D@std@@V?$allocator@D@2@@std@@@Z 0000000180018ea8     Properties.obj
 0002:00001ed0       $cppxdata$?getKeys@Properties@common@ibmras@@UEAA?AV?$list@V?$basic_string@DU?$char_traits@D@std@@V?$allocator@D@2@@std@@V?$allocator@V?$basic_string@DU?$char_traits@D@std@@V?$allocator@D@2@@std@@@2@@std@@AEBV?$basic_string@DU?$char_traits@D@std@@V?$allocator@D@2@@5@@Z 0000000180018ed0     Properties.obj
 0002:00001ef8       $cppxdata$??_EPropertiesFile@common@ibmras@@UEAAPEAXI@Z 0000000180018ef8     PropertiesFile.obj
 0002:00001ef8       $cppxdata$??_EProperties@common@ibmras@@UEAAPEAXI@Z 0000000180018ef8     Properties.obj
 0002:00001f20       $cppxdata$??0Properties@common@ibmras@@QEAA@AEBV012@@Z 0000000180018f20     Properties.obj
 0002:00001f48       $cppxdata$??1sentry@?$basic_istream@DU?$char_traits@D@std@@@std@@QEAA@XZ 0000000180018f48     PropertiesFile.obj
 0002:00001f70       $cppxdata$??$getline@DU?$char_traits@D@std@@V?$allocator@D@2@@std@@YAAEAV?$basic_istream@DU?$char_traits@D@std@@@0@$$QEAV10@AEAV?$basic_string@DU?$char_traits@D@std@@V?$allocator@D@2@@0@D@Z 0000000180018f70     PropertiesFile.obj
 0002:00001f98       $cppxdata$??1?$unique_ptr@V_Facet_base@std@@U?$default_delete@V_Facet_base@std@@@2@@std@@QEAA@XZ 0000000180018f98     PropertiesFile.obj
 0002:00001fc0       $cppxdata$??$use_facet@V?$codecvt@DDU_Mbstatet@@@std@@@std@@YAAEBV?$codecvt@DDU_Mbstatet@@@0@AEBVlocale@0@@Z 0000000180018fc0     PropertiesFile.obj
 0002:00001fe8       $cppxdata$??1?$basic_filebuf@DU?$char_traits@D@std@@@std@@UEAA@XZ 0000000180018fe8     PropertiesFile.obj
 0002:00002010       $cppxdata$?uflow@?$basic_filebuf@DU?$char_traits@D@std@@@std@@MEAAHXZ 0000000180019010     PropertiesFile.obj
 0002:00002038       $cppxdata$??0?$basic_ifstream@DU?$char_traits@D@std@@@std@@QEAA@PEBDHH@Z 0000000180019038     PropertiesFile.obj
 0002:00002060       $cppxdata$?load@PropertiesFile@common@ibmras@@QEAAHAEBV?$basic_string@DU?$char_traits@D@std@@V?$allocator@D@2@@std@@@Z 0000000180019060     PropertiesFile.obj
 0002:00002088       $cppxdata$??1locale@std@@QEAA@XZ 0000000180019088     PropertiesFile.obj
 0002:000020b0       $cppxdata$?split@util@common@ibmras@@YAAEAV?$vector@V?$basic_string@DU?$char_traits@D@std@@V?$allocator@D@2@@std@@V?$allocator@V?$basic_string@DU?$char_traits@D@std@@V?$allocator@D@2@@std@@@2@@std@@AEBV?$basic_string@DU?$char_traits@D@std@@V?$allocator@D@2@@5@DAEAV45@@Z 00000001800190b0     strUtils.obj
 0002:000020d8       $cppxdata$??$_Reverse_unchecked@V?$_Deque_unchecked_iterator@V?$_Deque_val@U?$_Deque_simple_types@VReceivedMessage@ConnectorManager@connector@monitoring@ibmras@@@std@@@std@@@std@@@std@@YAXV?$_Deque_unchecked_iterator@V?$_Deque_val@U?$_Deque_simple_types@VReceivedMessage@ConnectorManager@connector@monitoring@ibmras@@@std@@@std@@@0@0@Z 00000001800190d8     Agent.obj
 0002:00002100       $cppxdata$?toString@?$DataSource@Upullsource@@@agent@monitoring@ibmras@@QEAA?AV?$basic_string@DU?$char_traits@D@std@@V?$allocator@D@2@@std@@XZ 0000000180019100     Agent.obj
 0002:00002100       $cppxdata$?toString@?$DataSource@Upushsource@@@agent@monitoring@ibmras@@QEAA?AV?$basic_string@DU?$char_traits@D@std@@V?$allocator@D@2@@std@@XZ 0000000180019100     Agent.obj
 0002:00002128       $cppxdata$?push_back@?$deque@VReceivedMessage@ConnectorManager@connector@monitoring@ibmras@@V?$allocator@VReceivedMessage@ConnectorManager@connector@monitoring@ibmras@@@std@@@std@@QEAAXAEBVReceivedMessage@ConnectorManager@connector@monitoring@ibmras@@@Z 0000000180019128     Agent.obj
 0002:00002150       $cppxdata$??$insert@V?$_Deque_const_iterator@V?$_Deque_val@U?$_Deque_simple_types@VReceivedMessage@ConnectorManager@connector@monitoring@ibmras@@@std@@@std@@@std@@X@?$deque@VReceivedMessage@ConnectorManager@connector@monitoring@ibmras@@V?$allocator@VReceivedMessage@ConnectorManager@connector@monitoring@ibmras@@@std@@@std@@QEAA?AV?$_Deque_iterator@V?$_Deque_val@U?$_Deque_simple_types@VReceivedMessage@ConnectorManager@connector@monitoring@ibmras@@@std@@@std@@@1@V?$_Deque_const_iterator@V?$_Deque_val@U?$_Deque_simple_types@VReceivedMessage@ConnectorManager@connector@monitoring@ibmras@@@std@@@std@@@1@00@Z 0000000180019150     Agent.obj
 0002:00002178       $cppxdata$?getBuckets@?$DataSourceList@Upullsource@@@agent@monitoring@ibmras@@QEAA?AV?$vector@PEAVBucket@agent@monitoring@ibmras@@V?$allocator@PEAVBucket@agent@monitoring@ibmras@@@std@@@std@@XZ 0000000180019178     Agent.obj
 0002:00002178       $cppxdata$?getBuckets@?$DataSourceList@Upushsource@@@agent@monitoring@ibmras@@QEAA?AV?$vector@PEAVBucket@agent@monitoring@ibmras@@V?$allocator@PEAVBucket@agent@monitoring@ibmras@@@std@@@std@@XZ 0000000180019178     Agent.obj
 0002:000021a0       $cppxdata$?toString@?$DataSourceList@Upushsource@@@agent@monitoring@ibmras@@QEAA?AV?$basic_string@DU?$char_traits@D@std@@V?$allocator@D@2@@std@@XZ 00000001800191a0     Agent.obj
 0002:000021a0       $cppxdata$?toString@?$DataSourceList@Upullsource@@@agent@monitoring@ibmras@@QEAA?AV?$basic_string@DU?$char_traits@D@std@@V?$allocator@D@2@@std@@XZ 00000001800191a0     Agent.obj
 0002:000021c8       $cppxdata$?add@?$DataSourceList@Upullsource@@@agent@monitoring@ibmras@@QEAAXIPEAUpullsource@@V?$basic_string@DU?$char_traits@D@std@@V?$allocator@D@2@@std@@@Z 00000001800191c8     Agent.obj
 0002:000021c8       $cppxdata$?add@?$DataSourceList@Upushsource@@@agent@monitoring@ibmras@@QEAAXIPEAUpushsource@@V?$basic_string@DU?$char_traits@D@std@@V?$allocator@D@2@@std@@@Z 00000001800191c8     Agent.obj
 0002:000021f0       $cppxdata$?clear@?$_Tree@V?$_Tset_traits@PEAVReceiver@connector@monitoring@ibmras@@U?$less@PEAVReceiver@connector@monitoring@ibmras@@@std@@V?$allocator@PEAVReceiver@connector@monitoring@ibmras@@@6@$0A@@std@@@std@@QEAAXXZ 00000001800191f0     Agent.obj
 0002:000021f0       $cppxdata$?clear@?$_Tree@V?$_Tset_traits@PEAVConnector@connector@monitoring@ibmras@@U?$less@PEAVConnector@connector@monitoring@ibmras@@@std@@V?$allocator@PEAVConnector@connector@monitoring@ibmras@@@6@$0A@@std@@@std@@QEAAXXZ 00000001800191f0     Agent.obj
 0002:00002218       $cppxdata$?loadPropertiesFile@Agent@agent@monitoring@ibmras@@QEAA_NPEBD@Z 0000000180019218     Agent.obj
 0002:00002240       $cppxdata$?setHeadlessRunning@Agent@agent@monitoring@ibmras@@QEAAX_N@Z 0000000180019240     Agent.obj
 0002:00002268       $cppxdata$?agentPropertyExists@Agent@agent@monitoring@ibmras@@QEAA_NAEBV?$basic_string@DU?$char_traits@D@std@@V?$allocator@D@2@@std@@@Z 0000000180019268     Agent.obj
 0002:00002290       $cppxdata$?setAgentProperty@Agent@agent@monitoring@ibmras@@QEAAXAEBV?$basic_string@DU?$char_traits@D@std@@V?$allocator@D@2@@std@@0@Z 0000000180019290     Agent.obj
 0002:000022b8       $cppxdata$?getAgentProperty@Agent@agent@monitoring@ibmras@@QEAA?AV?$basic_string@DU?$char_traits@D@std@@V?$allocator@D@2@@std@@AEBV56@@Z 00000001800192b8     Agent.obj
 0002:000022e0       $cppxdata$?getProperty@Agent@agent@monitoring@ibmras@@QEAA?AV?$basic_string@DU?$char_traits@D@std@@V?$allocator@D@2@@std@@AEBV56@@Z 00000001800192e0     Agent.obj
 0002:00002308       $cppxdata$?shutdown@Agent@agent@monitoring@ibmras@@QEAAXXZ 0000000180019308     Agent.obj
 0002:00002330       $cppxdata$?startConnectors@Agent@agent@monitoring@ibmras@@AEAAXXZ 0000000180019330     Agent.obj
 0002:00002358       $cppxdata$?readOnly@Agent@agent@monitoring@ibmras@@QEAA_NXZ 0000000180019358     Agent.obj
 0002:00002380       $cppxdata$?init@Agent@agent@monitoring@ibmras@@QEAAXXZ 0000000180019380     Agent.obj
 0002:000023a8       $cppxdata$?addSystemPlugins@Agent@agent@monitoring@ibmras@@AEAAXXZ 00000001800193a8     Agent.obj
 0002:000023d0       $cppxdata$?addPlugin@Agent@agent@monitoring@ibmras@@QEAAXPEBD@Z 00000001800193d0     Agent.obj
 0002:000023f8       $cppxdata$?addPlugin@Agent@agent@monitoring@ibmras@@QEAAXAEBV?$basic_string@DU?$char_traits@D@std@@V?$allocator@D@2@@std@@V56@@Z 00000001800193f8     Agent.obj
 0002:00002420       $cppxdata$?addPullSource@Agent@agent@monitoring@ibmras@@AEAAXV?$_Vector_iterator@V?$_Vector_val@U?$_Simple_types@PEAVPlugin@monitoring@ibmras@@@std@@@std@@@std@@I@Z 0000000180019420     Agent.obj
 0002:00002448       $cppxdata$?addPushSource@Agent@agent@monitoring@ibmras@@AEAAXV?$_Vector_iterator@V?$_Vector_val@U?$_Simple_types@PEAVPlugin@monitoring@ibmras@@@std@@@std@@@std@@I@Z 0000000180019448     Agent.obj
 0002:00002470       $cppxdata$?processPullSourceLoop@agent@monitoring@ibmras@@YAPEAXPEAVThreadData@port@common@3@@Z 0000000180019470     Agent.obj
 0002:00002498       $cppxdata$?processPublishLoop@agent@monitoring@ibmras@@YAPEAXPEAVThreadData@port@common@3@@Z 0000000180019498     Agent.obj
 0002:000024c0       $cppxdata$?getPushSource@Agent@agent@monitoring@ibmras@@QEAAPEAV?$DataSource@Upushsource@@@234@V?$basic_string@DU?$char_traits@D@std@@V?$allocator@D@2@@std@@@Z 00000001800194c0     Agent.obj
 0002:000024e8       $cppxdata$?getPullSource@Agent@agent@monitoring@ibmras@@QEAAPEAV?$DataSource@Upullsource@@@234@V?$basic_string@DU?$char_traits@D@std@@V?$allocator@D@2@@std@@@Z 00000001800194e8     Agent.obj
 0002:00002510       $cppxdata$?setLogLevels@Agent@agent@monitoring@ibmras@@QEAAXXZ 0000000180019510     Agent.obj
 0002:00002538       $cppxdata$??0Agent@agent@monitoring@ibmras@@QEAA@XZ 0000000180019538     Agent.obj
 0002:00002560       $cppxdata$??__Einstance@agent@monitoring@ibmras@@YAXXZ 0000000180019560     Agent.obj
 0002:00002588       $cppxdata$??_EAgentExtensionReceiver@monitoring@ibmras@@UEAAPEAXI@Z 0000000180019588     Agent.obj
 0002:000025b0       $cppxdata$??0Agent@agent@monitoring@ibmras@@QEAA@$$QEAV0123@@Z 00000001800195b0     Agent.obj
 0002:000025d8       $cppxdata$??0Agent@agent@monitoring@ibmras@@QEAA@AEBV0123@@Z 00000001800195d8     Agent.obj
 0002:00002600       $cppxdata$??_EConfigurationConnector@connector@monitoring@ibmras@@UEAAPEAXI@Z 0000000180019600     Agent.obj
 0002:00002628       $cppxdata$??0ConfigurationConnector@connector@monitoring@ibmras@@QEAA@AEBV0123@@Z 0000000180019628     Agent.obj
 0002:00002650       $cppxdata$??_EConnectorManager@connector@monitoring@ibmras@@UEAAPEAXI@Z 0000000180019650     Agent.obj
 0002:00002678       $cppxdata$??0ConnectorManager@connector@monitoring@ibmras@@QEAA@AEBV0123@@Z 0000000180019678     Agent.obj
 0002:000026a0       $cppxdata$??1ThreadPool@threads@agent@monitoring@ibmras@@QEAA@XZ 00000001800196a0     ThreadPool.obj
 0002:000026c8       $cppxdata$?receiveMessage@SystemReceiver@agent@monitoring@ibmras@@UEAAXAEBV?$basic_string@DU?$char_traits@D@std@@V?$allocator@D@2@@std@@IPEAX@Z 00000001800196c8     SystemReceiver.obj
 0002:000026f0       $cppxdata$??0SystemReceiver@agent@monitoring@ibmras@@QEAA@XZ 00000001800196f0     SystemReceiver.obj
 0002:00002718       $cppxdata$??0ReceivedMessage@ConnectorManager@connector@monitoring@ibmras@@QEAA@AEBV?$basic_string@DU?$char_traits@D@std@@V?$allocator@D@2@@std@@IPEAX@Z 0000000180019718     ConnectorManager.obj
 0002:00002740       $cppxdata$?processReceivedMessages@ConnectorManager@connector@monitoring@ibmras@@AEAAXXZ 0000000180019740     ConnectorManager.obj
 0002:00002768       $cppxdata$?processMessage@ConnectorManager@connector@monitoring@ibmras@@QEAAXAEBV?$basic_string@DU?$char_traits@D@std@@V?$allocator@D@2@@std@@IPEAX@Z 0000000180019768     ConnectorManager.obj
 0002:00002790       $cppxdata$?receiveMessage@ConnectorManager@connector@monitoring@ibmras@@UEAAXAEBV?$basic_string@DU?$char_traits@D@std@@V?$allocator@D@2@@std@@IPEAX@Z 0000000180019790     ConnectorManager.obj
 0002:000027b8       $cppxdata$?sendMessage@ConnectorManager@connector@monitoring@ibmras@@UEAAHAEBV?$basic_string@DU?$char_traits@D@std@@V?$allocator@D@2@@std@@IPEAX@Z 00000001800197b8     ConnectorManager.obj
 0002:000027e0       $cppxdata$??0ConnectorManager@connector@monitoring@ibmras@@QEAA@XZ 00000001800197e0     ConnectorManager.obj
 0002:00002808       $cppxdata$?toString@Bucket@agent@monitoring@ibmras@@QEAA?AV?$basic_string@DU?$char_traits@D@std@@V?$allocator@D@2@@std@@XZ 0000000180019808     Bucket.obj
 0002:00002830       $cppxdata$?republish@Bucket@agent@monitoring@ibmras@@QEAAXAEBV?$basic_string@DU?$char_traits@D@std@@V?$allocator@D@2@@std@@AEAVConnector@connector@34@@Z 0000000180019830     Bucket.obj
 0002:00002858       $cppxdata$?add@Bucket@agent@monitoring@ibmras@@QEAA_NPEAUmonitordata@@@Z 0000000180019858     Bucket.obj
 0002:00002880       $cppxdata$??_GBucketData@Bucket@agent@monitoring@ibmras@@UEAAPEAXI@Z 0000000180019880     Bucket.obj
 0002:000028a8       $cppxdata$??0Bucket@agent@monitoring@ibmras@@QEAA@IIIAEBV?$basic_string@DU?$char_traits@D@std@@V?$allocator@D@2@@std@@@Z 00000001800198a8     Bucket.obj
 0002:000028d0       $cppxdata$?getIDs@BucketList@agent@monitoring@ibmras@@QEAA?AV?$vector@V?$basic_string@DU?$char_traits@D@std@@V?$allocator@D@2@@std@@V?$allocator@V?$basic_string@DU?$char_traits@D@std@@V?$allocator@D@2@@std@@@2@@std@@XZ 00000001800198d0     BucketList.obj
 0002:000028f8       $cppxdata$?toString@BucketList@agent@monitoring@ibmras@@QEAA?AV?$basic_string@DU?$char_traits@D@std@@V?$allocator@D@2@@std@@XZ 00000001800198f8     BucketList.obj
 0002:00002920       $cppxdata$?add@BucketList@agent@monitoring@ibmras@@QEAA_NV?$vector@PEAVBucket@agent@monitoring@ibmras@@V?$allocator@PEAVBucket@agent@monitoring@ibmras@@@std@@@std@@@Z 0000000180019920     BucketList.obj
 0002:00002948       $cppxdata$?processLibrary@Plugin@monitoring@ibmras@@SAPEAV123@AEBV?$basic_string@DU?$char_traits@D@std@@V?$allocator@D@2@@std@@@Z 0000000180019948     Plugin.obj
 0002:00002970       $cppxdata$?scan@Plugin@monitoring@ibmras@@SA?AV?$vector@PEAVPlugin@monitoring@ibmras@@V?$allocator@PEAVPlugin@monitoring@ibmras@@@std@@@std@@AEBV?$basic_string@DU?$char_traits@D@std@@V?$allocator@D@2@@5@@Z 0000000180019970     Plugin.obj
 0002:00002998       $cppxdata$?sendMessage@ConfigurationConnector@connector@monitoring@ibmras@@UEAAHAEBV?$basic_string@DU?$char_traits@D@std@@V?$allocator@D@2@@std@@IPEAX@Z 0000000180019998     ConfigurationConnector.obj
 0002:000029c0       $cppxdata$?getConfig@ConfigurationConnector@connector@monitoring@ibmras@@QEAA?AV?$basic_string@DU?$char_traits@D@std@@V?$allocator@D@2@@std@@AEBV56@@Z 00000001800199c0     ConfigurationConnector.obj
 0002:000029e8       $cppxdata$??0ConfigurationConnector@connector@monitoring@ibmras@@QEAA@XZ 00000001800199e8     ConfigurationConnector.obj
 0002:000030f0       $unwind$??0Logger@common@ibmras@@QEAA@AEBV?$basic_string@DU?$char_traits@D@std@@V?$allocator@D@2@@std@@P6AX0W4loggingLevel@@PEAV012@@Z@Z 000000018001a0f0     Logger.obj
 0002:000030f0       $unwind$??_G?$basic_filebuf@DU?$char_traits@D@std@@@std@@UEAAPEAXI@Z 000000018001a0f0     PropertiesFile.obj
 0002:000030f0       $unwind$_RTC_Initialize    000000018001a0f0     MSVCRT:initsect.obj
 0002:000030f0       $unwind$_RTC_Terminate     000000018001a0f0     MSVCRT:initsect.obj
 0002:000030f0       $unwind$??4Logger@common@ibmras@@QEAAAEAV012@AEBV012@@Z 000000018001a0f0     Logger.obj
 0002:000030f0       $unwind$??_GSystemReceiver@agent@monitoring@ibmras@@UEAAPEAXI@Z 000000018001a0f0     SystemReceiver.obj
 0002:000030f0       $unwind$??0Logger@common@ibmras@@QEAA@AEBV012@@Z 000000018001a0f0     Logger.obj
 0002:000030f0       $unwind$??_G?$basic_stringbuf@DU?$char_traits@D@std@@V?$allocator@D@2@@std@@UEAAPEAXI@Z 000000018001a0f0     Logger.obj
 0002:000030f0       $unwind$??0Bucket@agent@monitoring@ibmras@@QEAA@AEBV0123@@Z 000000018001a0f0     Agent.obj
 0002:000030f0       $unwind$??_Gbad_alloc@std@@UEAAPEAXI@Z 000000018001a0f0     MSVCRT:throw_bad_alloc.obj
 0002:000030f0       $unwind$??4Bucket@agent@monitoring@ibmras@@QEAAAEAV0123@AEBV0123@@Z 000000018001a0f0     Agent.obj
 0002:000030f0       $unwind$??4Bucket@agent@monitoring@ibmras@@QEAAAEAV0123@$$QEAV0123@@Z 000000018001a0f0     Agent.obj
 0002:000030f0       $unwind$?pbackfail@?$basic_filebuf@DU?$char_traits@D@std@@@std@@MEAAHH@Z 000000018001a0f0     PropertiesFile.obj
 0002:000030f0       $unwind$??1ConfigurationConnector@connector@monitoring@ibmras@@UEAA@XZ 000000018001a0f0     ConfigurationConnector.obj
 0002:000030f0       $unwind$??_GPlugin@monitoring@ibmras@@UEAAPEAXI@Z 000000018001a0f0     SystemReceiver.obj
 0002:000030f0       $unwind$??_Gexception@std@@UEAAPEAXI@Z 000000018001a0f0     MSVCRT:throw_bad_alloc.obj
 0002:000030f0       $unwind$??4?$basic_string@DU?$char_traits@D@std@@V?$allocator@D@2@@std@@QEAAAEAV01@$$QEAV01@@Z 000000018001a0f0     LibraryUtils.obj
 0002:000030f0       $unwind$?imbue@?$basic_filebuf@DU?$char_traits@D@std@@@std@@MEAAXAEBVlocale@2@@Z 000000018001a0f0     PropertiesFile.obj
 0002:000030f0       $unwind$??_Gbad_array_new_length@std@@UEAAPEAXI@Z 000000018001a0f0     MSVCRT:throw_bad_alloc.obj
 0002:000030f0       $unwind$??4BucketList@agent@monitoring@ibmras@@QEAAAEAV0123@$$QEAV0123@@Z 000000018001a0f0     Agent.obj
 0002:000030f0       $unwind$??0Plugin@monitoring@ibmras@@QEAA@XZ 000000018001a0f0     Plugin.obj
 0002:000030f0       $unwind$??4LogManager@common@ibmras@@QEAAAEAV012@AEBV012@@Z 000000018001a0f0     LogManager.obj
 0002:000030f0       $unwind$?stopPlugins@Agent@agent@monitoring@ibmras@@AEAAXXZ 000000018001a0f0     Agent.obj
 0002:000030f0       $unwind$?startPlugins@Agent@agent@monitoring@ibmras@@AEAAXXZ 000000018001a0f0     Agent.obj
 0002:000030f0       $unwind$??_GReceivedMessage@ConnectorManager@connector@monitoring@ibmras@@UEAAPEAXI@Z 000000018001a0f0     Agent.obj
 0002:000030fc       $unwind$??_ELogger@common@ibmras@@UEAAPEAXI@Z 000000018001a0fc     Logger.obj
 0002:00003118       $ip2state$??_ELogger@common@ibmras@@UEAAPEAXI@Z 000000018001a118     Logger.obj
 0002:00003120       $unwind$?destroy@Lock@port@common@ibmras@@QEAAXXZ 000000018001a120     Lock.obj
 0002:00003120       $unwind$??0PropertiesFile@common@ibmras@@QEAA@AEBV012@@Z 000000018001a120     PropertiesFile.obj
 0002:00003120       $unwind$??0PropertiesFile@common@ibmras@@QEAA@$$QEAV012@@Z 000000018001a120     PropertiesFile.obj
 0002:00003120       $unwind$??1?$set@PEAVConnector@connector@monitoring@ibmras@@U?$less@PEAVConnector@connector@monitoring@ibmras@@@std@@V?$allocator@PEAVConnector@connector@monitoring@ibmras@@@6@@std@@QEAA@XZ 000000018001a120     Agent.obj
 0002:00003120       $unwind$??0Lock@port@common@ibmras@@QEAA@XZ 000000018001a120     Lock.obj
 0002:00003120       $unwind$?getID@ConfigurationConnector@connector@monitoring@ibmras@@UEAA?AV?$basic_string@DU?$char_traits@D@std@@V?$allocator@D@2@@std@@XZ 000000018001a120     Agent.obj
 0002:00003120       $unwind$?getConfig@Agent@agent@monitoring@ibmras@@QEAA?AV?$basic_string@DU?$char_traits@D@std@@V?$allocator@D@2@@std@@AEBV56@@Z 000000018001a120     Agent.obj
 0002:00003120       $unwind$??1ReceivedMessage@ConnectorManager@connector@monitoring@ibmras@@UEAA@XZ 000000018001a120     Agent.obj
 0002:00003120       $unwind$??_D?$basic_ifstream@DU?$char_traits@D@std@@@std@@QEAAXXZ 000000018001a120     PropertiesFile.obj
 0002:00003120       $unwind$?_Tidy@?$vector@PEAVLogger@common@ibmras@@V?$allocator@PEAVLogger@common@ibmras@@@std@@@std@@AEAAXXZ 000000018001a120     LogManager.obj
 0002:00003120       $unwind$__raise_securityfailure 000000018001a120     MSVCRT:gs_report.obj
 0002:00003120       $unwind$??1Plugin@monitoring@ibmras@@UEAA@XZ 000000018001a120     SystemReceiver.obj
 0002:00003120       $unwind$??1Lock@port@common@ibmras@@QEAA@XZ 000000018001a120     Lock.obj
 0002:00003120       $unwind$?wrapper@port@common@ibmras@@YAXPEAX@Z 000000018001a120     Thread.obj
 0002:00003120       $unwind$??4BucketList@agent@monitoring@ibmras@@QEAAAEAV0123@AEBV0123@@Z 000000018001a120     Agent.obj
 0002:00003120       $unwind$??0exception@std@@QEAA@AEBV01@@Z 000000018001a120     MSVCRT:throw_bad_alloc.obj
 0002:00003120       $unwind$?createThread@port@common@ibmras@@YA_KPEAVThreadData@123@@Z 000000018001a120     Thread.obj
 0002:00003120       $unwind$??2@YAPEAX_K@Z     000000018001a120     MSVCRT:new_scalar.obj
 0002:00003120       $unwind$?stop@Agent@agent@monitoring@ibmras@@QEAAXXZ 000000018001a120     Agent.obj
 0002:00003120       $unwind$??1BucketList@agent@monitoring@ibmras@@QEAA@XZ 000000018001a120     Agent.obj
 0002:00003120       $unwind$?sync@?$basic_filebuf@DU?$char_traits@D@std@@@std@@MEAAHXZ 000000018001a120     PropertiesFile.obj
 0002:00003120       $unwind$??1?$basic_stringbuf@DU?$char_traits@D@std@@V?$allocator@D@2@@std@@UEAA@XZ 000000018001a120     Logger.obj
 0002:00003120       $unwind$??0bad_alloc@std@@QEAA@AEBV01@@Z 000000018001a120     MSVCRT:throw_bad_alloc.obj
 0002:00003120       $unwind$??1PropertiesFile@common@ibmras@@UEAA@XZ 000000018001a120     PropertiesFile.obj
 0002:00003120       $unwind$?createAsciiString@util@common@ibmras@@YAPEADPEBD_N@Z 000000018001a120     strUtils.obj
 0002:00003120       $unwind$?getProperties@Agent@agent@monitoring@ibmras@@QEAA?AVProperties@common@4@XZ 000000018001a120     Agent.obj
 0002:00003120       $unwind$??_GMemoryManager@common@ibmras@@UEAAPEAXI@Z 000000018001a120     MemoryManager.obj
 0002:00003120       $unwind$?_Buy@?$vector@PEAVLogger@common@ibmras@@V?$allocator@PEAVLogger@common@ibmras@@@std@@@std@@AEAA_N_K@Z 000000018001a120     LogManager.obj
 0002:00003120       $unwind$??1Bucket@agent@monitoring@ibmras@@QEAA@XZ 000000018001a120     Agent.obj
 0002:00003120       $unwind$??0bad_array_new_length@std@@QEAA@AEBV01@@Z 000000018001a120     MSVCRT:throw_bad_alloc.obj
 0002:00003120       $unwind$??_GConnector@connector@monitoring@ibmras@@UEAAPEAXI@Z 000000018001a120     Agent.obj
 0002:00003120       $unwind$?deallocate@MemoryManager@common@ibmras@@UEAAXPEAPEAE@Z 000000018001a120     MemoryManager.obj
 0002:00003120       $unwind$?getAgentPropertyPrefix@Agent@agent@monitoring@ibmras@@QEAA?AV?$basic_string@DU?$char_traits@D@std@@V?$allocator@D@2@@std@@XZ 000000018001a120     Agent.obj
 0002:00003120       $unwind$?getID@Connector@connector@monitoring@ibmras@@UEAA?AV?$basic_string@DU?$char_traits@D@std@@V?$allocator@D@2@@std@@XZ 000000018001a120     Agent.obj
 0002:00003120       $unwind$??_GReceiver@connector@monitoring@ibmras@@UEAAPEAXI@Z 000000018001a120     Agent.obj
 0002:00003120       $unwind$?_Destroy_if_node@?$_Tree@V?$_Tmap_traits@V?$basic_string@DU?$char_traits@D@std@@V?$allocator@D@2@@std@@V12@U?$less@V?$basic_string@DU?$char_traits@D@std@@V?$allocator@D@2@@std@@@2@V?$allocator@U?$pair@$$CBV?$basic_string@DU?$char_traits@D@std@@V?$allocator@D@2@@std@@V12@@std@@@2@$0A@@std@@@std@@IEAAXPEAU?$_Tree_node@U?$pair@$$CBV?$basic_string@DU?$char_traits@D@std@@V?$allocator@D@2@@std@@V12@@std@@PEAX@2@@Z 000000018001a120     Properties.obj
 0002:00003120       $unwind$??1?$pair@$$CBV?$basic_string@DU?$char_traits@D@std@@V?$allocator@D@2@@std@@V12@@std@@QEAA@XZ 000000018001a120     Properties.obj
 0002:00003120       $unwind$??_Gtype_info@@UEAAPEAXI@Z 000000018001a120     MSVCRT:std_type_info_static.obj
 0002:00003120       $unwind$?underflow@?$basic_filebuf@DU?$char_traits@D@std@@@std@@MEAAHXZ 000000018001a120     PropertiesFile.obj
 0002:00003120       $unwind$?allocate@memory@common@ibmras@@YAPEAEI@Z 000000018001a120     MemoryManager.obj
 0002:00003120       $unwind$?deallocate@memory@common@ibmras@@YAXPEAPEAE@Z 000000018001a120     MemoryManager.obj
 0002:00003120       $unwind$_onexit            000000018001a120     MSVCRT:utility.obj
 0002:00003120       $unwind$__scrt_release_startup_lock 000000018001a120     MSVCRT:utility.obj
 0002:00003120       $unwind$__scrt_initialize_crt 000000018001a120     MSVCRT:utility.obj
 0002:00003120       $unwind$?_Buy@?$vector@PEAVBucket@agent@monitoring@ibmras@@V?$allocator@PEAVBucket@agent@monitoring@ibmras@@@std@@@std@@AEAA_N_K@Z 000000018001a120     Agent.obj
 0002:00003120       $unwind$?getVersion@Agent@agent@monitoring@ibmras@@SA?AV?$basic_string@DU?$char_traits@D@std@@V?$allocator@D@2@@std@@XZ 000000018001a120     Agent.obj
 0002:00003120       $unwind$??1?$vector@V?$basic_string@DU?$char_traits@D@std@@V?$allocator@D@2@@std@@V?$allocator@V?$basic_string@DU?$char_traits@D@std@@V?$allocator@D@2@@std@@@2@@std@@QEAA@XZ 000000018001a120     Properties.obj
 0002:00003120       $unwind$?createNativeString@util@common@ibmras@@YAPEADPEBD_N@Z 000000018001a120     strUtils.obj
 0002:00003120       $unwind$?getUniqueID@Bucket@agent@monitoring@ibmras@@QEAA?AV?$basic_string@DU?$char_traits@D@std@@V?$allocator@D@2@@std@@XZ 000000018001a120     Bucket.obj
 0002:00003120       $unwind$??1?$queue@VReceivedMessage@ConnectorManager@connector@monitoring@ibmras@@V?$deque@VReceivedMessage@ConnectorManager@connector@monitoring@ibmras@@V?$allocator@VReceivedMessage@ConnectorManager@connector@monitoring@ibmras@@@std@@@std@@@std@@QEAA@XZ 000000018001a120     Agent.obj
 0002:00003120       $unwind$?stop@WorkerThread@threads@agent@monitoring@ibmras@@QEAAXXZ 000000018001a120     WorkerThread.obj
 0002:00003120       $unwind$??1Properties@common@ibmras@@UEAA@XZ 000000018001a120     Properties.obj
 0002:00003120       $unwind$?_Tidy@?$vector@PEAVBucket@agent@monitoring@ibmras@@V?$allocator@PEAVBucket@agent@monitoring@ibmras@@@std@@@std@@AEAAXXZ 000000018001a120     Agent.obj
 0002:00003120       $unwind$__scrt_uninitialize_crt 000000018001a120     MSVCRT:utility.obj
 0002:00003120       $unwind$??1Logger@common@ibmras@@UEAA@XZ 000000018001a120     Logger.obj
 0002:00003120       $unwind$?_Facet_Register@std@@YAXPEAV_Facet_base@1@@Z 000000018001a120     msvcprt:locale0_implib.obj
 0002:00003120       $unwind$??1?$_Deque_alloc@U?$_Deque_base_types@VReceivedMessage@ConnectorManager@connector@monitoring@ibmras@@V?$allocator@VReceivedMessage@ConnectorManager@connector@monitoring@ibmras@@@std@@@std@@@std@@QEAA@XZ 000000018001a120     Agent.obj
 0002:00003120       $unwind$?_Buy@?$vector@PEAVPlugin@monitoring@ibmras@@V?$allocator@PEAVPlugin@monitoring@ibmras@@@std@@@std@@AEAA_N_K@Z 000000018001a120     Agent.obj
 0002:00003120       $unwind$?setLocalLog@Agent@agent@monitoring@ibmras@@QEAAX_N@Z 000000018001a120     Agent.obj
 0002:00003120       $unwind$?_Tidy@?$vector@PEAVPlugin@monitoring@ibmras@@V?$allocator@PEAVPlugin@monitoring@ibmras@@@std@@@std@@AEAAXXZ 000000018001a120     Agent.obj
 0002:00003120       $unwind$??1?$basic_string@DU?$char_traits@D@std@@V?$allocator@D@2@@std@@QEAA@XZ 000000018001a120     Logger.obj
 0002:00003120       $unwind$??1?$vector@PEAVPlugin@monitoring@ibmras@@V?$allocator@PEAVPlugin@monitoring@ibmras@@@std@@@std@@QEAA@XZ 000000018001a120     Agent.obj
 0002:00003120       $unwind$??1LogManager@common@ibmras@@QEAA@XZ 000000018001a120     LogManager.obj
 0002:00003120       $unwind$??_D?$basic_stringstream@DU?$char_traits@D@std@@V?$allocator@D@2@@std@@QEAAXXZ 000000018001a120     Logger.obj
 0002:00003120       $unwind$??1?$vector@PEAVBucket@agent@monitoring@ibmras@@V?$allocator@PEAVBucket@agent@monitoring@ibmras@@@std@@@std@@QEAA@XZ 000000018001a120     Agent.obj
 0002:00003120       $unwind$?getBuildDate@Agent@agent@monitoring@ibmras@@SA?AV?$basic_string@DU?$char_traits@D@std@@V?$allocator@D@2@@std@@XZ 000000018001a120     Agent.obj
 0002:00003128       $unwind$?header@Logger@common@ibmras@@AEAAXAEAV?$basic_stringstream@DU?$char_traits@D@std@@V?$allocator@D@2@@std@@W4loggingLevel@@_N@Z 000000018001a128     Logger.obj
 0002:00003148       $unwind$?log@Logger@common@ibmras@@QEAAXW4loggingLevel@@PEBDZZ 000000018001a148     Logger.obj
 0002:00003164       $stateUnwindMap$?logDebug@Logger@common@ibmras@@QEAAXW4loggingLevel@@PEBDZZ 000000018001a164     Logger.obj
 0002:00003164       $stateUnwindMap$?log@Logger@common@ibmras@@QEAAXW4loggingLevel@@PEBDZZ 000000018001a164     Logger.obj
 0002:00003188       $ip2state$?log@Logger@common@ibmras@@QEAAXW4loggingLevel@@PEBDZZ 000000018001a188     Logger.obj
 0002:000031c0       $unwind$?dtor$8@?0??receiveMessage@SystemReceiver@agent@monitoring@ibmras@@UEAAXAEBV?$basic_string@DU?$char_traits@D@std@@V?$allocator@D@2@@std@@IPEAX@Z@4HA 000000018001a1c0     SystemReceiver.obj
 0002:000031c0       $unwind$?dtor$3@?0??toString@Properties@common@ibmras@@UEAA?AV?$basic_string@DU?$char_traits@D@std@@V?$allocator@D@2@@std@@XZ@4HA 000000018001a1c0     Properties.obj
 0002:000031c0       $unwind$?dtor$2@?0??republish@Bucket@agent@monitoring@ibmras@@QEAAXAEBV?$basic_string@DU?$char_traits@D@std@@V?$allocator@D@2@@std@@AEAVConnector@connector@34@@Z@4HA 000000018001a1c0     Bucket.obj
 0002:000031c0       $unwind$?dtor$4@?0??logDebug@Logger@common@ibmras@@QEAAXW4loggingLevel@@PEBDZZ@4HA 000000018001a1c0     Logger.obj
 0002:000031c0       $unwind$?dtor$2@?0??add@Properties@common@ibmras@@UEAAXAEBV?$basic_string@DU?$char_traits@D@std@@V?$allocator@D@2@@std@@@Z@4HA 000000018001a1c0     Properties.obj
 0002:000031c0       $unwind$?dtor$1@?0???0Bucket@agent@monitoring@ibmras@@QEAA@IIIAEBV?$basic_string@DU?$char_traits@D@std@@V?$allocator@D@2@@std@@@Z@4HA 000000018001a1c0     Bucket.obj
 0002:000031c0       $unwind$?dtor$0@?0???0?$basic_ifstream@DU?$char_traits@D@std@@@std@@QEAA@PEBDHH@Z@4HA 000000018001a1c0     PropertiesFile.obj
 0002:000031c0       $unwind$?dtor$3@?0??add@Properties@common@ibmras@@UEAAXAEBV?$basic_string@DU?$char_traits@D@std@@V?$allocator@D@2@@std@@@Z@4HA 000000018001a1c0     Properties.obj
 0002:000031c0       $unwind$?dtor$0@?0??getIDs@BucketList@agent@monitoring@ibmras@@QEAA?AV?$vector@V?$basic_string@DU?$char_traits@D@std@@V?$allocator@D@2@@std@@V?$allocator@V?$basic_string@DU?$char_traits@D@std@@V?$allocator@D@2@@std@@@2@@std@@XZ@4HA 000000018001a1c0     BucketList.obj
 0002:000031c0       $unwind$?dtor$2@?0??split@util@common@ibmras@@YAAEAV?$vector@V?$basic_string@DU?$char_traits@D@std@@V?$allocator@D@2@@std@@V?$allocator@V?$basic_string@DU?$char_traits@D@std@@V?$allocator@D@2@@std@@@2@@std@@AEBV?$basic_string@DU?$char_traits@D@std@@V?$allocator@D@2@@5@DAEAV45@@Z@4HA 000000018001a1c0     strUtils.obj
 0002:000031c0       $unwind$?fin$0@?0???_M@YAXPEAX_K1P6AX0@Z@Z@4HA 000000018001a1c0     MSVCRT:ehvecdtr.obj
 0002:000031c0       $unwind$?dtor$0@?0??getKeys@Properties@common@ibmras@@UEAA?AV?$list@V?$basic_string@DU?$char_traits@D@std@@V?$allocator@D@2@@std@@V?$allocator@V?$basic_string@DU?$char_traits@D@std@@V?$allocator@D@2@@std@@@2@@std@@AEBV?$basic_string@DU?$char_traits@D@std@@V?$allocator@D@2@@5@@Z@4HA 000000018001a1c0     Properties.obj
 0002:000031c0       $unwind$?dtor$0@?0??add@Bucket@agent@monitoring@ibmras@@QEAA_NPEAUmonitordata@@@Z@4HA 000000018001a1c0     Bucket.obj
 0002:000031c0       $unwind$?dtor$43@?0??toString@Bucket@agent@monitoring@ibmras@@QEAA?AV?$basic_string@DU?$char_traits@D@std@@V?$allocator@D@2@@std@@XZ@4HA 000000018001a1c0     Bucket.obj
 0002:000031c0       $unwind$?dtor$0@?0???0?$basic_stringstream@DU?$char_traits@D@std@@V?$allocator@D@2@@std@@QEAA@H@Z@4HA 000000018001a1c0     Logger.obj
 0002:000031c0       $unwind$?dtor$4@?0??log@Logger@common@ibmras@@QEAAXW4loggingLevel@@PEBDZZ@4HA 000000018001a1c0     Logger.obj
 0002:000031c0       $unwind$?filt$0@?0??__ArrayUnwind@@YAXPEAX_K1P6AX0@Z@Z@4HA 000000018001a1c0     MSVCRT:ehvecdtr.obj
 0002:000031c0       $unwind$?dtor$7@?0??processPullSourceLoop@agent@monitoring@ibmras@@YAPEAXPEAVThreadData@port@common@3@@Z@4HA 000000018001a1c0     Agent.obj
 0002:000031c0       $unwind$?dtor$0@?0???__Einstance@agent@monitoring@ibmras@@YAXXZ@4HA 000000018001a1c0     Agent.obj
 0002:000031c0       $unwind$?dtor$1@?0??add@?$DataSourceList@Upullsource@@@agent@monitoring@ibmras@@QEAAXIPEAUpullsource@@V?$basic_string@DU?$char_traits@D@std@@V?$allocator@D@2@@std@@@Z@4HA 000000018001a1c0     Agent.obj
 0002:000031c0       $unwind$?dtor$5@?0??addPlugin@Agent@agent@monitoring@ibmras@@QEAAXAEBV?$basic_string@DU?$char_traits@D@std@@V?$allocator@D@2@@std@@V56@@Z@4HA 000000018001a1c0     Agent.obj
 0002:000031c0       $unwind$?fin$0@?0??dllmain_crt_process_attach@@YAHQEAUHINSTANCE__@@QEAX@Z@4HA 000000018001a1c0     MSVCRT:dll_dllmain.obj
 0002:000031c0       $unwind$?fin$0@?0??dllmain_crt_process_detach@@YAH_N@Z@4HA 000000018001a1c0     MSVCRT:dll_dllmain.obj
 0002:000031c0       $unwind$?dtor$0@?0??addSystemPlugins@Agent@agent@monitoring@ibmras@@AEAAXXZ@4HA 000000018001a1c0     Agent.obj
 0002:000031c0       $unwind$?dtor$19@?0??toString@?$DataSource@Upushsource@@@agent@monitoring@ibmras@@QEAA?AV?$basic_string@DU?$char_traits@D@std@@V?$allocator@D@2@@std@@XZ@4HA 000000018001a1c0     Agent.obj
 0002:000031c0       $unwind$?dtor$1@?0??getInstance@LogManager@common@ibmras@@SAPEAV123@XZ@4HA 000000018001a1c0     LogManager.obj
 0002:000031c0       $unwind$?dtor$19@?0??toString@?$DataSource@Upullsource@@@agent@monitoring@ibmras@@QEAA?AV?$basic_string@DU?$char_traits@D@std@@V?$allocator@D@2@@std@@XZ@4HA 000000018001a1c0     Agent.obj
 0002:000031c0       $unwind$?dtor$0@?0??getConfig@ConfigurationConnector@connector@monitoring@ibmras@@QEAA?AV?$basic_string@DU?$char_traits@D@std@@V?$allocator@D@2@@std@@AEBV56@@Z@4HA 000000018001a1c0     ConfigurationConnector.obj
 0002:000031c0       $unwind$?dtor$0@?0??getLogger@LogManager@common@ibmras@@SAPEAVLogger@23@AEBV?$basic_string@DU?$char_traits@D@std@@V?$allocator@D@2@@std@@@Z@4HA 000000018001a1c0     LogManager.obj
 0002:000031c0       $unwind$?dtor$11@?0??init@Agent@agent@monitoring@ibmras@@QEAAXXZ@4HA 000000018001a1c0     Agent.obj
 0002:000031c0       $unwind$?dtor$10@?0??processLibrary@Plugin@monitoring@ibmras@@SAPEAV123@AEBV?$basic_string@DU?$char_traits@D@std@@V?$allocator@D@2@@std@@@Z@4HA 000000018001a1c0     Plugin.obj
 0002:000031c0       $unwind$?dtor$0@?0??getBuckets@?$DataSourceList@Upushsource@@@agent@monitoring@ibmras@@QEAA?AV?$vector@PEAVBucket@agent@monitoring@ibmras@@V?$allocator@PEAVBucket@agent@monitoring@ibmras@@@std@@@std@@XZ@4HA 000000018001a1c0     Agent.obj
 0002:000031c0       $unwind$?dtor$1@?0??getBuckets@?$DataSourceList@Upushsource@@@agent@monitoring@ibmras@@QEAA?AV?$vector@PEAVBucket@agent@monitoring@ibmras@@V?$allocator@PEAVBucket@agent@monitoring@ibmras@@@std@@@std@@XZ@4HA 000000018001a1c0     Agent.obj
 0002:000031c0       $unwind$?dtor$2@?0??getBuckets@?$DataSourceList@Upushsource@@@agent@monitoring@ibmras@@QEAA?AV?$vector@PEAVBucket@agent@monitoring@ibmras@@V?$allocator@PEAVBucket@agent@monitoring@ibmras@@@std@@@std@@XZ@4HA 000000018001a1c0     Agent.obj
 0002:000031c0       $unwind$?dtor$16@?0??toString@?$DataSourceList@Upushsource@@@agent@monitoring@ibmras@@QEAA?AV?$basic_string@DU?$char_traits@D@std@@V?$allocator@D@2@@std@@XZ@4HA 000000018001a1c0     Agent.obj
 0002:000031c0       $unwind$?dtor$1@?0??add@?$DataSourceList@Upushsource@@@agent@monitoring@ibmras@@QEAAXIPEAUpushsource@@V?$basic_string@DU?$char_traits@D@std@@V?$allocator@D@2@@std@@@Z@4HA 000000018001a1c0     Agent.obj
 0002:000031c0       $unwind$?dtor$0@?0??getBuckets@?$DataSourceList@Upullsource@@@agent@monitoring@ibmras@@QEAA?AV?$vector@PEAVBucket@agent@monitoring@ibmras@@V?$allocator@PEAVBucket@agent@monitoring@ibmras@@@std@@@std@@XZ@4HA 000000018001a1c0     Agent.obj
 0002:000031c0       $unwind$?dtor$1@?0??getBuckets@?$DataSourceList@Upullsource@@@agent@monitoring@ibmras@@QEAA?AV?$vector@PEAVBucket@agent@monitoring@ibmras@@V?$allocator@PEAVBucket@agent@monitoring@ibmras@@@std@@@std@@XZ@4HA 000000018001a1c0     Agent.obj
 0002:000031c0       $unwind$?dtor$2@?0??getBuckets@?$DataSourceList@Upullsource@@@agent@monitoring@ibmras@@QEAA?AV?$vector@PEAVBucket@agent@monitoring@ibmras@@V?$allocator@PEAVBucket@agent@monitoring@ibmras@@@std@@@std@@XZ@4HA 000000018001a1c0     Agent.obj
 0002:000031c0       $unwind$?dtor$16@?0??toString@?$DataSourceList@Upullsource@@@agent@monitoring@ibmras@@QEAA?AV?$basic_string@DU?$char_traits@D@std@@V?$allocator@D@2@@std@@XZ@4HA 000000018001a1c0     Agent.obj
 0002:000031c0       $unwind$?dtor$8@?0??toString@BucketList@agent@monitoring@ibmras@@QEAA?AV?$basic_string@DU?$char_traits@D@std@@V?$allocator@D@2@@std@@XZ@4HA 000000018001a1c0     BucketList.obj
 0002:000031c8       $unwind$?logDebug@Logger@common@ibmras@@QEAAXW4loggingLevel@@PEBDZZ 000000018001a1c8     Logger.obj
 0002:000031e8       $ip2state$?logDebug@Logger@common@ibmras@@QEAAXW4loggingLevel@@PEBDZZ 000000018001a1e8     Logger.obj
 0002:00003220       $unwind$??0?$basic_string@DU?$char_traits@D@std@@V?$allocator@D@2@@std@@QEAA@AEBV01@@Z 000000018001a220     Logger.obj
 0002:00003234       $unwind$??0?$basic_stringstream@DU?$char_traits@D@std@@V?$allocator@D@2@@std@@QEAA@H@Z 000000018001a234     Logger.obj
 0002:00003248       $stateUnwindMap$??0?$basic_stringstream@DU?$char_traits@D@std@@V?$allocator@D@2@@std@@QEAA@H@Z 000000018001a248     Logger.obj
 0002:00003258       $ip2state$??0?$basic_stringstream@DU?$char_traits@D@std@@V?$allocator@D@2@@std@@QEAA@H@Z 000000018001a258     Logger.obj
 0002:00003270       $unwind$?seekpos@?$basic_stringbuf@DU?$char_traits@D@std@@V?$allocator@D@2@@std@@MEAA?AV?$fpos@U_Mbstatet@@@2@V32@H@Z 000000018001a270     Logger.obj
 0002:00003284       $unwind$?seekoff@?$basic_stringbuf@DU?$char_traits@D@std@@V?$allocator@D@2@@std@@MEAA?AV?$fpos@U_Mbstatet@@@2@_JHH@Z 000000018001a284     Logger.obj
 0002:0000329c       $unwind$?overflow@?$basic_stringbuf@DU?$char_traits@D@std@@V?$allocator@D@2@@std@@MEAAHH@Z 000000018001a29c     Logger.obj
 0002:000032b8       $unwind$?_Tidy@?$deque@VReceivedMessage@ConnectorManager@connector@monitoring@ibmras@@V?$allocator@VReceivedMessage@ConnectorManager@connector@monitoring@ibmras@@@std@@@std@@IEAAXXZ 000000018001a2b8     Agent.obj
 0002:000032b8       $unwind$?processReceivedMessage@ConnectorManager@connector@monitoring@ibmras@@AEAAXAEBVReceivedMessage@1234@@Z 000000018001a2b8     ConnectorManager.obj
 0002:000032b8       $unwind$?setLevel@LogManager@common@ibmras@@QEAAXAEBV?$basic_string@DU?$char_traits@D@std@@V?$allocator@D@2@@std@@W4loggingLevel@@@Z 000000018001a2b8     LogManager.obj
 0002:000032b8       $unwind$?stop@ConnectorManager@connector@monitoring@ibmras@@UEAAHXZ 000000018001a2b8     ConnectorManager.obj
 0002:000032b8       $unwind$??$_Copy@U_Copy_tag@?$_Tree@V?$_Tmap_traits@V?$basic_string@DU?$char_traits@D@std@@V?$allocator@D@2@@std@@V12@U?$less@V?$basic_string@DU?$char_traits@D@std@@V?$allocator@D@2@@std@@@2@V?$allocator@U?$pair@$$CBV?$basic_string@DU?$char_traits@D@std@@V?$allocator@D@2@@std@@V12@@std@@@2@$0A@@std@@@std@@@?$_Tree@V?$_Tmap_traits@V?$basic_string@DU?$char_traits@D@std@@V?$allocator@D@2@@std@@V12@U?$less@V?$basic_string@DU?$char_traits@D@std@@V?$allocator@D@2@@std@@@2@V?$allocator@U?$pair@$$CBV?$basic_string@DU?$char_traits@D@std@@V?$allocator@D@2@@std@@V12@@std@@@2@$0A@@std@@@std@@IEAAXAEBV01@U_Copy_tag@01@@Z 000000018001a2b8     Properties.obj
 0002:000032b8       $unwind$?add@Properties@common@ibmras@@UEAAXAEBV123@@Z 000000018001a2b8     Properties.obj
 0002:000032b8       $unwind$?_Erase@?$_Tree@V?$_Tset_traits@PEAVReceiver@connector@monitoring@ibmras@@U?$less@PEAVReceiver@connector@monitoring@ibmras@@@std@@V?$allocator@PEAVReceiver@connector@monitoring@ibmras@@@6@$0A@@std@@@std@@IEAAXPEAU?$_Tree_node@PEAVReceiver@connector@monitoring@ibmras@@PEAX@2@@Z 000000018001a2b8     Agent.obj
 0002:000032b8       $unwind$??_G?$basic_ifstream@DU?$char_traits@D@std@@@std@@UEAAPEAXI@Z 000000018001a2b8     PropertiesFile.obj
 0002:000032b8       $unwind$?_Erase@?$_Tree@V?$_Tset_traits@PEAVConnector@connector@monitoring@ibmras@@U?$less@PEAVConnector@connector@monitoring@ibmras@@@std@@V?$allocator@PEAVConnector@connector@monitoring@ibmras@@@6@$0A@@std@@@std@@IEAAXPEAU?$_Tree_node@PEAVConnector@connector@monitoring@ibmras@@PEAX@2@@Z 000000018001a2b8     Agent.obj
 0002:000032b8       $unwind$??$_Copy@U_Copy_tag@?$_Tree@V?$_Tset_traits@PEAVReceiver@connector@monitoring@ibmras@@U?$less@PEAVReceiver@connector@monitoring@ibmras@@@std@@V?$allocator@PEAVReceiver@connector@monitoring@ibmras@@@6@$0A@@std@@@std@@@?$_Tree@V?$_Tset_traits@PEAVReceiver@connector@monitoring@ibmras@@U?$less@PEAVReceiver@connector@monitoring@ibmras@@@std@@V?$allocator@PEAVReceiver@connector@monitoring@ibmras@@@6@$0A@@std@@@std@@IEAAXAEBV01@U_Copy_tag@01@@Z 000000018001a2b8     Agent.obj
 0002:000032b8       $unwind$_DllMainCRTStartup 000000018001a2b8     MSVCRT:dll_dllmain.obj
 0002:000032b8       $unwind$?publish@BucketList@agent@monitoring@ibmras@@QEAAXAEAVConnector@connector@34@@Z 000000018001a2b8     BucketList.obj
 0002:000032b8       $unwind$?_Erase@?$_Tree@V?$_Tmap_traits@V?$basic_string@DU?$char_traits@D@std@@V?$allocator@D@2@@std@@V12@U?$less@V?$basic_string@DU?$char_traits@D@std@@V?$allocator@D@2@@std@@@2@V?$allocator@U?$pair@$$CBV?$basic_string@DU?$char_traits@D@std@@V?$allocator@D@2@@std@@V12@@std@@@2@$0A@@std@@@std@@IEAAXPEAU?$_Tree_node@U?$pair@$$CBV?$basic_string@DU?$char_traits@D@std@@V?$allocator@D@2@@std@@V12@@std@@PEAX@2@@Z 000000018001a2b8     Properties.obj
 0002:000032b8       $unwind$??$_Copy@U_Copy_tag@?$_Tree@V?$_Tset_traits@PEAVConnector@connector@monitoring@ibmras@@U?$less@PEAVConnector@connector@monitoring@ibmras@@@std@@V?$allocator@PEAVConnector@connector@monitoring@ibmras@@@6@$0A@@std@@@std@@@?$_Tree@V?$_Tset_traits@PEAVConnector@connector@monitoring@ibmras@@U?$less@PEAVConnector@connector@monitoring@ibmras@@@std@@V?$allocator@PEAVConnector@connector@monitoring@ibmras@@@6@$0A@@std@@@std@@IEAAXAEBV01@U_Copy_tag@01@@Z 000000018001a2b8     Agent.obj
 0002:000032b8       $unwind$??_G?$basic_stringstream@DU?$char_traits@D@std@@V?$allocator@D@2@@std@@UEAAPEAXI@Z 000000018001a2b8     Logger.obj
 0002:000032c8       $unwind$?assign@?$basic_string@DU?$char_traits@D@std@@V?$allocator@D@2@@std@@QEAAAEAV12@QEBD_K@Z 000000018001a2c8     Logger.obj
 0002:000032dc       $chain$0$?assign@?$basic_string@DU?$char_traits@D@std@@V?$allocator@D@2@@std@@QEAAAEAV12@QEBD_K@Z 000000018001a2dc     Logger.obj
 0002:000032f0       $chain$1$?assign@?$basic_string@DU?$char_traits@D@std@@V?$allocator@D@2@@std@@QEAAAEAV12@QEBD_K@Z 000000018001a2f0     Logger.obj
 0002:000032f0       $chain$3$?assign@?$basic_string@DU?$char_traits@D@std@@V?$allocator@D@2@@std@@QEAAAEAV12@QEBD_K@Z 000000018001a2f0     Logger.obj
 0002:00003300       $chain$2$?assign@?$basic_string@DU?$char_traits@D@std@@V?$allocator@D@2@@std@@QEAAAEAV12@QEBD_K@Z 000000018001a300     Logger.obj
 0002:00003314       $unwind$??$?6U?$char_traits@D@std@@@std@@YAAEAV?$basic_ostream@DU?$char_traits@D@std@@@0@AEAV10@PEBD@Z 000000018001a314     Logger.obj
 0002:00003334       $stateUnwindMap$??$?6U?$char_traits@D@std@@@std@@YAAEAV?$basic_ostream@DU?$char_traits@D@std@@@0@AEAV10@PEBD@Z 000000018001a334     Logger.obj
 0002:00003334       $stateUnwindMap$??$_Insert_string@DU?$char_traits@D@std@@_K@std@@YAAEAV?$basic_ostream@DU?$char_traits@D@std@@@0@AEAV10@QEBD_K@Z 000000018001a334     Logger.obj
 0002:00003334       $stateUnwindMap$??$?6U?$char_traits@D@std@@@std@@YAAEAV?$basic_ostream@DU?$char_traits@D@std@@@0@AEAV10@D@Z 000000018001a334     Logger.obj
 0002:00003358       $ip2state$??$?6U?$char_traits@D@std@@@std@@YAAEAV?$basic_ostream@DU?$char_traits@D@std@@@0@AEAV10@PEBD@Z 000000018001a358     Logger.obj
 0002:00003388       $unwind$??$?6U?$char_traits@D@std@@@std@@YAAEAV?$basic_ostream@DU?$char_traits@D@std@@@0@AEAV10@D@Z 000000018001a388     Logger.obj
 0002:000033a8       $ip2state$??$?6U?$char_traits@D@std@@@std@@YAAEAV?$basic_ostream@DU?$char_traits@D@std@@@0@AEAV10@D@Z 000000018001a3a8     Logger.obj
 0002:000033d8       $unwind$??1sentry@?$basic_ostream@DU?$char_traits@D@std@@@std@@QEAA@XZ 000000018001a3d8     Logger.obj
 0002:000033e8       $stateUnwindMap$??$_Reverse_unchecked@V?$_Deque_unchecked_iterator@V?$_Deque_val@U?$_Deque_simple_types@VReceivedMessage@ConnectorManager@connector@monitoring@ibmras@@@std@@@std@@@std@@@std@@YAXV?$_Deque_unchecked_iterator@V?$_Deque_val@U?$_Deque_simple_types@VReceivedMessage@ConnectorManager@connector@monitoring@ibmras@@@std@@@std@@@0@0@Z 000000018001a3e8     Agent.obj
 0002:000033e8       $stateUnwindMap$??_GBucketData@Bucket@agent@monitoring@ibmras@@UEAAPEAXI@Z 000000018001a3e8     Bucket.obj
 0002:000033e8       $stateUnwindMap$??1_Fac_tidy_reg_t@std@@QEAA@XZ 000000018001a3e8     msvcprt:locale0_implib.obj
 0002:000033e8       $stateUnwindMap$??1sentry@?$basic_ostream@DU?$char_traits@D@std@@@std@@QEAA@XZ 000000018001a3e8     Logger.obj
 0002:000033e8       $stateUnwindMap$??1sentry@?$basic_istream@DU?$char_traits@D@std@@@std@@QEAA@XZ 000000018001a3e8     PropertiesFile.obj
 0002:000033e8       $stateUnwindMap$??1ThreadPool@threads@agent@monitoring@ibmras@@QEAA@XZ 000000018001a3e8     ThreadPool.obj
 0002:000033e8       $stateUnwindMap$??1?$unique_ptr@V_Facet_base@std@@U?$default_delete@V_Facet_base@std@@@2@@std@@QEAA@XZ 000000018001a3e8     PropertiesFile.obj
 0002:000033f0       $ip2state$??1sentry@?$basic_ostream@DU?$char_traits@D@std@@@std@@QEAA@XZ 000000018001a3f0     Logger.obj
 0002:00003400       $unwind$?acquire@Lock@port@common@ibmras@@QEAAHXZ 000000018001a400     Lock.obj
 0002:00003400       $unwind$DllMain            000000018001a400     MSVCRT:dll_dllmain_stub.obj
 0002:00003400       $unwind$__scrt_dllmain_before_initialize_c 000000018001a400     MSVCRT:utility.obj
 0002:00003400       $unwind$?processMsg@LogManager@common@ibmras@@AEAAXAEBV?$basic_string@DU?$char_traits@D@std@@V?$allocator@D@2@@std@@@Z 000000018001a400     LogManager.obj
 0002:00003400       $unwind$?release@Lock@port@common@ibmras@@QEAAHXZ 000000018001a400     Lock.obj
 0002:00003400       $unwind$??__Epluginlogger@agent@monitoring@ibmras@@YAXXZ 000000018001a400     Agent.obj
 0002:00003400       $unwind$??__Elogger@port@common@ibmras@@YAXXZ 000000018001a400     Thread.obj
 0002:00003400       $unwind$??__Elogger@monitoring@ibmras@@YAXXZ 000000018001a400     Plugin.obj
 0002:00003400       $unwind$__scrt_dllmain_after_initialize_c 000000018001a400     MSVCRT:utility.obj
 0002:00003400       $unwind$?_Xlength@?$vector@PEAVLogger@common@ibmras@@V?$allocator@PEAVLogger@common@ibmras@@@std@@@std@@CAXXZ 000000018001a400     LogManager.obj
 0002:00003400       $unwind$??__ECONFIGURATION_TOPIC@connector@monitoring@ibmras@@YAXXZ 000000018001a400     ConfigurationConnector.obj
 0002:00003400       $unwind$ibmras_getSystemReceiver 000000018001a400     SystemReceiver.obj
 0002:00003400       $unwind$??__Elogger@agent@monitoring@ibmras@@YAXXZ 000000018001a400     Agent.obj
 0002:00003400       $unwind$??__Ecorelogger@agent@monitoring@ibmras@@YAXXZ 000000018001a400     Agent.obj
 0002:00003400       $unwind$?_Xran@?$_String_val@U?$_Simple_types@D@std@@@std@@SAXXZ 000000018001a400     LibraryUtils.obj
 0002:00003400       $unwind$?cleanUp@WorkerThread@threads@agent@monitoring@ibmras@@SAPEAXPEAVThreadData@port@common@5@@Z 000000018001a400     WorkerThread.obj
 0002:00003400       $unwind$??__FCONFIGURATION_TOPIC@connector@monitoring@ibmras@@YAXXZ 000000018001a400     ConfigurationConnector.obj
 0002:00003400       $unwind$?_Xlength@?$vector@V?$basic_string@DU?$char_traits@D@std@@V?$allocator@D@2@@std@@V?$allocator@V?$basic_string@DU?$char_traits@D@std@@V?$allocator@D@2@@std@@@2@@std@@CAXXZ 000000018001a400     strUtils.obj
 0002:00003400       $unwind$?removeReceiver@ConnectorManager@connector@monitoring@ibmras@@QEAAXPEAVReceiver@234@@Z 000000018001a400     ConnectorManager.obj
 0002:00003400       $unwind$?removeConnector@Agent@agent@monitoring@ibmras@@QEAAXPEAVConnector@connector@34@@Z 000000018001a400     Agent.obj
 0002:00003400       $unwind$__scrt_dllmain_uninitialize_c 000000018001a400     MSVCRT:utility.obj
 0002:00003400       $unwind$__scrt_acquire_startup_lock 000000018001a400     MSVCRT:utility.obj
 0002:00003400       $unwind$?_Xlength@?$vector@PEAVPlugin@monitoring@ibmras@@V?$allocator@PEAVPlugin@monitoring@ibmras@@@std@@@std@@CAXXZ 000000018001a400     Agent.obj
 0002:00003400       $unwind$?endPullSourceLoop@agent@monitoring@ibmras@@YAPEAXPEAVThreadData@port@common@3@@Z 000000018001a400     Agent.obj
 0002:00003400       $unwind$??__Elogger@common@ibmras@@YAXXZ 000000018001a400     MemoryManager.obj
 0002:00003400       $unwind$??__Elogger@bucket@agent@monitoring@ibmras@@YAXXZ 000000018001a400     Bucket.obj
 0002:00003400       $unwind$?_Xlen@?$deque@VReceivedMessage@ConnectorManager@connector@monitoring@ibmras@@V?$allocator@VReceivedMessage@ConnectorManager@connector@monitoring@ibmras@@@std@@@std@@IEBAXXZ 000000018001a400     Agent.obj
 0002:00003400       $unwind$??__Elogger@threads@agent@monitoring@ibmras@@YAXXZ 000000018001a400     ThreadPool.obj
 0002:00003400       $unwind$__scrt_dllmain_uninitialize_critical 000000018001a400     MSVCRT:utility.obj
 0002:00003400       $unwind$?_Xlen@?$basic_string@DU?$char_traits@D@std@@V?$allocator@D@2@@std@@SAXXZ 000000018001a400     Logger.obj
 0002:00003400       $unwind$?dllmain_crt_dispatch@@YAHQEAUHINSTANCE__@@KQEAX@Z 000000018001a400     MSVCRT:dll_dllmain.obj
 0002:00003400       $unwind$atexit             000000018001a400     MSVCRT:utility.obj
 0002:00003400       $unwind$__scrt_dllmain_crt_thread_attach 000000018001a400     MSVCRT:utility.obj
 0002:00003400       $unwind$__scrt_initialize_default_local_stdio_options 000000018001a400     MSVCRT:default_local_stdio_options.obj
 0002:00003400       $unwind$loader_entrypoint  000000018001a400     Agent.obj
 0002:00003400       $unwind$??__Elogger@locking@port@common@ibmras@@YAXXZ 000000018001a400     Lock.obj
 0002:00003400       $unwind$__scrt_dllmain_crt_thread_detach 000000018001a400     MSVCRT:utility.obj
 0002:00003400       $unwind$?processThread@ConnectorManager@connector@monitoring@ibmras@@CAPEAXPEAVThreadData@port@common@4@@Z 000000018001a400     ConnectorManager.obj
 0002:00003400       $unwind$?_Xlength@?$vector@PEAVBucket@agent@monitoring@ibmras@@V?$allocator@PEAVBucket@agent@monitoring@ibmras@@@std@@@std@@CAXXZ 000000018001a400     Agent.obj
 0002:00003400       $unwind$?removeConnector@ConnectorManager@connector@monitoring@ibmras@@QEAAXPEAVConnector@234@@Z 000000018001a400     ConnectorManager.obj
 0002:00003400       $unwind$?_Xlength@?$vector@PEAVWorkerThread@threads@agent@monitoring@ibmras@@V?$allocator@PEAVWorkerThread@threads@agent@monitoring@ibmras@@@std@@@std@@CAXXZ 000000018001a400     ThreadPool.obj
 0002:00003400       $unwind$?msgHandler@LogManager@common@ibmras@@SAXAEBV?$basic_string@DU?$char_traits@D@std@@V?$allocator@D@2@@std@@W4loggingLevel@@PEAVLogger@23@@Z 000000018001a400     LogManager.obj
 0002:00003400       $unwind$__GSHandlerCheck   000000018001a400     MSVCRT:gshandler.obj
 0002:00003408       $unwind$??1_Sentry_base@?$basic_istream@DU?$char_traits@D@std@@@std@@QEAA@XZ 000000018001a408     PropertiesFile.obj
 0002:00003408       $unwind$??1_Sentry_base@?$basic_ostream@DU?$char_traits@D@std@@@std@@QEAA@XZ 000000018001a408     Logger.obj
 0002:00003418       $ip2state$??1_Sentry_base@?$basic_ostream@DU?$char_traits@D@std@@@std@@QEAA@XZ 000000018001a418     Logger.obj
 0002:00003418       $ip2state$??1_Sentry_base@?$basic_istream@DU?$char_traits@D@std@@@std@@QEAA@XZ 000000018001a418     PropertiesFile.obj
 0002:00003420       $unwind$??$_Insert_string@DU?$char_traits@D@std@@_K@std@@YAAEAV?$basic_ostream@DU?$char_traits@D@std@@@0@AEAV10@QEBD_K@Z 000000018001a420     Logger.obj
 0002:00003440       $ip2state$??$_Insert_string@DU?$char_traits@D@std@@_K@std@@YAAEAV?$basic_ostream@DU?$char_traits@D@std@@@0@AEAV10@QEBD_K@Z 000000018001a440     Logger.obj
 0002:00003470       $unwind$??0LogManager@common@ibmras@@QEAA@AEBV012@@Z 000000018001a470     LogManager.obj
 0002:00003480       $chain$1$??0LogManager@common@ibmras@@QEAA@AEBV012@@Z 000000018001a480     LogManager.obj
 0002:00003498       $chain$2$??0LogManager@common@ibmras@@QEAA@AEBV012@@Z 000000018001a498     LogManager.obj
 0002:000034a8       $unwind$?erase@?$_Tree@V?$_Tset_traits@PEAVReceiver@connector@monitoring@ibmras@@U?$less@PEAVReceiver@connector@monitoring@ibmras@@@std@@V?$allocator@PEAVReceiver@connector@monitoring@ibmras@@@6@$0A@@std@@@std@@QEAA?AV?$_Tree_const_iterator@V?$_Tree_val@U?$_Tree_simple_types@PEAVReceiver@connector@monitoring@ibmras@@@std@@@std@@@2@V32@0@Z 000000018001a4a8     Agent.obj
 0002:000034a8       $unwind$??4LogManager@common@ibmras@@QEAAAEAV012@$$QEAV012@@Z 000000018001a4a8     LogManager.obj
 0002:000034a8       $unwind$??$_Insert_at@AEBQEAVReceiver@connector@monitoring@ibmras@@U_Not_a_node_tag@std@@@?$_Tree@V?$_Tset_traits@PEAVReceiver@connector@monitoring@ibmras@@U?$less@PEAVReceiver@connector@monitoring@ibmras@@@std@@V?$allocator@PEAVReceiver@connector@monitoring@ibmras@@@6@$0A@@std@@@std@@IEAA?AV?$_Tree_const_iterator@V?$_Tree_val@U?$_Tree_simple_types@PEAVReceiver@connector@monitoring@ibmras@@@std@@@std@@@1@_NPEAU?$_Tree_node@PEAVReceiver@connector@monitoring@ibmras@@PEAX@1@AEBQEAVReceiver@connector@monitoring@ibmras@@U_Not_a_node_tag@1@@Z 000000018001a4a8     ConnectorManager.obj
 0002:000034a8       $unwind$?erase@?$_Tree@V?$_Tset_traits@PEAVConnector@connector@monitoring@ibmras@@U?$less@PEAVConnector@connector@monitoring@ibmras@@@std@@V?$allocator@PEAVConnector@connector@monitoring@ibmras@@@6@$0A@@std@@@std@@QEAA?AV?$_Tree_const_iterator@V?$_Tree_val@U?$_Tree_simple_types@PEAVConnector@connector@monitoring@ibmras@@@std@@@std@@@2@V32@0@Z 000000018001a4a8     Agent.obj
 0002:000034a8       $unwind$??$_Insert_at@AEBQEAVConnector@connector@monitoring@ibmras@@U_Not_a_node_tag@std@@@?$_Tree@V?$_Tset_traits@PEAVConnector@connector@monitoring@ibmras@@U?$less@PEAVConnector@connector@monitoring@ibmras@@@std@@V?$allocator@PEAVConnector@connector@monitoring@ibmras@@@6@$0A@@std@@@std@@IEAA?AV?$_Tree_const_iterator@V?$_Tree_val@U?$_Tree_simple_types@PEAVConnector@connector@monitoring@ibmras@@@std@@@std@@@1@_NPEAU?$_Tree_node@PEAVConnector@connector@monitoring@ibmras@@PEAX@1@AEBQEAVConnector@connector@monitoring@ibmras@@U_Not_a_node_tag@1@@Z 000000018001a4a8     ConnectorManager.obj
 0002:000034bc       $unwind$ibmras_common_LogManager_getLogger 000000018001a4bc     LogManager.obj
 0002:000034bc       $unwind$getVersionWrapper  000000018001a4bc     Agent.obj
 0002:000034cc       $unwind$?getInstance@LogManager@common@ibmras@@SAPEAV123@XZ 000000018001a4cc     LogManager.obj
 0002:000034dc       $stateUnwindMap$?getInstance@LogManager@common@ibmras@@SAPEAV123@XZ 000000018001a4dc     LogManager.obj
 0002:000034e8       $ip2state$?getInstance@LogManager@common@ibmras@@SAPEAV123@XZ 000000018001a4e8     LogManager.obj
 0002:00003500       $unwind$?getLogger@LogManager@common@ibmras@@SAPEAVLogger@23@AEBV?$basic_string@DU?$char_traits@D@std@@V?$allocator@D@2@@std@@@Z 000000018001a500     LogManager.obj
 0002:00003518       $stateUnwindMap$?getLogger@LogManager@common@ibmras@@SAPEAVLogger@23@AEBV?$basic_string@DU?$char_traits@D@std@@V?$allocator@D@2@@std@@@Z 000000018001a518     LogManager.obj
 0002:00003520       $ip2state$?getLogger@LogManager@common@ibmras@@SAPEAVLogger@23@AEBV?$basic_string@DU?$char_traits@D@std@@V?$allocator@D@2@@std@@@Z 000000018001a520     LogManager.obj
 0002:00003538       $unwind$?setLevel@LogManager@common@ibmras@@QEAAXAEBV?$basic_string@DU?$char_traits@D@std@@V?$allocator@D@2@@std@@0@Z 000000018001a538     LogManager.obj
 0002:00003550       $chain$0$?setLevel@LogManager@common@ibmras@@QEAAXAEBV?$basic_string@DU?$char_traits@D@std@@V?$allocator@D@2@@std@@0@Z 000000018001a550     LogManager.obj
 0002:00003564       $chain$1$?setLevel@LogManager@common@ibmras@@QEAAXAEBV?$basic_string@DU?$char_traits@D@std@@V?$allocator@D@2@@std@@0@Z 000000018001a564     LogManager.obj
 0002:00003574       $unwind$??4?$vector@PEAVBucket@agent@monitoring@ibmras@@V?$allocator@PEAVBucket@agent@monitoring@ibmras@@@std@@@std@@QEAAAEAV01@AEBV01@@Z 000000018001a574     Agent.obj
 0002:00003574       $unwind$?findLogger@LogManager@common@ibmras@@AEAAPEAVLogger@23@AEBV?$basic_string@DU?$char_traits@D@std@@V?$allocator@D@2@@std@@@Z 000000018001a574     LogManager.obj
 0002:00003574       $unwind$??4?$vector@PEAVPlugin@monitoring@ibmras@@V?$allocator@PEAVPlugin@monitoring@ibmras@@@std@@@std@@QEAAAEAV01@AEBV01@@Z 000000018001a574     Agent.obj
 0002:00003574       $unwind$??4?$vector@PEAVLogger@common@ibmras@@V?$allocator@PEAVLogger@common@ibmras@@@std@@@std@@QEAAAEAV01@AEBV01@@Z 000000018001a574     LogManager.obj
 0002:0000358c       $chain$0$?_Buy@?$vector@PEAVBucket@agent@monitoring@ibmras@@V?$allocator@PEAVBucket@agent@monitoring@ibmras@@@std@@@std@@AEAA_N_K@Z 000000018001a58c     Agent.obj
 0002:0000358c       $chain$0$?_Buy@?$vector@PEAVPlugin@monitoring@ibmras@@V?$allocator@PEAVPlugin@monitoring@ibmras@@@std@@@std@@AEAA_N_K@Z 000000018001a58c     Agent.obj
 0002:0000358c       $chain$0$?_Buy@?$vector@PEAVLogger@common@ibmras@@V?$allocator@PEAVLogger@common@ibmras@@@std@@@std@@AEAA_N_K@Z 000000018001a58c     LogManager.obj
 0002:000035a0       $chain$1$?_Buy@?$vector@PEAVPlugin@monitoring@ibmras@@V?$allocator@PEAVPlugin@monitoring@ibmras@@@std@@@std@@AEAA_N_K@Z 000000018001a5a0     Agent.obj
 0002:000035a0       $chain$1$?_Buy@?$vector@PEAVLogger@common@ibmras@@V?$allocator@PEAVLogger@common@ibmras@@@std@@@std@@AEAA_N_K@Z 000000018001a5a0     LogManager.obj
 0002:000035a0       $chain$1$?_Buy@?$vector@PEAVBucket@agent@monitoring@ibmras@@V?$allocator@PEAVBucket@agent@monitoring@ibmras@@@std@@@std@@AEAA_N_K@Z 000000018001a5a0     Agent.obj
 0002:000035b0       $unwind$??$_Emplace_reallocate@AEBQEAVLogger@common@ibmras@@@?$vector@PEAVLogger@common@ibmras@@V?$allocator@PEAVLogger@common@ibmras@@@std@@@std@@QEAAPEAPEAVLogger@common@ibmras@@QEAPEAV234@AEBQEAV234@@Z 000000018001a5b0     LogManager.obj
 0002:000035b0       $unwind$??$_Emplace_reallocate@PEAVWorkerThread@threads@agent@monitoring@ibmras@@@?$vector@PEAVWorkerThread@threads@agent@monitoring@ibmras@@V?$allocator@PEAVWorkerThread@threads@agent@monitoring@ibmras@@@std@@@std@@QEAAPEAPEAVWorkerThread@threads@agent@monitoring@ibmras@@QEAPEAV23456@$$QEAPEAV23456@@Z 000000018001a5b0     ThreadPool.obj
 0002:000035b0       $unwind$??$_Emplace_reallocate@AEBQEAVBucket@agent@monitoring@ibmras@@@?$vector@PEAVBucket@agent@monitoring@ibmras@@V?$allocator@PEAVBucket@agent@monitoring@ibmras@@@std@@@std@@QEAAPEAPEAVBucket@agent@monitoring@ibmras@@QEAPEAV2345@AEBQEAV2345@@Z 000000018001a5b0     Agent.obj
 0002:000035c0       $chain$2$??$_Emplace_reallocate@AEBQEAVLogger@common@ibmras@@@?$vector@PEAVLogger@common@ibmras@@V?$allocator@PEAVLogger@common@ibmras@@@std@@@std@@QEAAPEAPEAVLogger@common@ibmras@@QEAPEAV234@AEBQEAV234@@Z 000000018001a5c0     LogManager.obj
 0002:000035c0       $chain$2$??$_Emplace_reallocate@AEBQEAVBucket@agent@monitoring@ibmras@@@?$vector@PEAVBucket@agent@monitoring@ibmras@@V?$allocator@PEAVBucket@agent@monitoring@ibmras@@@std@@@std@@QEAAPEAPEAVBucket@agent@monitoring@ibmras@@QEAPEAV2345@AEBQEAV2345@@Z 000000018001a5c0     Agent.obj
 0002:000035c0       $chain$2$??$_Emplace_reallocate@PEAVWorkerThread@threads@agent@monitoring@ibmras@@@?$vector@PEAVWorkerThread@threads@agent@monitoring@ibmras@@V?$allocator@PEAVWorkerThread@threads@agent@monitoring@ibmras@@@std@@@std@@QEAAPEAPEAVWorkerThread@threads@agent@monitoring@ibmras@@QEAPEAV23456@$$QEAPEAV23456@@Z 000000018001a5c0     ThreadPool.obj
 0002:000035dc       $chain$4$??$_Emplace_reallocate@AEBQEAVBucket@agent@monitoring@ibmras@@@?$vector@PEAVBucket@agent@monitoring@ibmras@@V?$allocator@PEAVBucket@agent@monitoring@ibmras@@@std@@@std@@QEAAPEAPEAVBucket@agent@monitoring@ibmras@@QEAPEAV2345@AEBQEAV2345@@Z 000000018001a5dc     Agent.obj
 0002:000035dc       $chain$4$??$_Emplace_reallocate@PEAVWorkerThread@threads@agent@monitoring@ibmras@@@?$vector@PEAVWorkerThread@threads@agent@monitoring@ibmras@@V?$allocator@PEAVWorkerThread@threads@agent@monitoring@ibmras@@@std@@@std@@QEAAPEAPEAVWorkerThread@threads@agent@monitoring@ibmras@@QEAPEAV23456@$$QEAPEAV23456@@Z 000000018001a5dc     ThreadPool.obj
 0002:000035dc       $chain$4$??$_Emplace_reallocate@AEBQEAVLogger@common@ibmras@@@?$vector@PEAVLogger@common@ibmras@@V?$allocator@PEAVLogger@common@ibmras@@@std@@@std@@QEAAPEAPEAVLogger@common@ibmras@@QEAPEAV234@AEBQEAV234@@Z 000000018001a5dc     LogManager.obj
 0002:000035f8       $chain$5$??$_Emplace_reallocate@AEBQEAVLogger@common@ibmras@@@?$vector@PEAVLogger@common@ibmras@@V?$allocator@PEAVLogger@common@ibmras@@@std@@@std@@QEAAPEAPEAVLogger@common@ibmras@@QEAPEAV234@AEBQEAV234@@Z 000000018001a5f8     LogManager.obj
 0002:000035f8       $chain$5$??$_Emplace_reallocate@PEAVWorkerThread@threads@agent@monitoring@ibmras@@@?$vector@PEAVWorkerThread@threads@agent@monitoring@ibmras@@V?$allocator@PEAVWorkerThread@threads@agent@monitoring@ibmras@@@std@@@std@@QEAAPEAPEAVWorkerThread@threads@agent@monitoring@ibmras@@QEAPEAV23456@$$QEAPEAV23456@@Z 000000018001a5f8     ThreadPool.obj
 0002:000035f8       $chain$5$??$_Emplace_reallocate@AEBQEAVBucket@agent@monitoring@ibmras@@@?$vector@PEAVBucket@agent@monitoring@ibmras@@V?$allocator@PEAVBucket@agent@monitoring@ibmras@@@std@@@std@@QEAAPEAPEAVBucket@agent@monitoring@ibmras@@QEAPEAV2345@AEBQEAV2345@@Z 000000018001a5f8     Agent.obj
 0002:00003608       $unwind$?allocate@MemoryManager@common@ibmras@@UEAAPEAEI@Z 000000018001a608     MemoryManager.obj
 0002:00003618       $unwind$?getHostName@port@common@ibmras@@YA?AV?$basic_string@DU?$char_traits@D@std@@V?$allocator@D@2@@std@@XZ 000000018001a618     Process.obj
 0002:0000362c       $unwind$??0Properties@common@ibmras@@QEAA@XZ 000000018001a62c     Properties.obj
 0002:0000362c       $unwind$?publish@Agent@agent@monitoring@ibmras@@QEAAXXZ 000000018001a62c     Agent.obj
 0002:0000362c       $unwind$??0PropertiesFile@common@ibmras@@QEAA@XZ 000000018001a62c     PropertiesFile.obj
 0002:00003638       $unwind$??0Properties@common@ibmras@@QEAA@AEBV012@@Z 000000018001a638     Properties.obj
 0002:00003650       $stateUnwindMap$??0Properties@common@ibmras@@QEAA@AEBV012@@Z 000000018001a650     Properties.obj
 0002:00003658       $ip2state$??0Properties@common@ibmras@@QEAA@AEBV012@@Z 000000018001a658     Properties.obj
 0002:00003668       $unwind$??4PropertiesFile@common@ibmras@@QEAAAEAV012@$$QEAV012@@Z 000000018001a668     PropertiesFile.obj
 0002:00003668       $unwind$?seekpos@?$basic_filebuf@DU?$char_traits@D@std@@@std@@MEAA?AV?$fpos@U_Mbstatet@@@2@V32@H@Z 000000018001a668     PropertiesFile.obj
 0002:00003668       $unwind$??4Properties@common@ibmras@@QEAAAEAV012@AEBV012@@Z 000000018001a668     Properties.obj
 0002:00003668       $unwind$??4PropertiesFile@common@ibmras@@QEAAAEAV012@AEBV012@@Z 000000018001a668     PropertiesFile.obj
 0002:00003668       $unwind$??1ConnectorManager@connector@monitoring@ibmras@@UEAA@XZ 000000018001a668     ConnectorManager.obj
 0002:00003678       $unwind$??_EProperties@common@ibmras@@UEAAPEAXI@Z 000000018001a678     Properties.obj
 0002:00003678       $unwind$??_EPropertiesFile@common@ibmras@@UEAAPEAXI@Z 000000018001a678     PropertiesFile.obj
 0002:00003690       $ip2state$??_EPropertiesFile@common@ibmras@@UEAAPEAXI@Z 000000018001a690     PropertiesFile.obj
 0002:00003690       $ip2state$??_EProperties@common@ibmras@@UEAAPEAXI@Z 000000018001a690     Properties.obj
 0002:00003698       $unwind$?get@Properties@common@ibmras@@UEAA?AV?$basic_string@DU?$char_traits@D@std@@V?$allocator@D@2@@std@@AEBV45@0@Z 000000018001a698     Properties.obj
 0002:000036b0       $unwind$?put@Properties@common@ibmras@@UEAAXAEBV?$basic_string@DU?$char_traits@D@std@@V?$allocator@D@2@@std@@0@Z 000000018001a6b0     Properties.obj
 0002:000036b8       $chain$4$?put@Properties@common@ibmras@@UEAAXAEBV?$basic_string@DU?$char_traits@D@std@@V?$allocator@D@2@@std@@0@Z 000000018001a6b8     Properties.obj
 0002:000036dc       $chain$5$?put@Properties@common@ibmras@@UEAAXAEBV?$basic_string@DU?$char_traits@D@std@@V?$allocator@D@2@@std@@0@Z 000000018001a6dc     Properties.obj
 0002:000036ec       $unwind$?exists@Properties@common@ibmras@@UEAA_NAEBV?$basic_string@DU?$char_traits@D@std@@V?$allocator@D@2@@std@@@Z 000000018001a6ec     Properties.obj
 0002:000036ec       $unwind$??4ConnectorManager@connector@monitoring@ibmras@@QEAAAEAV0123@AEBV0123@@Z 000000018001a6ec     Agent.obj
 0002:000036ec       $unwind$??4ConfigurationConnector@connector@monitoring@ibmras@@QEAAAEAV0123@AEBV0123@@Z 000000018001a6ec     Agent.obj
 0002:000036ec       $unwind$??4Agent@agent@monitoring@ibmras@@QEAAAEAV0123@AEBV0123@@Z 000000018001a6ec     Agent.obj
 0002:00003700       $unwind$?getKeys@Properties@common@ibmras@@UEAA?AV?$list@V?$basic_string@DU?$char_traits@D@std@@V?$allocator@D@2@@std@@V?$allocator@V?$basic_string@DU?$char_traits@D@std@@V?$allocator@D@2@@std@@@2@@std@@AEBV?$basic_string@DU?$char_traits@D@std@@V?$allocator@D@2@@5@@Z 000000018001a700     Properties.obj
 0002:00003724       $stateUnwindMap$?getKeys@Properties@common@ibmras@@UEAA?AV?$list@V?$basic_string@DU?$char_traits@D@std@@V?$allocator@D@2@@std@@V?$allocator@V?$basic_string@DU?$char_traits@D@std@@V?$allocator@D@2@@std@@@2@@std@@AEBV?$basic_string@DU?$char_traits@D@std@@V?$allocator@D@2@@5@@Z 000000018001a724     Properties.obj
 0002:00003730       $ip2state$?getKeys@Properties@common@ibmras@@UEAA?AV?$list@V?$basic_string@DU?$char_traits@D@std@@V?$allocator@D@2@@std@@V?$allocator@V?$basic_string@DU?$char_traits@D@std@@V?$allocator@D@2@@std@@@2@@std@@AEBV?$basic_string@DU?$char_traits@D@std@@V?$allocator@D@2@@5@@Z 000000018001a730     Properties.obj
 0002:00003738       $unwind$?add@Properties@common@ibmras@@UEAAXAEBV?$basic_string@DU?$char_traits@D@std@@V?$allocator@D@2@@std@@@Z 000000018001a738     Properties.obj
 0002:0000375c       $stateUnwindMap$?add@Properties@common@ibmras@@UEAAXAEBV?$basic_string@DU?$char_traits@D@std@@V?$allocator@D@2@@std@@@Z 000000018001a75c     Properties.obj
 0002:00003770       $ip2state$?add@Properties@common@ibmras@@UEAAXAEBV?$basic_string@DU?$char_traits@D@std@@V?$allocator@D@2@@std@@@Z 000000018001a770     Properties.obj
 0002:00003788       $unwind$?toString@Properties@common@ibmras@@UEAA?AV?$basic_string@DU?$char_traits@D@std@@V?$allocator@D@2@@std@@XZ 000000018001a788     Properties.obj
 0002:000037a8       $stateUnwindMap$?toString@Properties@common@ibmras@@UEAA?AV?$basic_string@DU?$char_traits@D@std@@V?$allocator@D@2@@std@@XZ 000000018001a7a8     Properties.obj
 0002:000037b8       $ip2state$?toString@Properties@common@ibmras@@UEAA?AV?$basic_string@DU?$char_traits@D@std@@V?$allocator@D@2@@std@@XZ 000000018001a7b8     Properties.obj
 0002:000037d8       $unwind$?_Change_array@?$vector@PEAVPlugin@monitoring@ibmras@@V?$allocator@PEAVPlugin@monitoring@ibmras@@@std@@@std@@AEAAXQEAPEAVPlugin@monitoring@ibmras@@_K1@Z 000000018001a7d8     Agent.obj
 0002:000037d8       $unwind$??1Agent@agent@monitoring@ibmras@@QEAA@XZ 000000018001a7d8     Agent.obj
 0002:000037d8       $unwind$??1?$list@V?$basic_string@DU?$char_traits@D@std@@V?$allocator@D@2@@std@@V?$allocator@V?$basic_string@DU?$char_traits@D@std@@V?$allocator@D@2@@std@@@2@@std@@QEAA@XZ 000000018001a7d8     Properties.obj
 0002:000037d8       $unwind$__scrt_dllmain_exception_filter 000000018001a7d8     MSVCRT:utility.obj
 0002:000037d8       $unwind$?republish@BucketList@agent@monitoring@ibmras@@QEAAXAEBV?$basic_string@DU?$char_traits@D@std@@V?$allocator@D@2@@std@@AEAVConnector@connector@34@@Z 000000018001a7d8     BucketList.obj
 0002:000037ec       $unwind$?lower_bound@?$_Tree@V?$_Tmap_traits@V?$basic_string@DU?$char_traits@D@std@@V?$allocator@D@2@@std@@V12@U?$less@V?$basic_string@DU?$char_traits@D@std@@V?$allocator@D@2@@std@@@2@V?$allocator@U?$pair@$$CBV?$basic_string@DU?$char_traits@D@std@@V?$allocator@D@2@@std@@V12@@std@@@2@$0A@@std@@@std@@QEAA?AV?$_Tree_iterator@V?$_Tree_val@U?$_Tree_simple_types@U?$pair@$$CBV?$basic_string@DU?$char_traits@D@std@@V?$allocator@D@2@@std@@V12@@std@@@std@@@std@@@2@AEBV?$basic_string@DU?$char_traits@D@std@@V?$allocator@D@2@@2@@Z 000000018001a7ec     Properties.obj
 0002:000037fc       $chain$2$?lower_bound@?$_Tree@V?$_Tmap_traits@V?$basic_string@DU?$char_traits@D@std@@V?$allocator@D@2@@std@@V12@U?$less@V?$basic_string@DU?$char_traits@D@std@@V?$allocator@D@2@@std@@@2@V?$allocator@U?$pair@$$CBV?$basic_string@DU?$char_traits@D@std@@V?$allocator@D@2@@std@@V12@@std@@@2@$0A@@std@@@std@@QEAA?AV?$_Tree_iterator@V?$_Tree_val@U?$_Tree_simple_types@U?$pair@$$CBV?$basic_string@DU?$char_traits@D@std@@V?$allocator@D@2@@std@@V12@@std@@@std@@@std@@@2@AEBV?$basic_string@DU?$char_traits@D@std@@V?$allocator@D@2@@2@@Z 000000018001a7fc     Properties.obj
 0002:00003818       $chain$4$?lower_bound@?$_Tree@V?$_Tmap_traits@V?$basic_string@DU?$char_traits@D@std@@V?$allocator@D@2@@std@@V12@U?$less@V?$basic_string@DU?$char_traits@D@std@@V?$allocator@D@2@@std@@@2@V?$allocator@U?$pair@$$CBV?$basic_string@DU?$char_traits@D@std@@V?$allocator@D@2@@std@@V12@@std@@@2@$0A@@std@@@std@@QEAA?AV?$_Tree_iterator@V?$_Tree_val@U?$_Tree_simple_types@U?$pair@$$CBV?$basic_string@DU?$char_traits@D@std@@V?$allocator@D@2@@std@@V12@@std@@@std@@@std@@@2@AEBV?$basic_string@DU?$char_traits@D@std@@V?$allocator@D@2@@2@@Z 000000018001a818     Properties.obj
 0002:00003834       $chain$5$?lower_bound@?$_Tree@V?$_Tmap_traits@V?$basic_string@DU?$char_traits@D@std@@V?$allocator@D@2@@std@@V12@U?$less@V?$basic_string@DU?$char_traits@D@std@@V?$allocator@D@2@@std@@@2@V?$allocator@U?$pair@$$CBV?$basic_string@DU?$char_traits@D@std@@V?$allocator@D@2@@std@@V12@@std@@@2@$0A@@std@@@std@@QEAA?AV?$_Tree_iterator@V?$_Tree_val@U?$_Tree_simple_types@U?$pair@$$CBV?$basic_string@DU?$char_traits@D@std@@V?$allocator@D@2@@std@@V12@@std@@@std@@@std@@@2@AEBV?$basic_string@DU?$char_traits@D@std@@V?$allocator@D@2@@2@@Z 000000018001a834     Properties.obj
 0002:00003844       $unwind$?clear@?$_Tree@V?$_Tmap_traits@V?$basic_string@DU?$char_traits@D@std@@V?$allocator@D@2@@std@@V12@U?$less@V?$basic_string@DU?$char_traits@D@std@@V?$allocator@D@2@@std@@@2@V?$allocator@U?$pair@$$CBV?$basic_string@DU?$char_traits@D@std@@V?$allocator@D@2@@std@@V12@@std@@@2@$0A@@std@@@std@@QEAAXXZ 000000018001a844     Properties.obj
 0002:00003860       $ip2state$?clear@?$_Tree@V?$_Tmap_traits@V?$basic_string@DU?$char_traits@D@std@@V?$allocator@D@2@@std@@V12@U?$less@V?$basic_string@DU?$char_traits@D@std@@V?$allocator@D@2@@std@@@2@V?$allocator@U?$pair@$$CBV?$basic_string@DU?$char_traits@D@std@@V?$allocator@D@2@@std@@V12@@std@@@2@$0A@@std@@@std@@QEAAXXZ 000000018001a860     Properties.obj
 0002:00003868       $unwind$??$_Destroy_range@V?$allocator@V?$basic_string@DU?$char_traits@D@std@@V?$allocator@D@2@@std@@@std@@@std@@YAXPEAV?$basic_string@DU?$char_traits@D@std@@V?$allocator@D@2@@0@0AEAV?$allocator@V?$basic_string@DU?$char_traits@D@std@@V?$allocator@D@2@@std@@@0@@Z 000000018001a868     Properties.obj
 0002:00003874       $chain$0$??$_Destroy_range@V?$allocator@V?$basic_string@DU?$char_traits@D@std@@V?$allocator@D@2@@std@@@std@@@std@@YAXPEAV?$basic_string@DU?$char_traits@D@std@@V?$allocator@D@2@@0@0AEAV?$allocator@V?$basic_string@DU?$char_traits@D@std@@V?$allocator@D@2@@std@@@0@@Z 000000018001a874     Properties.obj
 0002:00003888       $chain$1$??$_Destroy_range@V?$allocator@V?$basic_string@DU?$char_traits@D@std@@V?$allocator@D@2@@std@@@std@@@std@@YAXPEAV?$basic_string@DU?$char_traits@D@std@@V?$allocator@D@2@@0@0AEAV?$allocator@V?$basic_string@DU?$char_traits@D@std@@V?$allocator@D@2@@std@@@0@@Z 000000018001a888     Properties.obj
 0002:00003898       $chain$2$??$_Destroy_range@V?$allocator@V?$basic_string@DU?$char_traits@D@std@@V?$allocator@D@2@@std@@@std@@@std@@YAXPEAV?$basic_string@DU?$char_traits@D@std@@V?$allocator@D@2@@0@0AEAV?$allocator@V?$basic_string@DU?$char_traits@D@std@@V?$allocator@D@2@@std@@@0@@Z 000000018001a898     Properties.obj
 0002:000038ac       $unwind$??$_Copy_nodes@U_Copy_tag@?$_Tree@V?$_Tmap_traits@V?$basic_string@DU?$char_traits@D@std@@V?$allocator@D@2@@std@@V12@U?$less@V?$basic_string@DU?$char_traits@D@std@@V?$allocator@D@2@@std@@@2@V?$allocator@U?$pair@$$CBV?$basic_string@DU?$char_traits@D@std@@V?$allocator@D@2@@std@@V12@@std@@@2@$0A@@std@@@std@@@?$_Tree@V?$_Tmap_traits@V?$basic_string@DU?$char_traits@D@std@@V?$allocator@D@2@@std@@V12@U?$less@V?$basic_string@DU?$char_traits@D@std@@V?$allocator@D@2@@std@@@2@V?$allocator@U?$pair@$$CBV?$basic_string@DU?$char_traits@D@std@@V?$allocator@D@2@@std@@V12@@std@@@2@$0A@@std@@@std@@IEAAPEAU?$_Tree_node@U?$pair@$$CBV?$basic_string@DU?$char_traits@D@std@@V?$allocator@D@2@@std@@V12@@std@@PEAX@1@PEAU21@0U_Copy_tag@01@@Z 000000018001a8ac     Properties.obj
 0002:000038d0       $stateUnwindMap$??$_Copy_nodes@U_Copy_tag@?$_Tree@V?$_Tmap_traits@V?$basic_string@DU?$char_traits@D@std@@V?$allocator@D@2@@std@@V12@U?$less@V?$basic_string@DU?$char_traits@D@std@@V?$allocator@D@2@@std@@@2@V?$allocator@U?$pair@$$CBV?$basic_string@DU?$char_traits@D@std@@V?$allocator@D@2@@std@@V12@@std@@@2@$0A@@std@@@std@@@?$_Tree@V?$_Tmap_traits@V?$basic_string@DU?$char_traits@D@std@@V?$allocator@D@2@@std@@V12@U?$less@V?$basic_string@DU?$char_traits@D@std@@V?$allocator@D@2@@std@@@2@V?$allocator@U?$pair@$$CBV?$basic_string@DU?$char_traits@D@std@@V?$allocator@D@2@@std@@V12@@std@@@2@$0A@@std@@@std@@IEAAPEAU?$_Tree_node@U?$pair@$$CBV?$basic_string@DU?$char_traits@D@std@@V?$allocator@D@2@@std@@V12@@std@@PEAX@1@PEAU21@0U_Copy_tag@01@@Z 000000018001a8d0     Properties.obj
 0002:000038d8       $ip2state$??$_Copy_nodes@U_Copy_tag@?$_Tree@V?$_Tmap_traits@V?$basic_string@DU?$char_traits@D@std@@V?$allocator@D@2@@std@@V12@U?$less@V?$basic_string@DU?$char_traits@D@std@@V?$allocator@D@2@@std@@@2@V?$allocator@U?$pair@$$CBV?$basic_string@DU?$char_traits@D@std@@V?$allocator@D@2@@std@@V12@@std@@@2@$0A@@std@@@std@@@?$_Tree@V?$_Tmap_traits@V?$basic_string@DU?$char_traits@D@std@@V?$allocator@D@2@@std@@V12@U?$less@V?$basic_string@DU?$char_traits@D@std@@V?$allocator@D@2@@std@@@2@V?$allocator@U?$pair@$$CBV?$basic_string@DU?$char_traits@D@std@@V?$allocator@D@2@@std@@V12@@std@@@2@$0A@@std@@@std@@IEAAPEAU?$_Tree_node@U?$pair@$$CBV?$basic_string@DU?$char_traits@D@std@@V?$allocator@D@2@@std@@V12@@std@@PEAX@1@PEAU21@0U_Copy_tag@01@@Z 000000018001a8d8     Properties.obj
 0002:000038f0       $unwind$??$_Insert_hint@AEAU?$pair@$$CBV?$basic_string@DU?$char_traits@D@std@@V?$allocator@D@2@@std@@V12@@std@@PEAU?$_Tree_node@U?$pair@$$CBV?$basic_string@DU?$char_traits@D@std@@V?$allocator@D@2@@std@@V12@@std@@PEAX@2@@?$_Tree@V?$_Tmap_traits@V?$basic_string@DU?$char_traits@D@std@@V?$allocator@D@2@@std@@V12@U?$less@V?$basic_string@DU?$char_traits@D@std@@V?$allocator@D@2@@std@@@2@V?$allocator@U?$pair@$$CBV?$basic_string@DU?$char_traits@D@std@@V?$allocator@D@2@@std@@V12@@std@@@2@$0A@@std@@@std@@IEAA?AV?$_Tree_iterator@V?$_Tree_val@U?$_Tree_simple_types@U?$pair@$$CBV?$basic_string@DU?$char_traits@D@std@@V?$allocator@D@2@@std@@V12@@std@@@std@@@std@@@1@V?$_Tree_const_iterator@V?$_Tree_val@U?$_Tree_simple_types@U?$pair@$$CBV?$basic_string@DU?$char_traits@D@std@@V?$allocator@D@2@@std@@V12@@std@@@std@@@std@@@1@AEAU?$pair@$$CBV?$basic_string@DU?$char_traits@D@std@@V?$allocator@D@2@@std@@V12@@1@PEAU?$_Tree_node@U?$pair@$$CBV?$basic_string@DU?$char_traits@D@std@@V?$allocator@D@2@@std@@V12@@std@@PEAX@1@@Z 000000018001a8f0     Properties.obj
 0002:00003900       $chain$2$??$_Insert_hint@AEAU?$pair@$$CBV?$basic_string@DU?$char_traits@D@std@@V?$allocator@D@2@@std@@V12@@std@@PEAU?$_Tree_node@U?$pair@$$CBV?$basic_string@DU?$char_traits@D@std@@V?$allocator@D@2@@std@@V12@@std@@PEAX@2@@?$_Tree@V?$_Tmap_traits@V?$basic_string@DU?$char_traits@D@std@@V?$allocator@D@2@@std@@V12@U?$less@V?$basic_string@DU?$char_traits@D@std@@V?$allocator@D@2@@std@@@2@V?$allocator@U?$pair@$$CBV?$basic_string@DU?$char_traits@D@std@@V?$allocator@D@2@@std@@V12@@std@@@2@$0A@@std@@@std@@IEAA?AV?$_Tree_iterator@V?$_Tree_val@U?$_Tree_simple_types@U?$pair@$$CBV?$basic_string@DU?$char_traits@D@std@@V?$allocator@D@2@@std@@V12@@std@@@std@@@std@@@1@V?$_Tree_const_iterator@V?$_Tree_val@U?$_Tree_simple_types@U?$pair@$$CBV?$basic_string@DU?$char_traits@D@std@@V?$allocator@D@2@@std@@V12@@std@@@std@@@std@@@1@AEAU?$pair@$$CBV?$basic_string@DU?$char_traits@D@std@@V?$allocator@D@2@@std@@V12@@1@PEAU?$_Tree_node@U?$pair@$$CBV?$basic_string@DU?$char_traits@D@std@@V?$allocator@D@2@@std@@V12@@std@@PEAX@1@@Z 000000018001a900     Properties.obj
 0002:0000391c       $chain$4$??$_Insert_hint@AEAU?$pair@$$CBV?$basic_string@DU?$char_traits@D@std@@V?$allocator@D@2@@std@@V12@@std@@PEAU?$_Tree_node@U?$pair@$$CBV?$basic_string@DU?$char_traits@D@std@@V?$allocator@D@2@@std@@V12@@std@@PEAX@2@@?$_Tree@V?$_Tmap_traits@V?$basic_string@DU?$char_traits@D@std@@V?$allocator@D@2@@std@@V12@U?$less@V?$basic_string@DU?$char_traits@D@std@@V?$allocator@D@2@@std@@@2@V?$allocator@U?$pair@$$CBV?$basic_string@DU?$char_traits@D@std@@V?$allocator@D@2@@std@@V12@@std@@@2@$0A@@std@@@std@@IEAA?AV?$_Tree_iterator@V?$_Tree_val@U?$_Tree_simple_types@U?$pair@$$CBV?$basic_string@DU?$char_traits@D@std@@V?$allocator@D@2@@std@@V12@@std@@@std@@@std@@@1@V?$_Tree_const_iterator@V?$_Tree_val@U?$_Tree_simple_types@U?$pair@$$CBV?$basic_string@DU?$char_traits@D@std@@V?$allocator@D@2@@std@@V12@@std@@@std@@@std@@@1@AEAU?$pair@$$CBV?$basic_string@DU?$char_traits@D@std@@V?$allocator@D@2@@std@@V12@@1@PEAU?$_Tree_node@U?$pair@$$CBV?$basic_string@DU?$char_traits@D@std@@V?$allocator@D@2@@std@@V12@@std@@PEAX@1@@Z 000000018001a91c     Properties.obj
 0002:00003938       $unwind$??$_Insert_at@AEAU?$pair@$$CBV?$basic_string@DU?$char_traits@D@std@@V?$allocator@D@2@@std@@V12@@std@@PEAU?$_Tree_node@U?$pair@$$CBV?$basic_string@DU?$char_traits@D@std@@V?$allocator@D@2@@std@@V12@@std@@PEAX@2@@?$_Tree@V?$_Tmap_traits@V?$basic_string@DU?$char_traits@D@std@@V?$allocator@D@2@@std@@V12@U?$less@V?$basic_string@DU?$char_traits@D@std@@V?$allocator@D@2@@std@@@2@V?$allocator@U?$pair@$$CBV?$basic_string@DU?$char_traits@D@std@@V?$allocator@D@2@@std@@V12@@std@@@2@$0A@@std@@@std@@IEAA?AV?$_Tree_iterator@V?$_Tree_val@U?$_Tree_simple_types@U?$pair@$$CBV?$basic_string@DU?$char_traits@D@std@@V?$allocator@D@2@@std@@V12@@std@@@std@@@std@@@1@_NPEAU?$_Tree_node@U?$pair@$$CBV?$basic_string@DU?$char_traits@D@std@@V?$allocator@D@2@@std@@V12@@std@@PEAX@1@AEAU?$pair@$$CBV?$basic_string@DU?$char_traits@D@std@@V?$allocator@D@2@@std@@V12@@1@1@Z 000000018001a938     Properties.obj
 0002:00003944       $unwind$??$_Insert_nohint@AEAU?$pair@$$CBV?$basic_string@DU?$char_traits@D@std@@V?$allocator@D@2@@std@@V12@@std@@PEAU?$_Tree_node@U?$pair@$$CBV?$basic_string@DU?$char_traits@D@std@@V?$allocator@D@2@@std@@V12@@std@@PEAX@2@@?$_Tree@V?$_Tmap_traits@V?$basic_string@DU?$char_traits@D@std@@V?$allocator@D@2@@std@@V12@U?$less@V?$basic_string@DU?$char_traits@D@std@@V?$allocator@D@2@@std@@@2@V?$allocator@U?$pair@$$CBV?$basic_string@DU?$char_traits@D@std@@V?$allocator@D@2@@std@@V12@@std@@@2@$0A@@std@@@std@@IEAA?AU?$pair@V?$_Tree_iterator@V?$_Tree_val@U?$_Tree_simple_types@U?$pair@$$CBV?$basic_string@DU?$char_traits@D@std@@V?$allocator@D@2@@std@@V12@@std@@@std@@@std@@@std@@_N@1@_NAEAU?$pair@$$CBV?$basic_string@DU?$char_traits@D@std@@V?$allocator@D@2@@std@@V12@@1@PEAU?$_Tree_node@U?$pair@$$CBV?$basic_string@DU?$char_traits@D@std@@V?$allocator@D@2@@std@@V12@@std@@PEAX@1@@Z 000000018001a944     Properties.obj
 0002:00003960       $unwind$??1locale@std@@QEAA@XZ 000000018001a960     PropertiesFile.obj
 0002:00003970       $ip2state$??1locale@std@@QEAA@XZ 000000018001a970     PropertiesFile.obj
 0002:00003978       $unwind$?load@PropertiesFile@common@ibmras@@QEAAHAEBV?$basic_string@DU?$char_traits@D@std@@V?$allocator@D@2@@std@@@Z 000000018001a978     PropertiesFile.obj
 0002:000039a0       $stateUnwindMap$?load@PropertiesFile@common@ibmras@@QEAAHAEBV?$basic_string@DU?$char_traits@D@std@@V?$allocator@D@2@@std@@@Z 000000018001a9a0     PropertiesFile.obj
 0002:000039c0       $ip2state$?load@PropertiesFile@common@ibmras@@QEAAHAEBV?$basic_string@DU?$char_traits@D@std@@V?$allocator@D@2@@std@@@Z 000000018001a9c0     PropertiesFile.obj
 0002:00003a08       $unwind$??0?$basic_ifstream@DU?$char_traits@D@std@@@std@@QEAA@PEBDHH@Z 000000018001aa08     PropertiesFile.obj
 0002:00003a20       $stateUnwindMap$??0?$basic_ifstream@DU?$char_traits@D@std@@@std@@QEAA@PEBDHH@Z 000000018001aa20     PropertiesFile.obj
 0002:00003a50       $ip2state$??0?$basic_ifstream@DU?$char_traits@D@std@@@std@@QEAA@PEBDHH@Z 000000018001aa50     PropertiesFile.obj
 0002:00003a98       $unwind$?setbuf@?$basic_filebuf@DU?$char_traits@D@std@@@std@@MEAAPEAV?$basic_streambuf@DU?$char_traits@D@std@@@2@PEAD_J@Z 000000018001aa98     PropertiesFile.obj
 0002:00003aa4       $chain$0$?setbuf@?$basic_filebuf@DU?$char_traits@D@std@@@std@@MEAAPEAV?$basic_streambuf@DU?$char_traits@D@std@@@2@PEAD_J@Z 000000018001aaa4     PropertiesFile.obj
 0002:00003ab8       $chain$1$?setbuf@?$basic_filebuf@DU?$char_traits@D@std@@@std@@MEAAPEAV?$basic_streambuf@DU?$char_traits@D@std@@@2@PEAD_J@Z 000000018001aab8     PropertiesFile.obj
 0002:00003ac8       $unwind$?seekoff@?$basic_filebuf@DU?$char_traits@D@std@@@std@@MEAA?AV?$fpos@U_Mbstatet@@@2@_JHH@Z 000000018001aac8     PropertiesFile.obj
 0002:00003ac8       $unwind$??4Agent@agent@monitoring@ibmras@@QEAAAEAV0123@$$QEAV0123@@Z 000000018001aac8     Agent.obj
 0002:00003adc       $unwind$?xsgetn@?$basic_filebuf@DU?$char_traits@D@std@@@std@@MEAA_JPEAD_J@Z 000000018001aadc     PropertiesFile.obj
 0002:00003adc       $unwind$?xsputn@?$basic_filebuf@DU?$char_traits@D@std@@@std@@MEAA_JPEBD_J@Z 000000018001aadc     PropertiesFile.obj
 0002:00003af4       $unwind$?uflow@?$basic_filebuf@DU?$char_traits@D@std@@@std@@MEAAHXZ 000000018001aaf4     PropertiesFile.obj
 0002:00003b14       $stateUnwindMap$?uflow@?$basic_filebuf@DU?$char_traits@D@std@@@std@@MEAAHXZ 000000018001ab14     PropertiesFile.obj
 0002:00003b20       $ip2state$?uflow@?$basic_filebuf@DU?$char_traits@D@std@@@std@@MEAAHXZ 000000018001ab20     PropertiesFile.obj
 0002:00003b30       $chain$0$?underflow@?$basic_filebuf@DU?$char_traits@D@std@@@std@@MEAAHXZ 000000018001ab30     PropertiesFile.obj
 0002:00003b44       $chain$2$?underflow@?$basic_filebuf@DU?$char_traits@D@std@@@std@@MEAAHXZ 000000018001ab44     PropertiesFile.obj
 0002:00003b58       $unwind$?overflow@?$basic_filebuf@DU?$char_traits@D@std@@@std@@MEAAHH@Z 000000018001ab58     PropertiesFile.obj
 0002:00003b6c       $chain$0$?overflow@?$basic_filebuf@DU?$char_traits@D@std@@@std@@MEAAHH@Z 000000018001ab6c     PropertiesFile.obj
 0002:00003b80       $chain$1$?overflow@?$basic_filebuf@DU?$char_traits@D@std@@@std@@MEAAHH@Z 000000018001ab80     PropertiesFile.obj
 0002:00003b90       $unwind$??1?$basic_filebuf@DU?$char_traits@D@std@@@std@@UEAA@XZ 000000018001ab90     PropertiesFile.obj
 0002:00003ba0       $ip2state$??1?$basic_filebuf@DU?$char_traits@D@std@@@std@@UEAA@XZ 000000018001aba0     PropertiesFile.obj
 0002:00003ba8       $unwind$?_Endwrite@?$basic_filebuf@DU?$char_traits@D@std@@@std@@IEAA_NXZ 000000018001aba8     PropertiesFile.obj
 0002:00003bbc       $unwind$??$use_facet@V?$codecvt@DDU_Mbstatet@@@std@@@std@@YAAEBV?$codecvt@DDU_Mbstatet@@@0@AEBVlocale@0@@Z 000000018001abbc     PropertiesFile.obj
 0002:00003bd0       $stateUnwindMap$??$use_facet@V?$codecvt@DDU_Mbstatet@@@std@@@std@@YAAEBV?$codecvt@DDU_Mbstatet@@@0@AEBVlocale@0@@Z 000000018001abd0     PropertiesFile.obj
 0002:00003be8       $ip2state$??$use_facet@V?$codecvt@DDU_Mbstatet@@@std@@@std@@YAAEBV?$codecvt@DDU_Mbstatet@@@0@AEBVlocale@0@@Z 000000018001abe8     PropertiesFile.obj
 0002:00003c08       $unwind$??$_Reallocate_grow_by@V<lambda_319d5e083f45f90dcdce5dce53cbb275>@@D@?$basic_string@DU?$char_traits@D@std@@V?$allocator@D@2@@std@@QEAAAEAV01@_KV<lambda_319d5e083f45f90dcdce5dce53cbb275>@@D@Z 000000018001ac08     PropertiesFile.obj
 0002:00003c18       $chain$2$??$_Reallocate_grow_by@V<lambda_319d5e083f45f90dcdce5dce53cbb275>@@D@?$basic_string@DU?$char_traits@D@std@@V?$allocator@D@2@@std@@QEAAAEAV01@_KV<lambda_319d5e083f45f90dcdce5dce53cbb275>@@D@Z 000000018001ac18     PropertiesFile.obj
 0002:00003c34       $chain$3$??$_Reallocate_grow_by@V<lambda_319d5e083f45f90dcdce5dce53cbb275>@@D@?$basic_string@DU?$char_traits@D@std@@V?$allocator@D@2@@std@@QEAAAEAV01@_KV<lambda_319d5e083f45f90dcdce5dce53cbb275>@@D@Z 000000018001ac34     PropertiesFile.obj
 0002:00003c44       $unwind$??1?$unique_ptr@V_Facet_base@std@@U?$default_delete@V_Facet_base@std@@@2@@std@@QEAA@XZ 000000018001ac44     PropertiesFile.obj
 0002:00003c58       $ip2state$??1?$unique_ptr@V_Facet_base@std@@U?$default_delete@V_Facet_base@std@@@2@@std@@QEAA@XZ 000000018001ac58     PropertiesFile.obj
 0002:00003c60       $unwind$??$getline@DU?$char_traits@D@std@@V?$allocator@D@2@@std@@YAAEAV?$basic_istream@DU?$char_traits@D@std@@@0@$$QEAV10@AEAV?$basic_string@DU?$char_traits@D@std@@V?$allocator@D@2@@0@D@Z 000000018001ac60     PropertiesFile.obj
 0002:00003c80       $stateUnwindMap$??$getline@DU?$char_traits@D@std@@V?$allocator@D@2@@std@@YAAEAV?$basic_istream@DU?$char_traits@D@std@@@0@$$QEAV10@AEAV?$basic_string@DU?$char_traits@D@std@@V?$allocator@D@2@@0@D@Z 000000018001ac80     PropertiesFile.obj
 0002:00003c98       $ip2state$??$getline@DU?$char_traits@D@std@@V?$allocator@D@2@@std@@YAAEAV?$basic_istream@DU?$char_traits@D@std@@@0@$$QEAV10@AEAV?$basic_string@DU?$char_traits@D@std@@V?$allocator@D@2@@0@D@Z 000000018001ac98     PropertiesFile.obj
 0002:00003cc8       $unwind$??1sentry@?$basic_istream@DU?$char_traits@D@std@@@std@@QEAA@XZ 000000018001acc8     PropertiesFile.obj
 0002:00003cd8       $ip2state$??1sentry@?$basic_istream@DU?$char_traits@D@std@@@std@@QEAA@XZ 000000018001acd8     PropertiesFile.obj
 0002:00003ce0       $unwind$?split@util@common@ibmras@@YAAEAV?$vector@V?$basic_string@DU?$char_traits@D@std@@V?$allocator@D@2@@std@@V?$allocator@V?$basic_string@DU?$char_traits@D@std@@V?$allocator@D@2@@std@@@2@@std@@AEBV?$basic_string@DU?$char_traits@D@std@@V?$allocator@D@2@@5@DAEAV45@@Z 000000018001ace0     strUtils.obj
 0002:00003d08       $stateUnwindMap$?split@util@common@ibmras@@YAAEAV?$vector@V?$basic_string@DU?$char_traits@D@std@@V?$allocator@D@2@@std@@V?$allocator@V?$basic_string@DU?$char_traits@D@std@@V?$allocator@D@2@@std@@@2@@std@@AEBV?$basic_string@DU?$char_traits@D@std@@V?$allocator@D@2@@5@DAEAV45@@Z 000000018001ad08     strUtils.obj
 0002:00003d30       $ip2state$?split@util@common@ibmras@@YAAEAV?$vector@V?$basic_string@DU?$char_traits@D@std@@V?$allocator@D@2@@std@@V?$allocator@V?$basic_string@DU?$char_traits@D@std@@V?$allocator@D@2@@std@@@2@@std@@AEBV?$basic_string@DU?$char_traits@D@std@@V?$allocator@D@2@@5@DAEAV45@@Z 000000018001ad30     strUtils.obj
 0002:00003d70       $unwind$?equalsIgnoreCase@util@common@ibmras@@YA_NAEBV?$basic_string@DU?$char_traits@D@std@@V?$allocator@D@2@@std@@0@Z 000000018001ad70     strUtils.obj
 0002:00003d88       $chain$0$?createAsciiString@util@common@ibmras@@YAPEADPEBD_N@Z 000000018001ad88     strUtils.obj
 0002:00003d88       $chain$0$?createNativeString@util@common@ibmras@@YAPEADPEBD_N@Z 000000018001ad88     strUtils.obj
 0002:00003d9c       $chain$1$?createNativeString@util@common@ibmras@@YAPEADPEBD_N@Z 000000018001ad9c     strUtils.obj
 0002:00003d9c       $chain$1$?createAsciiString@util@common@ibmras@@YAPEADPEBD_N@Z 000000018001ad9c     strUtils.obj
 0002:00003dac       $unwind$??$_Emplace_reallocate@AEBV?$basic_string@DU?$char_traits@D@std@@V?$allocator@D@2@@std@@@?$vector@V?$basic_string@DU?$char_traits@D@std@@V?$allocator@D@2@@std@@V?$allocator@V?$basic_string@DU?$char_traits@D@std@@V?$allocator@D@2@@std@@@2@@std@@QEAAPEAV?$basic_string@DU?$char_traits@D@std@@V?$allocator@D@2@@1@QEAV21@AEBV21@@Z 000000018001adac     strUtils.obj
 0002:00003dbc       $chain$2$??$_Emplace_reallocate@AEBV?$basic_string@DU?$char_traits@D@std@@V?$allocator@D@2@@std@@@?$vector@V?$basic_string@DU?$char_traits@D@std@@V?$allocator@D@2@@std@@V?$allocator@V?$basic_string@DU?$char_traits@D@std@@V?$allocator@D@2@@std@@@2@@std@@QEAAPEAV?$basic_string@DU?$char_traits@D@std@@V?$allocator@D@2@@1@QEAV21@AEBV21@@Z 000000018001adbc     strUtils.obj
 0002:00003dd8       $chain$3$??$_Emplace_reallocate@AEBV?$basic_string@DU?$char_traits@D@std@@V?$allocator@D@2@@std@@@?$vector@V?$basic_string@DU?$char_traits@D@std@@V?$allocator@D@2@@std@@V?$allocator@V?$basic_string@DU?$char_traits@D@std@@V?$allocator@D@2@@std@@@2@@std@@QEAAPEAV?$basic_string@DU?$char_traits@D@std@@V?$allocator@D@2@@1@QEAV21@AEBV21@@Z 000000018001add8     strUtils.obj
 0002:00003dec       $chain$4$??$_Emplace_reallocate@AEBV?$basic_string@DU?$char_traits@D@std@@V?$allocator@D@2@@std@@@?$vector@V?$basic_string@DU?$char_traits@D@std@@V?$allocator@D@2@@std@@V?$allocator@V?$basic_string@DU?$char_traits@D@std@@V?$allocator@D@2@@std@@@2@@std@@QEAAPEAV?$basic_string@DU?$char_traits@D@std@@V?$allocator@D@2@@1@QEAV21@AEBV21@@Z 000000018001adec     strUtils.obj
 0002:00003dfc       $chain$6$??$_Emplace_reallocate@AEBV?$basic_string@DU?$char_traits@D@std@@V?$allocator@D@2@@std@@@?$vector@V?$basic_string@DU?$char_traits@D@std@@V?$allocator@D@2@@std@@V?$allocator@V?$basic_string@DU?$char_traits@D@std@@V?$allocator@D@2@@std@@@2@@std@@QEAAPEAV?$basic_string@DU?$char_traits@D@std@@V?$allocator@D@2@@1@QEAV21@AEBV21@@Z 000000018001adfc     strUtils.obj
 0002:00003e18       $chain$7$??$_Emplace_reallocate@AEBV?$basic_string@DU?$char_traits@D@std@@V?$allocator@D@2@@std@@@?$vector@V?$basic_string@DU?$char_traits@D@std@@V?$allocator@D@2@@std@@V?$allocator@V?$basic_string@DU?$char_traits@D@std@@V?$allocator@D@2@@std@@@2@@std@@QEAAPEAV?$basic_string@DU?$char_traits@D@std@@V?$allocator@D@2@@1@QEAV21@AEBV21@@Z 000000018001ae18     strUtils.obj
 0002:00003e28       $unwind$?getMilliseconds@util@common@ibmras@@YA_KXZ 000000018001ae28     sysUtils.obj
 0002:00003e38       $unwind$??0BucketList@agent@monitoring@ibmras@@QEAA@AEBV0123@@Z 000000018001ae38     Agent.obj
 0002:00003e44       $chain$0$??0BucketList@agent@monitoring@ibmras@@QEAA@AEBV0123@@Z 000000018001ae44     Agent.obj
 0002:00003e58       $chain$1$??0BucketList@agent@monitoring@ibmras@@QEAA@AEBV0123@@Z 000000018001ae58     Agent.obj
 0002:00003e68       $unwind$??0ConnectorManager@connector@monitoring@ibmras@@QEAA@AEBV0123@@Z 000000018001ae68     Agent.obj
 0002:00003e88       $stateUnwindMap$??0ConnectorManager@connector@monitoring@ibmras@@QEAA@AEBV0123@@Z 000000018001ae88     Agent.obj
 0002:00003ee0       $ip2state$??0ConnectorManager@connector@monitoring@ibmras@@QEAA@AEBV0123@@Z 000000018001aee0     Agent.obj
 0002:00003f20       $unwind$??_EConnectorManager@connector@monitoring@ibmras@@UEAAPEAXI@Z 000000018001af20     Agent.obj
 0002:00003f38       $ip2state$??_EConnectorManager@connector@monitoring@ibmras@@UEAAPEAXI@Z 000000018001af38     Agent.obj
 0002:00003f40       $unwind$??0ConfigurationConnector@connector@monitoring@ibmras@@QEAA@AEBV0123@@Z 000000018001af40     Agent.obj
 0002:00003f54       $stateUnwindMap$??0ConfigurationConnector@connector@monitoring@ibmras@@QEAA@AEBV0123@@Z 000000018001af54     Agent.obj
 0002:00003f60       $ip2state$??0ConfigurationConnector@connector@monitoring@ibmras@@QEAA@AEBV0123@@Z 000000018001af60     Agent.obj
 0002:00003f68       $unwind$??_EConfigurationConnector@connector@monitoring@ibmras@@UEAAPEAXI@Z 000000018001af68     Agent.obj
 0002:00003f80       $ip2state$??_EConfigurationConnector@connector@monitoring@ibmras@@UEAAPEAXI@Z 000000018001af80     Agent.obj
 0002:00003f88       $unwind$??0Agent@agent@monitoring@ibmras@@QEAA@AEBV0123@@Z 000000018001af88     Agent.obj
 0002:00003fa4       $stateUnwindMap$??0Agent@agent@monitoring@ibmras@@QEAA@AEBV0123@@Z 000000018001afa4     Agent.obj
 0002:00003fd0       $ip2state$??0Agent@agent@monitoring@ibmras@@QEAA@AEBV0123@@Z 000000018001afd0     Agent.obj
 0002:00003ff8       $unwind$??0Agent@agent@monitoring@ibmras@@QEAA@$$QEAV0123@@Z 000000018001aff8     Agent.obj
 0002:00004010       $stateUnwindMap$??0Agent@agent@monitoring@ibmras@@QEAA@$$QEAV0123@@Z 000000018001b010     Agent.obj
 0002:00004038       $ip2state$??0Agent@agent@monitoring@ibmras@@QEAA@$$QEAV0123@@Z 000000018001b038     Agent.obj
 0002:00004050       $unwind$??_EAgentExtensionReceiver@monitoring@ibmras@@UEAAPEAXI@Z 000000018001b050     Agent.obj
 0002:00004068       $ip2state$??_EAgentExtensionReceiver@monitoring@ibmras@@UEAAPEAXI@Z 000000018001b068     Agent.obj
 0002:00004070       $unwind$getPropertyWrapper 000000018001b070     Agent.obj
 0002:00004084       $unwind$setPropertyWrapper 000000018001b084     Agent.obj
 0002:00004098       $unwind$sendMessageWrapper 000000018001b098     Agent.obj
 0002:000040ac       $unwind$??__Einstance@agent@monitoring@ibmras@@YAXXZ 000000018001b0ac     Agent.obj
 0002:000040bc       $stateUnwindMap$??__Einstance@agent@monitoring@ibmras@@YAXXZ 000000018001b0bc     Agent.obj
 0002:000040c8       $ip2state$??__Einstance@agent@monitoring@ibmras@@YAXXZ 000000018001b0c8     Agent.obj
 0002:000040d8       $unwind$??0Agent@agent@monitoring@ibmras@@QEAA@XZ 000000018001b0d8     Agent.obj
 0002:000040f0       $stateUnwindMap$??0Agent@agent@monitoring@ibmras@@QEAA@XZ 000000018001b0f0     Agent.obj
 0002:00004110       $ip2state$??0Agent@agent@monitoring@ibmras@@QEAA@XZ 000000018001b110     Agent.obj
 0002:00004128       $unwind$?setLogLevels@Agent@agent@monitoring@ibmras@@QEAAXXZ 000000018001b128     Agent.obj
 0002:00004154       $stateUnwindMap$?setLogLevels@Agent@agent@monitoring@ibmras@@QEAAXXZ 000000018001b154     Agent.obj
 0002:00004190       $ip2state$?setLogLevels@Agent@agent@monitoring@ibmras@@QEAAXXZ 000000018001b190     Agent.obj
 0002:000041d8       $unwind$?getPullSource@Agent@agent@monitoring@ibmras@@QEAAPEAV?$DataSource@Upullsource@@@234@V?$basic_string@DU?$char_traits@D@std@@V?$allocator@D@2@@std@@@Z 000000018001b1d8     Agent.obj
 0002:00004200       $stateUnwindMap$?getPullSource@Agent@agent@monitoring@ibmras@@QEAAPEAV?$DataSource@Upullsource@@@234@V?$basic_string@DU?$char_traits@D@std@@V?$allocator@D@2@@std@@@Z 000000018001b200     Agent.obj
 0002:00004200       $stateUnwindMap$?getPushSource@Agent@agent@monitoring@ibmras@@QEAAPEAV?$DataSource@Upushsource@@@234@V?$basic_string@DU?$char_traits@D@std@@V?$allocator@D@2@@std@@@Z 000000018001b200     Agent.obj
 0002:00004208       $ip2state$?getPullSource@Agent@agent@monitoring@ibmras@@QEAAPEAV?$DataSource@Upullsource@@@234@V?$basic_string@DU?$char_traits@D@std@@V?$allocator@D@2@@std@@@Z 000000018001b208     Agent.obj
 0002:00004218       $unwind$?getPushSource@Agent@agent@monitoring@ibmras@@QEAAPEAV?$DataSource@Upushsource@@@234@V?$basic_string@DU?$char_traits@D@std@@V?$allocator@D@2@@std@@@Z 000000018001b218     Agent.obj
 0002:00004240       $ip2state$?getPushSource@Agent@agent@monitoring@ibmras@@QEAAPEAV?$DataSource@Upushsource@@@234@V?$basic_string@DU?$char_traits@D@std@@V?$allocator@D@2@@std@@@Z 000000018001b240     Agent.obj
 0002:00004250       $unwind$?processPublishLoop@agent@monitoring@ibmras@@YAPEAXPEAVThreadData@port@common@3@@Z 000000018001b250     Agent.obj
 0002:00004278       $stateUnwindMap$?processPublishLoop@agent@monitoring@ibmras@@YAPEAXPEAVThreadData@port@common@3@@Z 000000018001b278     Agent.obj
 0002:00004298       $ip2state$?processPublishLoop@agent@monitoring@ibmras@@YAPEAXPEAVThreadData@port@common@3@@Z 000000018001b298     Agent.obj
 0002:000042c8       $unwind$?processPullSourceLoop@agent@monitoring@ibmras@@YAPEAXPEAVThreadData@port@common@3@@Z 000000018001b2c8     Agent.obj
 0002:000042f4       $stateUnwindMap$?processPullSourceLoop@agent@monitoring@ibmras@@YAPEAXPEAVThreadData@port@common@3@@Z 000000018001b2f4     Agent.obj
 0002:00004320       $ip2state$?processPullSourceLoop@agent@monitoring@ibmras@@YAPEAXPEAVThreadData@port@common@3@@Z 000000018001b320     Agent.obj
 0002:00004360       $chain$0$?publish@Agent@agent@monitoring@ibmras@@QEAAXXZ 000000018001b360     Agent.obj
 0002:00004374       $chain$1$?publish@Agent@agent@monitoring@ibmras@@QEAAXXZ 000000018001b374     Agent.obj
 0002:00004384       $unwind$?republish@Agent@agent@monitoring@ibmras@@QEAAXAEBV?$basic_string@DU?$char_traits@D@std@@V?$allocator@D@2@@std@@@Z 000000018001b384     Agent.obj
 0002:00004394       $chain$0$?republish@Agent@agent@monitoring@ibmras@@QEAAXAEBV?$basic_string@DU?$char_traits@D@std@@V?$allocator@D@2@@std@@@Z 000000018001b394     Agent.obj
 0002:000043a8       $chain$1$?republish@Agent@agent@monitoring@ibmras@@QEAAXAEBV?$basic_string@DU?$char_traits@D@std@@V?$allocator@D@2@@std@@@Z 000000018001b3a8     Agent.obj
 0002:000043b8       $unwind$?addPushSource@Agent@agent@monitoring@ibmras@@AEAAXV?$_Vector_iterator@V?$_Vector_val@U?$_Simple_types@PEAVPlugin@monitoring@ibmras@@@std@@@std@@@std@@I@Z 000000018001b3b8     Agent.obj
 0002:000043d4       $stateUnwindMap$?getProperty@Agent@agent@monitoring@ibmras@@QEAA?AV?$basic_string@DU?$char_traits@D@std@@V?$allocator@D@2@@std@@AEBV56@@Z 000000018001b3d4     Agent.obj
 0002:000043d4       $stateUnwindMap$?addPullSource@Agent@agent@monitoring@ibmras@@AEAAXV?$_Vector_iterator@V?$_Vector_val@U?$_Simple_types@PEAVPlugin@monitoring@ibmras@@@std@@@std@@@std@@I@Z 000000018001b3d4     Agent.obj
 0002:000043d4       $stateUnwindMap$?addPushSource@Agent@agent@monitoring@ibmras@@AEAAXV?$_Vector_iterator@V?$_Vector_val@U?$_Simple_types@PEAVPlugin@monitoring@ibmras@@@std@@@std@@@std@@I@Z 000000018001b3d4     Agent.obj
 0002:000043e0       $ip2state$?addPushSource@Agent@agent@monitoring@ibmras@@AEAAXV?$_Vector_iterator@V?$_Vector_val@U?$_Simple_types@PEAVPlugin@monitoring@ibmras@@@std@@@std@@@std@@I@Z 000000018001b3e0     Agent.obj
 0002:000043f8       $unwind$?addPullSource@Agent@agent@monitoring@ibmras@@AEAAXV?$_Vector_iterator@V?$_Vector_val@U?$_Simple_types@PEAVPlugin@monitoring@ibmras@@@std@@@std@@@std@@I@Z 000000018001b3f8     Agent.obj
 0002:00004418       $ip2state$?addPullSource@Agent@agent@monitoring@ibmras@@AEAAXV?$_Vector_iterator@V?$_Vector_val@U?$_Simple_types@PEAVPlugin@monitoring@ibmras@@@std@@@std@@@std@@I@Z 000000018001b418     Agent.obj
 0002:00004430       $unwind$__scrt_initialize_onexit_tables 000000018001b430     MSVCRT:utility.obj
 0002:00004430       $unwind$?createBuckets@Agent@agent@monitoring@ibmras@@AEAAXXZ 000000018001b430     Agent.obj
 0002:00004438       $unwind$?addPlugin@Agent@agent@monitoring@ibmras@@QEAAXPEAVPlugin@34@@Z 000000018001b438     Agent.obj
 0002:00004444       $chain$0$?addPlugin@Agent@agent@monitoring@ibmras@@QEAAXPEAVPlugin@34@@Z 000000018001b444     Agent.obj
 0002:00004458       $chain$1$?addPlugin@Agent@agent@monitoring@ibmras@@QEAAXPEAVPlugin@34@@Z 000000018001b458     Agent.obj
 0002:00004468       $unwind$?addPlugin@Agent@agent@monitoring@ibmras@@QEAAXAEBV?$basic_string@DU?$char_traits@D@std@@V?$allocator@D@2@@std@@V56@@Z 000000018001b468     Agent.obj
 0002:0000448c       $stateUnwindMap$?addPlugin@Agent@agent@monitoring@ibmras@@QEAAXAEBV?$basic_string@DU?$char_traits@D@std@@V?$allocator@D@2@@std@@V56@@Z 000000018001b48c     Agent.obj
 0002:000044b8       $ip2state$?addPlugin@Agent@agent@monitoring@ibmras@@QEAAXAEBV?$basic_string@DU?$char_traits@D@std@@V?$allocator@D@2@@std@@V56@@Z 000000018001b4b8     Agent.obj
 0002:000044f0       $unwind$?addPlugin@Agent@agent@monitoring@ibmras@@QEAAXPEBD@Z 000000018001b4f0     Agent.obj
 0002:0000450c       $stateUnwindMap$?addPlugin@Agent@agent@monitoring@ibmras@@QEAAXPEBD@Z 000000018001b50c     Agent.obj
 0002:00004518       $ip2state$?addPlugin@Agent@agent@monitoring@ibmras@@QEAAXPEBD@Z 000000018001b518     Agent.obj
 0002:00004530       $unwind$?addSystemPlugins@Agent@agent@monitoring@ibmras@@AEAAXXZ 000000018001b530     Agent.obj
 0002:00004540       $stateUnwindMap$?addSystemPlugins@Agent@agent@monitoring@ibmras@@AEAAXXZ 000000018001b540     Agent.obj
 0002:00004548       $ip2state$?addSystemPlugins@Agent@agent@monitoring@ibmras@@AEAAXXZ 000000018001b548     Agent.obj
 0002:00004558       $unwind$?init@Agent@agent@monitoring@ibmras@@QEAAXXZ 000000018001b558     Agent.obj
 0002:0000457c       $stateUnwindMap$?init@Agent@agent@monitoring@ibmras@@QEAAXXZ 000000018001b57c     Agent.obj
 0002:000045d0       $ip2state$?init@Agent@agent@monitoring@ibmras@@QEAAXXZ 000000018001b5d0     Agent.obj
 0002:00004648       $unwind$?readOnly@Agent@agent@monitoring@ibmras@@QEAA_NXZ 000000018001b648     Agent.obj
 0002:00004664       $stateUnwindMap$?shutdown@Agent@agent@monitoring@ibmras@@QEAAXXZ 000000018001b664     Agent.obj
 0002:00004664       $stateUnwindMap$?readOnly@Agent@agent@monitoring@ibmras@@QEAA_NXZ 000000018001b664     Agent.obj
 0002:00004670       $ip2state$?readOnly@Agent@agent@monitoring@ibmras@@QEAA_NXZ 000000018001b670     Agent.obj
 0002:00004688       $unwind$?start@Agent@agent@monitoring@ibmras@@QEAAXXZ 000000018001b688     Agent.obj
 0002:00004698       $unwind$?startReceivers@Agent@agent@monitoring@ibmras@@AEAAXXZ 000000018001b698     Agent.obj
 0002:000046a4       $chain$1$?startReceivers@Agent@agent@monitoring@ibmras@@AEAAXXZ 000000018001b6a4     Agent.obj
 0002:000046bc       $chain$2$?startReceivers@Agent@agent@monitoring@ibmras@@AEAAXXZ 000000018001b6bc     Agent.obj
 0002:000046cc       $unwind$?startConnectors@Agent@agent@monitoring@ibmras@@AEAAXXZ 000000018001b6cc     Agent.obj
 0002:000046ec       $stateUnwindMap$?startConnectors@Agent@agent@monitoring@ibmras@@AEAAXXZ 000000018001b6ec     Agent.obj
 0002:000046f8       $ip2state$?startConnectors@Agent@agent@monitoring@ibmras@@AEAAXXZ 000000018001b6f8     Agent.obj
 0002:00004710       $unwind$?shutdown@Agent@agent@monitoring@ibmras@@QEAAXXZ 000000018001b710     Agent.obj
 0002:00004728       $ip2state$?shutdown@Agent@agent@monitoring@ibmras@@QEAAXXZ 000000018001b728     Agent.obj
 0002:00004740       $unwind$?getProperty@Agent@agent@monitoring@ibmras@@QEAA?AV?$basic_string@DU?$char_traits@D@std@@V?$allocator@D@2@@std@@AEBV56@@Z 000000018001b740     Agent.obj
 0002:00004758       $ip2state$?getProperty@Agent@agent@monitoring@ibmras@@QEAA?AV?$basic_string@DU?$char_traits@D@std@@V?$allocator@D@2@@std@@AEBV56@@Z 000000018001b758     Agent.obj
 0002:00004770       $unwind$?getAgentProperty@Agent@agent@monitoring@ibmras@@QEAA?AV?$basic_string@DU?$char_traits@D@std@@V?$allocator@D@2@@std@@AEBV56@@Z 000000018001b770     Agent.obj
 0002:00004788       $stateUnwindMap$?getAgentProperty@Agent@agent@monitoring@ibmras@@QEAA?AV?$basic_string@DU?$char_traits@D@std@@V?$allocator@D@2@@std@@AEBV56@@Z 000000018001b788     Agent.obj
 0002:00004798       $ip2state$?getAgentProperty@Agent@agent@monitoring@ibmras@@QEAA?AV?$basic_string@DU?$char_traits@D@std@@V?$allocator@D@2@@std@@AEBV56@@Z 000000018001b798     Agent.obj
 0002:000047b8       $unwind$?setAgentProperty@Agent@agent@monitoring@ibmras@@QEAAXAEBV?$basic_string@DU?$char_traits@D@std@@V?$allocator@D@2@@std@@0@Z 000000018001b7b8     Agent.obj
 0002:000047d0       $stateUnwindMap$?setAgentProperty@Agent@agent@monitoring@ibmras@@QEAAXAEBV?$basic_string@DU?$char_traits@D@std@@V?$allocator@D@2@@std@@0@Z 000000018001b7d0     Agent.obj
 0002:000047d0       $stateUnwindMap$?agentPropertyExists@Agent@agent@monitoring@ibmras@@QEAA_NAEBV?$basic_string@DU?$char_traits@D@std@@V?$allocator@D@2@@std@@@Z 000000018001b7d0     Agent.obj
 0002:000047d0       $stateUnwindMap$?sendMessage@ConfigurationConnector@connector@monitoring@ibmras@@UEAAHAEBV?$basic_string@DU?$char_traits@D@std@@V?$allocator@D@2@@std@@IPEAX@Z 000000018001b7d0     ConfigurationConnector.obj
 0002:000047e0       $ip2state$?setAgentProperty@Agent@agent@monitoring@ibmras@@QEAAXAEBV?$basic_string@DU?$char_traits@D@std@@V?$allocator@D@2@@std@@0@Z 000000018001b7e0     Agent.obj
 0002:00004800       $unwind$?agentPropertyExists@Agent@agent@monitoring@ibmras@@QEAA_NAEBV?$basic_string@DU?$char_traits@D@std@@V?$allocator@D@2@@std@@@Z 000000018001b800     Agent.obj
 0002:00004818       $ip2state$?agentPropertyExists@Agent@agent@monitoring@ibmras@@QEAA_NAEBV?$basic_string@DU?$char_traits@D@std@@V?$allocator@D@2@@std@@@Z 000000018001b818     Agent.obj
 0002:00004838       $unwind$?setHeadlessRunning@Agent@agent@monitoring@ibmras@@QEAAX_N@Z 000000018001b838     Agent.obj
 0002:00004860       $stateUnwindMap$?setHeadlessRunning@Agent@agent@monitoring@ibmras@@QEAAX_N@Z 000000018001b860     Agent.obj
 0002:000048a0       $ip2state$?setHeadlessRunning@Agent@agent@monitoring@ibmras@@QEAAX_N@Z 000000018001b8a0     Agent.obj
 0002:000048f0       $unwind$?loadPropertiesFile@Agent@agent@monitoring@ibmras@@QEAA_NPEBD@Z 000000018001b8f0     Agent.obj
 0002:00004908       $stateUnwindMap$?loadPropertiesFile@Agent@agent@monitoring@ibmras@@QEAA_NPEBD@Z 000000018001b908     Agent.obj
 0002:00004918       $ip2state$?loadPropertiesFile@Agent@agent@monitoring@ibmras@@QEAA_NPEBD@Z 000000018001b918     Agent.obj
 0002:00004940       $unwind$??4?$deque@VReceivedMessage@ConnectorManager@connector@monitoring@ibmras@@V?$allocator@VReceivedMessage@ConnectorManager@connector@monitoring@ibmras@@@std@@@std@@QEAAAEAV01@AEBV01@@Z 000000018001b940     Agent.obj
 0002:00004950       $chain$0$??4?$deque@VReceivedMessage@ConnectorManager@connector@monitoring@ibmras@@V?$allocator@VReceivedMessage@ConnectorManager@connector@monitoring@ibmras@@@std@@@std@@QEAAAEAV01@AEBV01@@Z 000000018001b950     Agent.obj
 0002:00004964       $chain$2$??4?$deque@VReceivedMessage@ConnectorManager@connector@monitoring@ibmras@@V?$allocator@VReceivedMessage@ConnectorManager@connector@monitoring@ibmras@@@std@@@std@@QEAAAEAV01@AEBV01@@Z 000000018001b964     Agent.obj
 0002:0000497c       $chain$3$??4?$deque@VReceivedMessage@ConnectorManager@connector@monitoring@ibmras@@V?$allocator@VReceivedMessage@ConnectorManager@connector@monitoring@ibmras@@@std@@@std@@QEAAAEAV01@AEBV01@@Z 000000018001b97c     Agent.obj
 0002:0000498c       $chain$4$??4?$deque@VReceivedMessage@ConnectorManager@connector@monitoring@ibmras@@V?$allocator@VReceivedMessage@ConnectorManager@connector@monitoring@ibmras@@@std@@@std@@QEAAAEAV01@AEBV01@@Z 000000018001b98c     Agent.obj
 0002:0000499c       $unwind$?erase@?$deque@VReceivedMessage@ConnectorManager@connector@monitoring@ibmras@@V?$allocator@VReceivedMessage@ConnectorManager@connector@monitoring@ibmras@@@std@@@std@@QEAA?AV?$_Deque_iterator@V?$_Deque_val@U?$_Deque_simple_types@VReceivedMessage@ConnectorManager@connector@monitoring@ibmras@@@std@@@std@@@2@V?$_Deque_const_iterator@V?$_Deque_val@U?$_Deque_simple_types@VReceivedMessage@ConnectorManager@connector@monitoring@ibmras@@@std@@@std@@@2@0@Z 000000018001b99c     Agent.obj
 0002:000049a8       $chain$5$?erase@?$deque@VReceivedMessage@ConnectorManager@connector@monitoring@ibmras@@V?$allocator@VReceivedMessage@ConnectorManager@connector@monitoring@ibmras@@@std@@@std@@QEAA?AV?$_Deque_iterator@V?$_Deque_val@U?$_Deque_simple_types@VReceivedMessage@ConnectorManager@connector@monitoring@ibmras@@@std@@@std@@@2@V?$_Deque_const_iterator@V?$_Deque_val@U?$_Deque_simple_types@VReceivedMessage@ConnectorManager@connector@monitoring@ibmras@@@std@@@std@@@2@0@Z 000000018001b9a8     Agent.obj
 0002:000049d0       $chain$6$?erase@?$deque@VReceivedMessage@ConnectorManager@connector@monitoring@ibmras@@V?$allocator@VReceivedMessage@ConnectorManager@connector@monitoring@ibmras@@@std@@@std@@QEAA?AV?$_Deque_iterator@V?$_Deque_val@U?$_Deque_simple_types@VReceivedMessage@ConnectorManager@connector@monitoring@ibmras@@@std@@@std@@@2@V?$_Deque_const_iterator@V?$_Deque_val@U?$_Deque_simple_types@VReceivedMessage@ConnectorManager@connector@monitoring@ibmras@@@std@@@std@@@2@0@Z 000000018001b9d0     Agent.obj
 0002:000049e8       $chain$7$?erase@?$deque@VReceivedMessage@ConnectorManager@connector@monitoring@ibmras@@V?$allocator@VReceivedMessage@ConnectorManager@connector@monitoring@ibmras@@@std@@@std@@QEAA?AV?$_Deque_iterator@V?$_Deque_val@U?$_Deque_simple_types@VReceivedMessage@ConnectorManager@connector@monitoring@ibmras@@@std@@@std@@@2@V?$_Deque_const_iterator@V?$_Deque_val@U?$_Deque_simple_types@VReceivedMessage@ConnectorManager@connector@monitoring@ibmras@@@std@@@std@@@2@0@Z 000000018001b9e8     Agent.obj
 0002:000049f8       $unwind$?append@?$basic_string@DU?$char_traits@D@std@@V?$allocator@D@2@@std@@QEAAAEAV12@QEBD_K@Z 000000018001b9f8     Agent.obj
 0002:00004a04       $chain$0$?append@?$basic_string@DU?$char_traits@D@std@@V?$allocator@D@2@@std@@QEAAAEAV12@QEBD_K@Z 000000018001ba04     Agent.obj
 0002:00004a18       $chain$1$?append@?$basic_string@DU?$char_traits@D@std@@V?$allocator@D@2@@std@@QEAAAEAV12@QEBD_K@Z 000000018001ba18     Agent.obj
 0002:00004a28       $unwind$?clear@?$_Tree@V?$_Tset_traits@PEAVReceiver@connector@monitoring@ibmras@@U?$less@PEAVReceiver@connector@monitoring@ibmras@@@std@@V?$allocator@PEAVReceiver@connector@monitoring@ibmras@@@6@$0A@@std@@@std@@QEAAXXZ 000000018001ba28     Agent.obj
 0002:00004a28       $unwind$?clear@?$_Tree@V?$_Tset_traits@PEAVConnector@connector@monitoring@ibmras@@U?$less@PEAVConnector@connector@monitoring@ibmras@@@std@@V?$allocator@PEAVConnector@connector@monitoring@ibmras@@@6@$0A@@std@@@std@@QEAAXXZ 000000018001ba28     Agent.obj
 0002:00004a48       $ip2state$?clear@?$_Tree@V?$_Tset_traits@PEAVReceiver@connector@monitoring@ibmras@@U?$less@PEAVReceiver@connector@monitoring@ibmras@@@std@@V?$allocator@PEAVReceiver@connector@monitoring@ibmras@@@6@$0A@@std@@@std@@QEAAXXZ 000000018001ba48     Agent.obj
 0002:00004a48       $ip2state$?clear@?$_Tree@V?$_Tset_traits@PEAVConnector@connector@monitoring@ibmras@@U?$less@PEAVConnector@connector@monitoring@ibmras@@@std@@V?$allocator@PEAVConnector@connector@monitoring@ibmras@@@6@$0A@@std@@@std@@QEAAXXZ 000000018001ba48     Agent.obj
 0002:00004a50       $unwind$?_Extract@?$_Tree_val@U?$_Tree_simple_types@PEAVReceiver@connector@monitoring@ibmras@@@std@@@std@@QEAAPEAU?$_Tree_node@PEAVReceiver@connector@monitoring@ibmras@@PEAX@2@V?$_Tree_const_iterator@V?$_Tree_val@U?$_Tree_simple_types@PEAVReceiver@connector@monitoring@ibmras@@@std@@@std@@@2@@Z 000000018001ba50     Agent.obj
 0002:00004a50       $unwind$?_Extract@?$_Tree_val@U?$_Tree_simple_types@PEAVConnector@connector@monitoring@ibmras@@@std@@@std@@QEAAPEAU?$_Tree_node@PEAVConnector@connector@monitoring@ibmras@@PEAX@2@V?$_Tree_const_iterator@V?$_Tree_val@U?$_Tree_simple_types@PEAVConnector@connector@monitoring@ibmras@@@std@@@std@@@2@@Z 000000018001ba50     Agent.obj
 0002:00004a58       $unwind$?add@?$DataSourceList@Upushsource@@@agent@monitoring@ibmras@@QEAAXIPEAUpushsource@@V?$basic_string@DU?$char_traits@D@std@@V?$allocator@D@2@@std@@@Z 000000018001ba58     Agent.obj
 0002:00004a58       $unwind$?add@?$DataSourceList@Upullsource@@@agent@monitoring@ibmras@@QEAAXIPEAUpullsource@@V?$basic_string@DU?$char_traits@D@std@@V?$allocator@D@2@@std@@@Z 000000018001ba58     Agent.obj
 0002:00004a7c       $stateUnwindMap$?add@?$DataSourceList@Upullsource@@@agent@monitoring@ibmras@@QEAAXIPEAUpullsource@@V?$basic_string@DU?$char_traits@D@std@@V?$allocator@D@2@@std@@@Z 000000018001ba7c     Agent.obj
 0002:00004a7c       $stateUnwindMap$?add@?$DataSourceList@Upushsource@@@agent@monitoring@ibmras@@QEAAXIPEAUpushsource@@V?$basic_string@DU?$char_traits@D@std@@V?$allocator@D@2@@std@@@Z 000000018001ba7c     Agent.obj
 0002:00004aa0       $ip2state$?add@?$DataSourceList@Upullsource@@@agent@monitoring@ibmras@@QEAAXIPEAUpullsource@@V?$basic_string@DU?$char_traits@D@std@@V?$allocator@D@2@@std@@@Z 000000018001baa0     Agent.obj
 0002:00004aa0       $ip2state$?add@?$DataSourceList@Upushsource@@@agent@monitoring@ibmras@@QEAAXIPEAUpushsource@@V?$basic_string@DU?$char_traits@D@std@@V?$allocator@D@2@@std@@@Z 000000018001baa0     Agent.obj
 0002:00004ac0       $unwind$?toString@?$DataSourceList@Upullsource@@@agent@monitoring@ibmras@@QEAA?AV?$basic_string@DU?$char_traits@D@std@@V?$allocator@D@2@@std@@XZ 000000018001bac0     Agent.obj
 0002:00004ac0       $unwind$?toString@?$DataSourceList@Upushsource@@@agent@monitoring@ibmras@@QEAA?AV?$basic_string@DU?$char_traits@D@std@@V?$allocator@D@2@@std@@XZ 000000018001bac0     Agent.obj
 0002:00004ae0       $stateUnwindMap$?toString@?$DataSourceList@Upushsource@@@agent@monitoring@ibmras@@QEAA?AV?$basic_string@DU?$char_traits@D@std@@V?$allocator@D@2@@std@@XZ 000000018001bae0     Agent.obj
 0002:00004ae0       $stateUnwindMap$?toString@?$DataSourceList@Upullsource@@@agent@monitoring@ibmras@@QEAA?AV?$basic_string@DU?$char_traits@D@std@@V?$allocator@D@2@@std@@XZ 000000018001bae0     Agent.obj
 0002:00004b00       $ip2state$?toString@?$DataSourceList@Upushsource@@@agent@monitoring@ibmras@@QEAA?AV?$basic_string@DU?$char_traits@D@std@@V?$allocator@D@2@@std@@XZ 000000018001bb00     Agent.obj
 0002:00004b00       $ip2state$?toString@?$DataSourceList@Upullsource@@@agent@monitoring@ibmras@@QEAA?AV?$basic_string@DU?$char_traits@D@std@@V?$allocator@D@2@@std@@XZ 000000018001bb00     Agent.obj
 0002:00004b40       $unwind$?getBuckets@?$DataSourceList@Upushsource@@@agent@monitoring@ibmras@@QEAA?AV?$vector@PEAVBucket@agent@monitoring@ibmras@@V?$allocator@PEAVBucket@agent@monitoring@ibmras@@@std@@@std@@XZ 000000018001bb40     Agent.obj
 0002:00004b40       $unwind$?getBuckets@?$DataSourceList@Upullsource@@@agent@monitoring@ibmras@@QEAA?AV?$vector@PEAVBucket@agent@monitoring@ibmras@@V?$allocator@PEAVBucket@agent@monitoring@ibmras@@@std@@@std@@XZ 000000018001bb40     Agent.obj
 0002:00004b5c       $stateUnwindMap$?getBuckets@?$DataSourceList@Upullsource@@@agent@monitoring@ibmras@@QEAA?AV?$vector@PEAVBucket@agent@monitoring@ibmras@@V?$allocator@PEAVBucket@agent@monitoring@ibmras@@@std@@@std@@XZ 000000018001bb5c     Agent.obj
 0002:00004b5c       $stateUnwindMap$?getBuckets@?$DataSourceList@Upushsource@@@agent@monitoring@ibmras@@QEAA?AV?$vector@PEAVBucket@agent@monitoring@ibmras@@V?$allocator@PEAVBucket@agent@monitoring@ibmras@@@std@@@std@@XZ 000000018001bb5c     Agent.obj
 0002:00004b80       $ip2state$?getBuckets@?$DataSourceList@Upullsource@@@agent@monitoring@ibmras@@QEAA?AV?$vector@PEAVBucket@agent@monitoring@ibmras@@V?$allocator@PEAVBucket@agent@monitoring@ibmras@@@std@@@std@@XZ 000000018001bb80     Agent.obj
 0002:00004b80       $ip2state$?getBuckets@?$DataSourceList@Upushsource@@@agent@monitoring@ibmras@@QEAA?AV?$vector@PEAVBucket@agent@monitoring@ibmras@@V?$allocator@PEAVBucket@agent@monitoring@ibmras@@@std@@@std@@XZ 000000018001bb80     Agent.obj
 0002:00004ba0       $unwind$??$_Emplace_reallocate@AEBQEAVPlugin@monitoring@ibmras@@@?$vector@PEAVPlugin@monitoring@ibmras@@V?$allocator@PEAVPlugin@monitoring@ibmras@@@std@@@std@@QEAAPEAPEAVPlugin@monitoring@ibmras@@QEAPEAV234@AEBQEAV234@@Z 000000018001bba0     Agent.obj
 0002:00004bb0       $chain$2$??$_Emplace_reallocate@AEBQEAVPlugin@monitoring@ibmras@@@?$vector@PEAVPlugin@monitoring@ibmras@@V?$allocator@PEAVPlugin@monitoring@ibmras@@@std@@@std@@QEAAPEAPEAVPlugin@monitoring@ibmras@@QEAPEAV234@AEBQEAV234@@Z 000000018001bbb0     Agent.obj
 0002:00004bcc       $chain$3$??$_Emplace_reallocate@AEBQEAVPlugin@monitoring@ibmras@@@?$vector@PEAVPlugin@monitoring@ibmras@@V?$allocator@PEAVPlugin@monitoring@ibmras@@@std@@@std@@QEAAPEAPEAVPlugin@monitoring@ibmras@@QEAPEAV234@AEBQEAV234@@Z 000000018001bbcc     Agent.obj
 0002:00004bdc       $unwind$??$copy@V?$_Deque_const_iterator@V?$_Deque_val@U?$_Deque_simple_types@VReceivedMessage@ConnectorManager@connector@monitoring@ibmras@@@std@@@std@@@std@@V?$_Deque_iterator@V?$_Deque_val@U?$_Deque_simple_types@VReceivedMessage@ConnectorManager@connector@monitoring@ibmras@@@std@@@std@@@2@@std@@YA?AV?$_Deque_iterator@V?$_Deque_val@U?$_Deque_simple_types@VReceivedMessage@ConnectorManager@connector@monitoring@ibmras@@@std@@@std@@@0@V?$_Deque_const_iterator@V?$_Deque_val@U?$_Deque_simple_types@VReceivedMessage@ConnectorManager@connector@monitoring@ibmras@@@std@@@std@@@0@0V10@@Z 000000018001bbdc     Agent.obj
 0002:00004be8       $chain$3$??$copy@V?$_Deque_const_iterator@V?$_Deque_val@U?$_Deque_simple_types@VReceivedMessage@ConnectorManager@connector@monitoring@ibmras@@@std@@@std@@@std@@V?$_Deque_iterator@V?$_Deque_val@U?$_Deque_simple_types@VReceivedMessage@ConnectorManager@connector@monitoring@ibmras@@@std@@@std@@@2@@std@@YA?AV?$_Deque_iterator@V?$_Deque_val@U?$_Deque_simple_types@VReceivedMessage@ConnectorManager@connector@monitoring@ibmras@@@std@@@std@@@0@V?$_Deque_const_iterator@V?$_Deque_val@U?$_Deque_simple_types@VReceivedMessage@ConnectorManager@connector@monitoring@ibmras@@@std@@@std@@@0@0V10@@Z 000000018001bbe8     Agent.obj
 0002:00004c08       $chain$5$??$copy@V?$_Deque_const_iterator@V?$_Deque_val@U?$_Deque_simple_types@VReceivedMessage@ConnectorManager@connector@monitoring@ibmras@@@std@@@std@@@std@@V?$_Deque_iterator@V?$_Deque_val@U?$_Deque_simple_types@VReceivedMessage@ConnectorManager@connector@monitoring@ibmras@@@std@@@std@@@2@@std@@YA?AV?$_Deque_iterator@V?$_Deque_val@U?$_Deque_simple_types@VReceivedMessage@ConnectorManager@connector@monitoring@ibmras@@@std@@@std@@@0@V?$_Deque_const_iterator@V?$_Deque_val@U?$_Deque_simple_types@VReceivedMessage@ConnectorManager@connector@monitoring@ibmras@@@std@@@std@@@0@0V10@@Z 000000018001bc08     Agent.obj
 0002:00004c20       $chain$6$??$copy@V?$_Deque_const_iterator@V?$_Deque_val@U?$_Deque_simple_types@VReceivedMessage@ConnectorManager@connector@monitoring@ibmras@@@std@@@std@@@std@@V?$_Deque_iterator@V?$_Deque_val@U?$_Deque_simple_types@VReceivedMessage@ConnectorManager@connector@monitoring@ibmras@@@std@@@std@@@2@@std@@YA?AV?$_Deque_iterator@V?$_Deque_val@U?$_Deque_simple_types@VReceivedMessage@ConnectorManager@connector@monitoring@ibmras@@@std@@@std@@@0@V?$_Deque_const_iterator@V?$_Deque_val@U?$_Deque_simple_types@VReceivedMessage@ConnectorManager@connector@monitoring@ibmras@@@std@@@std@@@0@0V10@@Z 000000018001bc20     Agent.obj
 0002:00004c30       $chain$7$??$copy@V?$_Deque_const_iterator@V?$_Deque_val@U?$_Deque_simple_types@VReceivedMessage@ConnectorManager@connector@monitoring@ibmras@@@std@@@std@@@std@@V?$_Deque_iterator@V?$_Deque_val@U?$_Deque_simple_types@VReceivedMessage@ConnectorManager@connector@monitoring@ibmras@@@std@@@std@@@2@@std@@YA?AV?$_Deque_iterator@V?$_Deque_val@U?$_Deque_simple_types@VReceivedMessage@ConnectorManager@connector@monitoring@ibmras@@@std@@@std@@@0@V?$_Deque_const_iterator@V?$_Deque_val@U?$_Deque_simple_types@VReceivedMessage@ConnectorManager@connector@monitoring@ibmras@@@std@@@std@@@0@0V10@@Z 000000018001bc30     Agent.obj
 0002:00004c40       $unwind$??$insert@V?$_Deque_const_iterator@V?$_Deque_val@U?$_Deque_simple_types@VReceivedMessage@ConnectorManager@connector@monitoring@ibmras@@@std@@@std@@@std@@X@?$deque@VReceivedMessage@ConnectorManager@connector@monitoring@ibmras@@V?$allocator@VReceivedMessage@ConnectorManager@connector@monitoring@ibmras@@@std@@@std@@QEAA?AV?$_Deque_iterator@V?$_Deque_val@U?$_Deque_simple_types@VReceivedMessage@ConnectorManager@connector@monitoring@ibmras@@@std@@@std@@@1@V?$_Deque_const_iterator@V?$_Deque_val@U?$_Deque_simple_types@VReceivedMessage@ConnectorManager@connector@monitoring@ibmras@@@std@@@std@@@1@00@Z 000000018001bc40     Agent.obj
 0002:00004c60       $stateUnwindMap$??$insert@V?$_Deque_const_iterator@V?$_Deque_val@U?$_Deque_simple_types@VReceivedMessage@ConnectorManager@connector@monitoring@ibmras@@@std@@@std@@@std@@X@?$deque@VReceivedMessage@ConnectorManager@connector@monitoring@ibmras@@V?$allocator@VReceivedMessage@ConnectorManager@connector@monitoring@ibmras@@@std@@@std@@QEAA?AV?$_Deque_iterator@V?$_Deque_val@U?$_Deque_simple_types@VReceivedMessage@ConnectorManager@connector@monitoring@ibmras@@@std@@@std@@@1@V?$_Deque_const_iterator@V?$_Deque_val@U?$_Deque_simple_types@VReceivedMessage@ConnectorManager@connector@monitoring@ibmras@@@std@@@std@@@1@00@Z 000000018001bc60     Agent.obj
 0002:00004c68       $ip2state$??$insert@V?$_Deque_const_iterator@V?$_Deque_val@U?$_Deque_simple_types@VReceivedMessage@ConnectorManager@connector@monitoring@ibmras@@@std@@@std@@@std@@X@?$deque@VReceivedMessage@ConnectorManager@connector@monitoring@ibmras@@V?$allocator@VReceivedMessage@ConnectorManager@connector@monitoring@ibmras@@@std@@@std@@QEAA?AV?$_Deque_iterator@V?$_Deque_val@U?$_Deque_simple_types@VReceivedMessage@ConnectorManager@connector@monitoring@ibmras@@@std@@@std@@@1@V?$_Deque_const_iterator@V?$_Deque_val@U?$_Deque_simple_types@VReceivedMessage@ConnectorManager@connector@monitoring@ibmras@@@std@@@std@@@1@00@Z 000000018001bc68     Agent.obj
 0002:00004c80       $unwind$??$_Reallocate_grow_by@V<lambda_65e615be2a453ca0576c979606f46740>@@PEBD_K@?$basic_string@DU?$char_traits@D@std@@V?$allocator@D@2@@std@@QEAAAEAV01@_KV<lambda_65e615be2a453ca0576c979606f46740>@@PEBD_K@Z 000000018001bc80     Agent.obj
 0002:00004c90       $chain$3$??$_Reallocate_grow_by@V<lambda_65e615be2a453ca0576c979606f46740>@@PEBD_K@?$basic_string@DU?$char_traits@D@std@@V?$allocator@D@2@@std@@QEAAAEAV01@_KV<lambda_65e615be2a453ca0576c979606f46740>@@PEBD_K@Z 000000018001bc90     Agent.obj
 0002:00004cb0       $chain$4$??$_Reallocate_grow_by@V<lambda_65e615be2a453ca0576c979606f46740>@@PEBD_K@?$basic_string@DU?$char_traits@D@std@@V?$allocator@D@2@@std@@QEAAAEAV01@_KV<lambda_65e615be2a453ca0576c979606f46740>@@PEBD_K@Z 000000018001bcb0     Agent.obj
 0002:00004cc0       $unwind$?_Growmap@?$deque@VReceivedMessage@ConnectorManager@connector@monitoring@ibmras@@V?$allocator@VReceivedMessage@ConnectorManager@connector@monitoring@ibmras@@@std@@@std@@IEAAX_K@Z 000000018001bcc0     Agent.obj
 0002:00004ccc       $chain$1$?_Growmap@?$deque@VReceivedMessage@ConnectorManager@connector@monitoring@ibmras@@V?$allocator@VReceivedMessage@ConnectorManager@connector@monitoring@ibmras@@@std@@@std@@IEAAX_K@Z 000000018001bccc     Agent.obj
 0002:00004ce4       $chain$4$?_Growmap@?$deque@VReceivedMessage@ConnectorManager@connector@monitoring@ibmras@@V?$allocator@VReceivedMessage@ConnectorManager@connector@monitoring@ibmras@@@std@@@std@@IEAAX_K@Z 000000018001bce4     Agent.obj
 0002:00004d00       $chain$5$?_Growmap@?$deque@VReceivedMessage@ConnectorManager@connector@monitoring@ibmras@@V?$allocator@VReceivedMessage@ConnectorManager@connector@monitoring@ibmras@@@std@@@std@@IEAAX_K@Z 000000018001bd00     Agent.obj
 0002:00004d10       $chain$7$?_Growmap@?$deque@VReceivedMessage@ConnectorManager@connector@monitoring@ibmras@@V?$allocator@VReceivedMessage@ConnectorManager@connector@monitoring@ibmras@@@std@@@std@@IEAAX_K@Z 000000018001bd10     Agent.obj
 0002:00004d28       $chain$8$?_Growmap@?$deque@VReceivedMessage@ConnectorManager@connector@monitoring@ibmras@@V?$allocator@VReceivedMessage@ConnectorManager@connector@monitoring@ibmras@@@std@@@std@@IEAAX_K@Z 000000018001bd28     Agent.obj
 0002:00004d38       $unwind$?push_back@?$deque@VReceivedMessage@ConnectorManager@connector@monitoring@ibmras@@V?$allocator@VReceivedMessage@ConnectorManager@connector@monitoring@ibmras@@@std@@@std@@QEAAXAEBVReceivedMessage@ConnectorManager@connector@monitoring@ibmras@@@Z 000000018001bd38     Agent.obj
 0002:00004d50       $stateUnwindMap$?push_back@?$deque@VReceivedMessage@ConnectorManager@connector@monitoring@ibmras@@V?$allocator@VReceivedMessage@ConnectorManager@connector@monitoring@ibmras@@@std@@@std@@QEAAXAEBVReceivedMessage@ConnectorManager@connector@monitoring@ibmras@@@Z 000000018001bd50     Agent.obj
 0002:00004d58       $ip2state$?push_back@?$deque@VReceivedMessage@ConnectorManager@connector@monitoring@ibmras@@V?$allocator@VReceivedMessage@ConnectorManager@connector@monitoring@ibmras@@@std@@@std@@QEAAXAEBVReceivedMessage@ConnectorManager@connector@monitoring@ibmras@@@Z 000000018001bd58     Agent.obj
 0002:00004d70       $unwind$?reserve@?$basic_string@DU?$char_traits@D@std@@V?$allocator@D@2@@std@@QEAAX_K@Z 000000018001bd70     Agent.obj
 0002:00004d7c       $chain$0$?reserve@?$basic_string@DU?$char_traits@D@std@@V?$allocator@D@2@@std@@QEAAX_K@Z 000000018001bd7c     Agent.obj
 0002:00004d90       $chain$2$?reserve@?$basic_string@DU?$char_traits@D@std@@V?$allocator@D@2@@std@@QEAAX_K@Z 000000018001bd90     Agent.obj
 0002:00004da8       $chain$3$?reserve@?$basic_string@DU?$char_traits@D@std@@V?$allocator@D@2@@std@@QEAAX_K@Z 000000018001bda8     Agent.obj
 0002:00004db8       $chain$4$?reserve@?$basic_string@DU?$char_traits@D@std@@V?$allocator@D@2@@std@@QEAAX_K@Z 000000018001bdb8     Agent.obj
 0002:00004dc8       $chain$5$?reserve@?$basic_string@DU?$char_traits@D@std@@V?$allocator@D@2@@std@@QEAAX_K@Z 000000018001bdc8     Agent.obj
 0002:00004de4       $unwind$?toString@?$DataSource@Upushsource@@@agent@monitoring@ibmras@@QEAA?AV?$basic_string@DU?$char_traits@D@std@@V?$allocator@D@2@@std@@XZ 000000018001bde4     Agent.obj
 0002:00004de4       $unwind$?toString@?$DataSource@Upullsource@@@agent@monitoring@ibmras@@QEAA?AV?$basic_string@DU?$char_traits@D@std@@V?$allocator@D@2@@std@@XZ 000000018001bde4     Agent.obj
 0002:00004e04       $stateUnwindMap$?toString@?$DataSource@Upullsource@@@agent@monitoring@ibmras@@QEAA?AV?$basic_string@DU?$char_traits@D@std@@V?$allocator@D@2@@std@@XZ 000000018001be04     Agent.obj
 0002:00004e04       $stateUnwindMap$?toString@?$DataSource@Upushsource@@@agent@monitoring@ibmras@@QEAA?AV?$basic_string@DU?$char_traits@D@std@@V?$allocator@D@2@@std@@XZ 000000018001be04     Agent.obj
 0002:00004e28       $ip2state$?toString@?$DataSource@Upushsource@@@agent@monitoring@ibmras@@QEAA?AV?$basic_string@DU?$char_traits@D@std@@V?$allocator@D@2@@std@@XZ 000000018001be28     Agent.obj
 0002:00004e28       $ip2state$?toString@?$DataSource@Upullsource@@@agent@monitoring@ibmras@@QEAA?AV?$basic_string@DU?$char_traits@D@std@@V?$allocator@D@2@@std@@XZ 000000018001be28     Agent.obj
 0002:00004e60       $unwind$??$_Insert_range@PEAPEAVPlugin@monitoring@ibmras@@@?$vector@PEAVPlugin@monitoring@ibmras@@V?$allocator@PEAVPlugin@monitoring@ibmras@@@std@@@std@@AEAAXV?$_Vector_const_iterator@V?$_Vector_val@U?$_Simple_types@PEAVPlugin@monitoring@ibmras@@@std@@@std@@@1@PEAPEAVPlugin@monitoring@ibmras@@1Uforward_iterator_tag@1@@Z 000000018001be60     Agent.obj
 0002:00004e74       $chain$1$??$_Insert_range@PEAPEAVPlugin@monitoring@ibmras@@@?$vector@PEAVPlugin@monitoring@ibmras@@V?$allocator@PEAVPlugin@monitoring@ibmras@@@std@@@std@@AEAAXV?$_Vector_const_iterator@V?$_Vector_val@U?$_Simple_types@PEAVPlugin@monitoring@ibmras@@@std@@@std@@@1@PEAPEAVPlugin@monitoring@ibmras@@1Uforward_iterator_tag@1@@Z 000000018001be74     Agent.obj
 0002:00004e8c       $chain$2$??$_Insert_range@PEAPEAVPlugin@monitoring@ibmras@@@?$vector@PEAVPlugin@monitoring@ibmras@@V?$allocator@PEAVPlugin@monitoring@ibmras@@@std@@@std@@AEAAXV?$_Vector_const_iterator@V?$_Vector_val@U?$_Simple_types@PEAVPlugin@monitoring@ibmras@@@std@@@std@@@1@PEAPEAVPlugin@monitoring@ibmras@@1Uforward_iterator_tag@1@@Z 000000018001be8c     Agent.obj
 0002:00004e9c       $chain$3$??$_Insert_range@PEAPEAVPlugin@monitoring@ibmras@@@?$vector@PEAVPlugin@monitoring@ibmras@@V?$allocator@PEAVPlugin@monitoring@ibmras@@@std@@@std@@AEAAXV?$_Vector_const_iterator@V?$_Vector_val@U?$_Simple_types@PEAVPlugin@monitoring@ibmras@@@std@@@std@@@1@PEAPEAVPlugin@monitoring@ibmras@@1Uforward_iterator_tag@1@@Z 000000018001be9c     Agent.obj
 0002:00004eb4       $unwind$??$rotate@V?$_Deque_iterator@V?$_Deque_val@U?$_Deque_simple_types@VReceivedMessage@ConnectorManager@connector@monitoring@ibmras@@@std@@@std@@@std@@@std@@YA?AV?$_Deque_iterator@V?$_Deque_val@U?$_Deque_simple_types@VReceivedMessage@ConnectorManager@connector@monitoring@ibmras@@@std@@@std@@@0@V10@00@Z 000000018001beb4     Agent.obj
 0002:00004ec0       $chain$3$??$rotate@V?$_Deque_iterator@V?$_Deque_val@U?$_Deque_simple_types@VReceivedMessage@ConnectorManager@connector@monitoring@ibmras@@@std@@@std@@@std@@@std@@YA?AV?$_Deque_iterator@V?$_Deque_val@U?$_Deque_simple_types@VReceivedMessage@ConnectorManager@connector@monitoring@ibmras@@@std@@@std@@@0@V10@00@Z 000000018001bec0     Agent.obj
 0002:00004ee0       $chain$6$??$rotate@V?$_Deque_iterator@V?$_Deque_val@U?$_Deque_simple_types@VReceivedMessage@ConnectorManager@connector@monitoring@ibmras@@@std@@@std@@@std@@@std@@YA?AV?$_Deque_iterator@V?$_Deque_val@U?$_Deque_simple_types@VReceivedMessage@ConnectorManager@connector@monitoring@ibmras@@@std@@@std@@@0@V10@00@Z 000000018001bee0     Agent.obj
 0002:00004efc       $chain$7$??$rotate@V?$_Deque_iterator@V?$_Deque_val@U?$_Deque_simple_types@VReceivedMessage@ConnectorManager@connector@monitoring@ibmras@@@std@@@std@@@std@@@std@@YA?AV?$_Deque_iterator@V?$_Deque_val@U?$_Deque_simple_types@VReceivedMessage@ConnectorManager@connector@monitoring@ibmras@@@std@@@std@@@0@V10@00@Z 000000018001befc     Agent.obj
 0002:00004f0c       $chain$8$??$rotate@V?$_Deque_iterator@V?$_Deque_val@U?$_Deque_simple_types@VReceivedMessage@ConnectorManager@connector@monitoring@ibmras@@@std@@@std@@@std@@@std@@YA?AV?$_Deque_iterator@V?$_Deque_val@U?$_Deque_simple_types@VReceivedMessage@ConnectorManager@connector@monitoring@ibmras@@@std@@@std@@@0@V10@00@Z 000000018001bf0c     Agent.obj
 0002:00004f1c       $unwind$??$_Copy_nodes@U_Copy_tag@?$_Tree@V?$_Tset_traits@PEAVReceiver@connector@monitoring@ibmras@@U?$less@PEAVReceiver@connector@monitoring@ibmras@@@std@@V?$allocator@PEAVReceiver@connector@monitoring@ibmras@@@6@$0A@@std@@@std@@@?$_Tree@V?$_Tset_traits@PEAVReceiver@connector@monitoring@ibmras@@U?$less@PEAVReceiver@connector@monitoring@ibmras@@@std@@V?$allocator@PEAVReceiver@connector@monitoring@ibmras@@@6@$0A@@std@@@std@@IEAAPEAU?$_Tree_node@PEAVReceiver@connector@monitoring@ibmras@@PEAX@1@PEAU21@0U_Copy_tag@01@@Z 000000018001bf1c     Agent.obj
 0002:00004f1c       $unwind$??$_Copy_nodes@U_Copy_tag@?$_Tree@V?$_Tset_traits@PEAVConnector@connector@monitoring@ibmras@@U?$less@PEAVConnector@connector@monitoring@ibmras@@@std@@V?$allocator@PEAVConnector@connector@monitoring@ibmras@@@6@$0A@@std@@@std@@@?$_Tree@V?$_Tset_traits@PEAVConnector@connector@monitoring@ibmras@@U?$less@PEAVConnector@connector@monitoring@ibmras@@@std@@V?$allocator@PEAVConnector@connector@monitoring@ibmras@@@6@$0A@@std@@@std@@IEAAPEAU?$_Tree_node@PEAVConnector@connector@monitoring@ibmras@@PEAX@1@PEAU21@0U_Copy_tag@01@@Z 000000018001bf1c     Agent.obj
 0002:00004f30       $chain$0$??$_Copy_nodes@U_Copy_tag@?$_Tree@V?$_Tset_traits@PEAVReceiver@connector@monitoring@ibmras@@U?$less@PEAVReceiver@connector@monitoring@ibmras@@@std@@V?$allocator@PEAVReceiver@connector@monitoring@ibmras@@@6@$0A@@std@@@std@@@?$_Tree@V?$_Tset_traits@PEAVReceiver@connector@monitoring@ibmras@@U?$less@PEAVReceiver@connector@monitoring@ibmras@@@std@@V?$allocator@PEAVReceiver@connector@monitoring@ibmras@@@6@$0A@@std@@@std@@IEAAPEAU?$_Tree_node@PEAVReceiver@connector@monitoring@ibmras@@PEAX@1@PEAU21@0U_Copy_tag@01@@Z 000000018001bf30     Agent.obj
 0002:00004f30       $chain$0$??$_Copy_nodes@U_Copy_tag@?$_Tree@V?$_Tset_traits@PEAVConnector@connector@monitoring@ibmras@@U?$less@PEAVConnector@connector@monitoring@ibmras@@@std@@V?$allocator@PEAVConnector@connector@monitoring@ibmras@@@6@$0A@@std@@@std@@@?$_Tree@V?$_Tset_traits@PEAVConnector@connector@monitoring@ibmras@@U?$less@PEAVConnector@connector@monitoring@ibmras@@@std@@V?$allocator@PEAVConnector@connector@monitoring@ibmras@@@6@$0A@@std@@@std@@IEAAPEAU?$_Tree_node@PEAVConnector@connector@monitoring@ibmras@@PEAX@1@PEAU21@0U_Copy_tag@01@@Z 000000018001bf30     Agent.obj
 0002:00004f44       $chain$1$??$_Copy_nodes@U_Copy_tag@?$_Tree@V?$_Tset_traits@PEAVReceiver@connector@monitoring@ibmras@@U?$less@PEAVReceiver@connector@monitoring@ibmras@@@std@@V?$allocator@PEAVReceiver@connector@monitoring@ibmras@@@6@$0A@@std@@@std@@@?$_Tree@V?$_Tset_traits@PEAVReceiver@connector@monitoring@ibmras@@U?$less@PEAVReceiver@connector@monitoring@ibmras@@@std@@V?$allocator@PEAVReceiver@connector@monitoring@ibmras@@@6@$0A@@std@@@std@@IEAAPEAU?$_Tree_node@PEAVReceiver@connector@monitoring@ibmras@@PEAX@1@PEAU21@0U_Copy_tag@01@@Z 000000018001bf44     Agent.obj
 0002:00004f44       $chain$1$??$_Copy_nodes@U_Copy_tag@?$_Tree@V?$_Tset_traits@PEAVConnector@connector@monitoring@ibmras@@U?$less@PEAVConnector@connector@monitoring@ibmras@@@std@@V?$allocator@PEAVConnector@connector@monitoring@ibmras@@@6@$0A@@std@@@std@@@?$_Tree@V?$_Tset_traits@PEAVConnector@connector@monitoring@ibmras@@U?$less@PEAVConnector@connector@monitoring@ibmras@@@std@@V?$allocator@PEAVConnector@connector@monitoring@ibmras@@@6@$0A@@std@@@std@@IEAAPEAU?$_Tree_node@PEAVConnector@connector@monitoring@ibmras@@PEAX@1@PEAU21@0U_Copy_tag@01@@Z 000000018001bf44     Agent.obj
 0002:00004f54       $unwind$??$_Reverse_unchecked@V?$_Deque_unchecked_iterator@V?$_Deque_val@U?$_Deque_simple_types@VReceivedMessage@ConnectorManager@connector@monitoring@ibmras@@@std@@@std@@@std@@@std@@YAXV?$_Deque_unchecked_iterator@V?$_Deque_val@U?$_Deque_simple_types@VReceivedMessage@ConnectorManager@connector@monitoring@ibmras@@@std@@@std@@@0@0@Z 000000018001bf54     Agent.obj
 0002:00004f80       $ip2state$??$_Reverse_unchecked@V?$_Deque_unchecked_iterator@V?$_Deque_val@U?$_Deque_simple_types@VReceivedMessage@ConnectorManager@connector@monitoring@ibmras@@@std@@@std@@@std@@@std@@YAXV?$_Deque_unchecked_iterator@V?$_Deque_val@U?$_Deque_simple_types@VReceivedMessage@ConnectorManager@connector@monitoring@ibmras@@@std@@@std@@@0@0@Z 000000018001bf80     Agent.obj
 0002:00004f90       $unwind$?stopAll@ThreadPool@threads@agent@monitoring@ibmras@@QEAAXXZ 000000018001bf90     ThreadPool.obj
 0002:00004fa0       $unwind$??1ThreadPool@threads@agent@monitoring@ibmras@@QEAA@XZ 000000018001bfa0     ThreadPool.obj
 0002:00004fb8       $ip2state$??1ThreadPool@threads@agent@monitoring@ibmras@@QEAA@XZ 000000018001bfb8     ThreadPool.obj
 0002:00004fc0       $unwind$?threadEntry@WorkerThread@threads@agent@monitoring@ibmras@@SAPEAXPEAVThreadData@port@common@5@@Z 000000018001bfc0     WorkerThread.obj
 0002:00004fc8       $chain$0$?threadEntry@WorkerThread@threads@agent@monitoring@ibmras@@SAPEAXPEAVThreadData@port@common@5@@Z 000000018001bfc8     WorkerThread.obj
 0002:00004fdc       $chain$1$?threadEntry@WorkerThread@threads@agent@monitoring@ibmras@@SAPEAXPEAVThreadData@port@common@5@@Z 000000018001bfdc     WorkerThread.obj
 0002:00004ff0       $chain$2$?threadEntry@WorkerThread@threads@agent@monitoring@ibmras@@SAPEAXPEAVThreadData@port@common@5@@Z 000000018001bff0     WorkerThread.obj
 0002:00005000       $chain$3$?threadEntry@WorkerThread@threads@agent@monitoring@ibmras@@SAPEAXPEAVThreadData@port@common@5@@Z 000000018001c000     WorkerThread.obj
 0002:00005010       $unwind$??0SystemReceiver@agent@monitoring@ibmras@@QEAA@XZ 000000018001c010     SystemReceiver.obj
 0002:00005024       $stateUnwindMap$??0SystemReceiver@agent@monitoring@ibmras@@QEAA@XZ 000000018001c024     SystemReceiver.obj
 0002:00005038       $ip2state$??0SystemReceiver@agent@monitoring@ibmras@@QEAA@XZ 000000018001c038     SystemReceiver.obj
 0002:00005048       $unwind$?receiveMessage@SystemReceiver@agent@monitoring@ibmras@@UEAAXAEBV?$basic_string@DU?$char_traits@D@std@@V?$allocator@D@2@@std@@IPEAX@Z 000000018001c048     SystemReceiver.obj
 0002:00005070       $stateUnwindMap$?receiveMessage@SystemReceiver@agent@monitoring@ibmras@@UEAAXAEBV?$basic_string@DU?$char_traits@D@std@@V?$allocator@D@2@@std@@IPEAX@Z 000000018001c070     SystemReceiver.obj
 0002:000050b0       $ip2state$?receiveMessage@SystemReceiver@agent@monitoring@ibmras@@UEAAXAEBV?$basic_string@DU?$char_traits@D@std@@V?$allocator@D@2@@std@@IPEAX@Z 000000018001c0b0     SystemReceiver.obj
 0002:00005108       $unwind$??0ConnectorManager@connector@monitoring@ibmras@@QEAA@XZ 000000018001c108     ConnectorManager.obj
 0002:00005120       $stateUnwindMap$??0ConnectorManager@connector@monitoring@ibmras@@QEAA@XZ 000000018001c120     ConnectorManager.obj
 0002:00005158       $ip2state$??0ConnectorManager@connector@monitoring@ibmras@@QEAA@XZ 000000018001c158     ConnectorManager.obj
 0002:00005180       $unwind$__report_gsfailure 000000018001c180     MSVCRT:gs_report.obj
 0002:00005180       $unwind$?addReceiver@ConnectorManager@connector@monitoring@ibmras@@QEAAXPEAVReceiver@234@@Z 000000018001c180     ConnectorManager.obj
 0002:00005180       $unwind$?addConnector@ConnectorManager@connector@monitoring@ibmras@@QEAAXPEAVConnector@234@@Z 000000018001c180     ConnectorManager.obj
 0002:00005188       $unwind$?receiveMessage@ConnectorManager@connector@monitoring@ibmras@@UEAAXAEBV?$basic_string@DU?$char_traits@D@std@@V?$allocator@D@2@@std@@IPEAX@Z 000000018001c188     ConnectorManager.obj
 0002:000051a8       $stateUnwindMap$?receiveMessage@ConnectorManager@connector@monitoring@ibmras@@UEAAXAEBV?$basic_string@DU?$char_traits@D@std@@V?$allocator@D@2@@std@@IPEAX@Z 000000018001c1a8     ConnectorManager.obj
 0002:000051a8       $stateUnwindMap$?processMessage@ConnectorManager@connector@monitoring@ibmras@@QEAAXAEBV?$basic_string@DU?$char_traits@D@std@@V?$allocator@D@2@@std@@IPEAX@Z 000000018001c1a8     ConnectorManager.obj
 0002:000051b0       $ip2state$?receiveMessage@ConnectorManager@connector@monitoring@ibmras@@UEAAXAEBV?$basic_string@DU?$char_traits@D@std@@V?$allocator@D@2@@std@@IPEAX@Z 000000018001c1b0     ConnectorManager.obj
 0002:000051c8       $unwind$?processMessage@ConnectorManager@connector@monitoring@ibmras@@QEAAXAEBV?$basic_string@DU?$char_traits@D@std@@V?$allocator@D@2@@std@@IPEAX@Z 000000018001c1c8     ConnectorManager.obj
 0002:000051e0       $ip2state$?processMessage@ConnectorManager@connector@monitoring@ibmras@@QEAAXAEBV?$basic_string@DU?$char_traits@D@std@@V?$allocator@D@2@@std@@IPEAX@Z 000000018001c1e0     ConnectorManager.obj
 0002:000051f8       $unwind$?processReceivedMessages@ConnectorManager@connector@monitoring@ibmras@@AEAAXXZ 000000018001c1f8     ConnectorManager.obj
 0002:0000521c       $stateUnwindMap$?processReceivedMessages@ConnectorManager@connector@monitoring@ibmras@@AEAAXXZ 000000018001c21c     ConnectorManager.obj
 0002:00005230       $ip2state$?processReceivedMessages@ConnectorManager@connector@monitoring@ibmras@@AEAAXXZ 000000018001c230     ConnectorManager.obj
 0002:00005250       $unwind$?sendMessage@ConnectorManager@connector@monitoring@ibmras@@UEAAHAEBV?$basic_string@DU?$char_traits@D@std@@V?$allocator@D@2@@std@@IPEAX@Z 000000018001c250     ConnectorManager.obj
 0002:00005270       $stateUnwindMap$??2@YAPEAX_KAEBUnothrow_t@std@@@Z 000000018001c270     MSVCRT:new_scalar_nothrow.obj
 0002:00005270       $stateUnwindMap$?sendMessage@ConnectorManager@connector@monitoring@ibmras@@UEAAHAEBV?$basic_string@DU?$char_traits@D@std@@V?$allocator@D@2@@std@@IPEAX@Z 000000018001c270     ConnectorManager.obj
 0002:00005280       $tryMap$?sendMessage@ConnectorManager@connector@monitoring@ibmras@@UEAAHAEBV?$basic_string@DU?$char_traits@D@std@@V?$allocator@D@2@@std@@IPEAX@Z 000000018001c280     ConnectorManager.obj
 0002:00005294       $handlerMap$0$?sendMessage@ConnectorManager@connector@monitoring@ibmras@@UEAAHAEBV?$basic_string@DU?$char_traits@D@std@@V?$allocator@D@2@@std@@IPEAX@Z 000000018001c294     ConnectorManager.obj
 0002:000052a8       $ip2state$?sendMessage@ConnectorManager@connector@monitoring@ibmras@@UEAAHAEBV?$basic_string@DU?$char_traits@D@std@@V?$allocator@D@2@@std@@IPEAX@Z 000000018001c2a8     ConnectorManager.obj
 0002:000052b8       $unwind$?catch$0@?0??sendMessage@ConnectorManager@connector@monitoring@ibmras@@UEAAHAEBV?$basic_string@DU?$char_traits@D@std@@V?$allocator@D@2@@std@@IPEAX@Z@4HA 000000018001c2b8     ConnectorManager.obj
 0002:000052c8       $unwind$?getConnector@ConnectorManager@connector@monitoring@ibmras@@QEAAPEAVConnector@234@AEBV?$basic_string@DU?$char_traits@D@std@@V?$allocator@D@2@@std@@@Z 000000018001c2c8     ConnectorManager.obj
 0002:000052e8       $unwind$?start@ConnectorManager@connector@monitoring@ibmras@@UEAAHXZ 000000018001c2e8     ConnectorManager.obj
 0002:000052f8       $unwind$??0ReceivedMessage@ConnectorManager@connector@monitoring@ibmras@@QEAA@AEBV?$basic_string@DU?$char_traits@D@std@@V?$allocator@D@2@@std@@IPEAX@Z 000000018001c2f8     ConnectorManager.obj
 0002:00005314       $stateUnwindMap$??0ReceivedMessage@ConnectorManager@connector@monitoring@ibmras@@QEAA@AEBV?$basic_string@DU?$char_traits@D@std@@V?$allocator@D@2@@std@@IPEAX@Z 000000018001c314     ConnectorManager.obj
 0002:00005328       $ip2state$??0ReceivedMessage@ConnectorManager@connector@monitoring@ibmras@@QEAA@AEBV?$basic_string@DU?$char_traits@D@std@@V?$allocator@D@2@@std@@IPEAX@Z 000000018001c328     ConnectorManager.obj
 0002:00005338       $unwind$??0Bucket@agent@monitoring@ibmras@@QEAA@IIIAEBV?$basic_string@DU?$char_traits@D@std@@V?$allocator@D@2@@std@@@Z 000000018001c338     Bucket.obj
 0002:00005358       $stateUnwindMap$??0Bucket@agent@monitoring@ibmras@@QEAA@IIIAEBV?$basic_string@DU?$char_traits@D@std@@V?$allocator@D@2@@std@@@Z 000000018001c358     Bucket.obj
 0002:00005368       $ip2state$??0Bucket@agent@monitoring@ibmras@@QEAA@IIIAEBV?$basic_string@DU?$char_traits@D@std@@V?$allocator@D@2@@std@@@Z 000000018001c368     Bucket.obj
 0002:00005388       $unwind$??_GBucketData@Bucket@agent@monitoring@ibmras@@UEAAPEAXI@Z 000000018001c388     Bucket.obj
 0002:000053a0       $ip2state$??_GBucketData@Bucket@agent@monitoring@ibmras@@UEAAPEAXI@Z 000000018001c3a0     Bucket.obj
 0002:000053b0       $unwind$?publish@Bucket@agent@monitoring@ibmras@@QEAAXAEAVConnector@connector@34@@Z 000000018001c3b0     Bucket.obj
 0002:000053bc       $chain$3$?publish@Bucket@agent@monitoring@ibmras@@QEAAXAEAVConnector@connector@34@@Z 000000018001c3bc     Bucket.obj
 0002:000053dc       $chain$4$?publish@Bucket@agent@monitoring@ibmras@@QEAAXAEAVConnector@connector@34@@Z 000000018001c3dc     Bucket.obj
 0002:000053f0       $chain$5$?publish@Bucket@agent@monitoring@ibmras@@QEAAXAEAVConnector@connector@34@@Z 000000018001c3f0     Bucket.obj
 0002:00005400       $chain$6$?publish@Bucket@agent@monitoring@ibmras@@QEAAXAEAVConnector@connector@34@@Z 000000018001c400     Bucket.obj
 0002:00005414       $chain$7$?publish@Bucket@agent@monitoring@ibmras@@QEAAXAEAVConnector@connector@34@@Z 000000018001c414     Bucket.obj
 0002:00005424       $unwind$?spill@Bucket@agent@monitoring@ibmras@@AEAA_NI@Z 000000018001c424     Bucket.obj
 0002:0000543c       $unwind$?add@Bucket@agent@monitoring@ibmras@@QEAA_NPEAUmonitordata@@@Z 000000018001c43c     Bucket.obj
 0002:00005458       $stateUnwindMap$?add@Bucket@agent@monitoring@ibmras@@QEAA_NPEAUmonitordata@@@Z 000000018001c458     Bucket.obj
 0002:00005460       $ip2state$?add@Bucket@agent@monitoring@ibmras@@QEAA_NPEAUmonitordata@@@Z 000000018001c460     Bucket.obj
 0002:00005478       $unwind$?getNextData@Bucket@agent@monitoring@ibmras@@QEAAIIAEAHPEAPEAXAEAI@Z 000000018001c478     Bucket.obj
 0002:0000548c       $chain$0$?getNextData@Bucket@agent@monitoring@ibmras@@QEAAIIAEAHPEAPEAXAEAI@Z 000000018001c48c     Bucket.obj
 0002:000054a0       $chain$1$?getNextData@Bucket@agent@monitoring@ibmras@@QEAAIIAEAHPEAPEAXAEAI@Z 000000018001c4a0     Bucket.obj
 0002:000054b4       $chain$2$?getNextData@Bucket@agent@monitoring@ibmras@@QEAAIIAEAHPEAPEAXAEAI@Z 000000018001c4b4     Bucket.obj
 0002:000054c4       $chain$3$?getNextData@Bucket@agent@monitoring@ibmras@@QEAAIIAEAHPEAPEAXAEAI@Z 000000018001c4c4     Bucket.obj
 0002:000054d4       $unwind$?getNextPersistentData@Bucket@agent@monitoring@ibmras@@QEAAIIAEAIPEAPEAX@Z 000000018001c4d4     Bucket.obj
 0002:000054ec       $unwind$?republish@Bucket@agent@monitoring@ibmras@@QEAAXAEBV?$basic_string@DU?$char_traits@D@std@@V?$allocator@D@2@@std@@AEAVConnector@connector@34@@Z 000000018001c4ec     Bucket.obj
 0002:00005510       $stateUnwindMap$?republish@Bucket@agent@monitoring@ibmras@@QEAAXAEBV?$basic_string@DU?$char_traits@D@std@@V?$allocator@D@2@@std@@AEAVConnector@connector@34@@Z 000000018001c510     Bucket.obj
 0002:00005518       $ip2state$?republish@Bucket@agent@monitoring@ibmras@@QEAAXAEBV?$basic_string@DU?$char_traits@D@std@@V?$allocator@D@2@@std@@AEAVConnector@connector@34@@Z 000000018001c518     Bucket.obj
 0002:00005530       $unwind$?toString@Bucket@agent@monitoring@ibmras@@QEAA?AV?$basic_string@DU?$char_traits@D@std@@V?$allocator@D@2@@std@@XZ 000000018001c530     Bucket.obj
 0002:00005554       $stateUnwindMap$?toString@Bucket@agent@monitoring@ibmras@@QEAA?AV?$basic_string@DU?$char_traits@D@std@@V?$allocator@D@2@@std@@XZ 000000018001c554     Bucket.obj
 0002:00005590       $ip2state$?toString@Bucket@agent@monitoring@ibmras@@QEAA?AV?$basic_string@DU?$char_traits@D@std@@V?$allocator@D@2@@std@@XZ 000000018001c590     Bucket.obj
 0002:000055e0       $unwind$?add@BucketList@agent@monitoring@ibmras@@QEAA_NPEAVBucket@234@@Z 000000018001c5e0     BucketList.obj
 0002:000055ec       $unwind$?toString@BucketList@agent@monitoring@ibmras@@QEAA?AV?$basic_string@DU?$char_traits@D@std@@V?$allocator@D@2@@std@@XZ 000000018001c5ec     BucketList.obj
 0002:00005610       $stateUnwindMap$?toString@BucketList@agent@monitoring@ibmras@@QEAA?AV?$basic_string@DU?$char_traits@D@std@@V?$allocator@D@2@@std@@XZ 000000018001c610     BucketList.obj
 0002:00005628       $ip2state$?toString@BucketList@agent@monitoring@ibmras@@QEAA?AV?$basic_string@DU?$char_traits@D@std@@V?$allocator@D@2@@std@@XZ 000000018001c628     BucketList.obj
 0002:00005658       $unwind$?add@BucketList@agent@monitoring@ibmras@@QEAA_NV?$vector@PEAVBucket@agent@monitoring@ibmras@@V?$allocator@PEAVBucket@agent@monitoring@ibmras@@@std@@@std@@@Z 000000018001c658     BucketList.obj
 0002:00005670       $stateUnwindMap$?add@BucketList@agent@monitoring@ibmras@@QEAA_NV?$vector@PEAVBucket@agent@monitoring@ibmras@@V?$allocator@PEAVBucket@agent@monitoring@ibmras@@@std@@@std@@@Z 000000018001c670     BucketList.obj
 0002:00005678       $ip2state$?add@BucketList@agent@monitoring@ibmras@@QEAA_NV?$vector@PEAVBucket@agent@monitoring@ibmras@@V?$allocator@PEAVBucket@agent@monitoring@ibmras@@@std@@@std@@@Z 000000018001c678     BucketList.obj
 0002:00005688       $unwind$?findBucket@BucketList@agent@monitoring@ibmras@@QEAAPEAVBucket@234@AEBV?$basic_string@DU?$char_traits@D@std@@V?$allocator@D@2@@std@@@Z 000000018001c688     BucketList.obj
 0002:000056ac       $unwind$?addData@BucketList@agent@monitoring@ibmras@@QEAA_NPEAUmonitordata@@@Z 000000018001c6ac     BucketList.obj
 0002:000056b4       $unwind$?getIDs@BucketList@agent@monitoring@ibmras@@QEAA?AV?$vector@V?$basic_string@DU?$char_traits@D@std@@V?$allocator@D@2@@std@@V?$allocator@V?$basic_string@DU?$char_traits@D@std@@V?$allocator@D@2@@std@@@2@@std@@XZ 000000018001c6b4     BucketList.obj
 0002:000056d4       $stateUnwindMap$?getIDs@BucketList@agent@monitoring@ibmras@@QEAA?AV?$vector@V?$basic_string@DU?$char_traits@D@std@@V?$allocator@D@2@@std@@V?$allocator@V?$basic_string@DU?$char_traits@D@std@@V?$allocator@D@2@@std@@@2@@std@@XZ 000000018001c6d4     BucketList.obj
 0002:000056e8       $ip2state$?getIDs@BucketList@agent@monitoring@ibmras@@QEAA?AV?$vector@V?$basic_string@DU?$char_traits@D@std@@V?$allocator@D@2@@std@@V?$allocator@V?$basic_string@DU?$char_traits@D@std@@V?$allocator@D@2@@std@@@2@@std@@XZ 000000018001c6e8     BucketList.obj
 0002:00005700       $unwind$??$_Emplace_reallocate@V?$basic_string@DU?$char_traits@D@std@@V?$allocator@D@2@@std@@@?$vector@V?$basic_string@DU?$char_traits@D@std@@V?$allocator@D@2@@std@@V?$allocator@V?$basic_string@DU?$char_traits@D@std@@V?$allocator@D@2@@std@@@2@@std@@QEAAPEAV?$basic_string@DU?$char_traits@D@std@@V?$allocator@D@2@@1@QEAV21@$$QEAV21@@Z 000000018001c700     BucketList.obj
 0002:00005710       $chain$3$??$_Emplace_reallocate@V?$basic_string@DU?$char_traits@D@std@@V?$allocator@D@2@@std@@@?$vector@V?$basic_string@DU?$char_traits@D@std@@V?$allocator@D@2@@std@@V?$allocator@V?$basic_string@DU?$char_traits@D@std@@V?$allocator@D@2@@std@@@2@@std@@QEAAPEAV?$basic_string@DU?$char_traits@D@std@@V?$allocator@D@2@@1@QEAV21@$$QEAV21@@Z 000000018001c710     BucketList.obj
 0002:00005730       $chain$5$??$_Emplace_reallocate@V?$basic_string@DU?$char_traits@D@std@@V?$allocator@D@2@@std@@@?$vector@V?$basic_string@DU?$char_traits@D@std@@V?$allocator@D@2@@std@@V?$allocator@V?$basic_string@DU?$char_traits@D@std@@V?$allocator@D@2@@std@@@2@@std@@QEAAPEAV?$basic_string@DU?$char_traits@D@std@@V?$allocator@D@2@@1@QEAV21@$$QEAV21@@Z 000000018001c730     BucketList.obj
 0002:00005750       $chain$6$??$_Emplace_reallocate@V?$basic_string@DU?$char_traits@D@std@@V?$allocator@D@2@@std@@@?$vector@V?$basic_string@DU?$char_traits@D@std@@V?$allocator@D@2@@std@@V?$allocator@V?$basic_string@DU?$char_traits@D@std@@V?$allocator@D@2@@std@@@2@@std@@QEAAPEAV?$basic_string@DU?$char_traits@D@std@@V?$allocator@D@2@@1@QEAV21@$$QEAV21@@Z 000000018001c750     BucketList.obj
 0002:00005760       $unwind$?scan@Plugin@monitoring@ibmras@@SA?AV?$vector@PEAVPlugin@monitoring@ibmras@@V?$allocator@PEAVPlugin@monitoring@ibmras@@@std@@@std@@AEBV?$basic_string@DU?$char_traits@D@std@@V?$allocator@D@2@@5@@Z 000000018001c760     Plugin.obj
 0002:00005788       $stateUnwindMap$?scan@Plugin@monitoring@ibmras@@SA?AV?$vector@PEAVPlugin@monitoring@ibmras@@V?$allocator@PEAVPlugin@monitoring@ibmras@@@std@@@std@@AEBV?$basic_string@DU?$char_traits@D@std@@V?$allocator@D@2@@5@@Z 000000018001c788     Plugin.obj
 0002:00005798       $ip2state$?scan@Plugin@monitoring@ibmras@@SA?AV?$vector@PEAVPlugin@monitoring@ibmras@@V?$allocator@PEAVPlugin@monitoring@ibmras@@@std@@@std@@AEBV?$basic_string@DU?$char_traits@D@std@@V?$allocator@D@2@@5@@Z 000000018001c798     Plugin.obj
 0002:000057c0       $unwind$?processLibrary@Plugin@monitoring@ibmras@@SAPEAV123@AEBV?$basic_string@DU?$char_traits@D@std@@V?$allocator@D@2@@std@@@Z 000000018001c7c0     Plugin.obj
 0002:000057ec       $stateUnwindMap$?processLibrary@Plugin@monitoring@ibmras@@SAPEAV123@AEBV?$basic_string@DU?$char_traits@D@std@@V?$allocator@D@2@@std@@@Z 000000018001c7ec     Plugin.obj
 0002:000057f8       $ip2state$?processLibrary@Plugin@monitoring@ibmras@@SAPEAV123@AEBV?$basic_string@DU?$char_traits@D@std@@V?$allocator@D@2@@std@@@Z 000000018001c7f8     Plugin.obj
 0002:00005810       $unwind$??0ConfigurationConnector@connector@monitoring@ibmras@@QEAA@XZ 000000018001c810     ConfigurationConnector.obj
 0002:00005824       $stateUnwindMap$??0ConfigurationConnector@connector@monitoring@ibmras@@QEAA@XZ 000000018001c824     ConfigurationConnector.obj
 0002:00005838       $ip2state$??0ConfigurationConnector@connector@monitoring@ibmras@@QEAA@XZ 000000018001c838     ConfigurationConnector.obj
 0002:00005848       $unwind$?getConfig@ConfigurationConnector@connector@monitoring@ibmras@@QEAA?AV?$basic_string@DU?$char_traits@D@std@@V?$allocator@D@2@@std@@AEBV56@@Z 000000018001c848     ConfigurationConnector.obj
 0002:00005860       $stateUnwindMap$?getConfig@ConfigurationConnector@connector@monitoring@ibmras@@QEAA?AV?$basic_string@DU?$char_traits@D@std@@V?$allocator@D@2@@std@@AEBV56@@Z 000000018001c860     ConfigurationConnector.obj
 0002:00005870       $ip2state$?getConfig@ConfigurationConnector@connector@monitoring@ibmras@@QEAA?AV?$basic_string@DU?$char_traits@D@std@@V?$allocator@D@2@@std@@AEBV56@@Z 000000018001c870     ConfigurationConnector.obj
 0002:00005888       $unwind$?sendMessage@ConfigurationConnector@connector@monitoring@ibmras@@UEAAHAEBV?$basic_string@DU?$char_traits@D@std@@V?$allocator@D@2@@std@@IPEAX@Z 000000018001c888     ConfigurationConnector.obj
 0002:000058a8       $ip2state$?sendMessage@ConfigurationConnector@connector@monitoring@ibmras@@UEAAHAEBV?$basic_string@DU?$char_traits@D@std@@V?$allocator@D@2@@std@@IPEAX@Z 000000018001c8a8     ConfigurationConnector.obj
 0002:000058d0       $unwind$??1_Fac_tidy_reg_t@std@@QEAA@XZ 000000018001c8d0     msvcprt:locale0_implib.obj
 0002:000058e0       $ip2state$??1_Fac_tidy_reg_t@std@@QEAA@XZ 000000018001c8e0     msvcprt:locale0_implib.obj
 0002:000058e8       $xdatasym                  000000018001c8e8     MSVCRT:amdsecgs.obj
 0002:000058ec       $unwind$??_M@YAXPEAX_K1P6AX0@Z@Z 000000018001c8ec     MSVCRT:ehvecdtr.obj
 0002:00005914       $unwind$?__ArrayUnwind@@YAXPEAX_K1P6AX0@Z@Z 000000018001c914     MSVCRT:ehvecdtr.obj
 0002:00005940       $unwind$__scrt_is_nonwritable_in_current_image 000000018001c940     MSVCRT:utility.obj
 0002:00005960       $unwind$__scrt_is_nonwritable_in_current_image$filt$0 000000018001c960     MSVCRT:utility.obj
 0002:00005968       $unwind$?dllmain_crt_process_attach@@YAHQEAUHINSTANCE__@@QEAX@Z 000000018001c968     MSVCRT:dll_dllmain.obj
 0002:000059a4       $unwind$?dllmain_crt_process_detach@@YAH_N@Z 000000018001c9a4     MSVCRT:dll_dllmain.obj
 0002:000059dc       $unwind$?dllmain_dispatch@@YAHQEAUHINSTANCE__@@KQEAX@Z 000000018001c9dc     MSVCRT:dll_dllmain.obj
 0002:00005a04       $unwind$?filt$0@?0??dllmain_dispatch@@YAHQEAUHINSTANCE__@@KQEAX@Z@4HA 000000018001ca04     MSVCRT:dll_dllmain.obj
 0002:00005a0c       $unwind$capture_previous_context 000000018001ca0c     MSVCRT:gs_report.obj
 0002:00005a18       $unwind$?__scrt_throw_std_bad_array_new_length@@YAXXZ 000000018001ca18     MSVCRT:throw_bad_alloc.obj
 0002:00005a18       $unwind$?__scrt_throw_std_bad_alloc@@YAXXZ 000000018001ca18     MSVCRT:throw_bad_alloc.obj
 0002:00005a20       $unwind$??2@YAPEAX_KAEBUnothrow_t@std@@@Z 000000018001ca20     MSVCRT:new_scalar_nothrow.obj
 0002:00005a30       $tryMap$??2@YAPEAX_KAEBUnothrow_t@std@@@Z 000000018001ca30     MSVCRT:new_scalar_nothrow.obj
 0002:00005a44       $handlerMap$0$??2@YAPEAX_KAEBUnothrow_t@std@@@Z 000000018001ca44     MSVCRT:new_scalar_nothrow.obj
 0002:00005a58       $ip2state$??2@YAPEAX_KAEBUnothrow_t@std@@@Z 000000018001ca58     MSVCRT:new_scalar_nothrow.obj
 0002:00005a60       $unwind$?catch$0@?0???2@YAPEAX_KAEBUnothrow_t@std@@@Z@4HA 000000018001ca60     MSVCRT:new_scalar_nothrow.obj
 0002:00005a70       $unwind$__isa_available_init 000000018001ca70     MSVCRT:cpu_disp.obj
 0002:00005a84       $unwind$__scrt_fastfail    000000018001ca84     MSVCRT:utility_desktop.obj
 0002:00005a94       $unwind$__security_init_cookie 000000018001ca94     MSVCRT:gs_support.obj
 0002:00005aa0       $xdatasym                  000000018001caa0     MSVCRT:guard_dispatch.obj
 0002:00005aa4       $unwind$__GSHandlerCheckCommon 000000018001caa4     MSVCRT:gshandler.obj
 0002:00005aac       $unwind$__GSHandlerCheck_EH 000000018001caac     MSVCRT:gshandlereh.obj
 0002:00005bc0       .edata                     000000018001cbc0     agentcore.exp
 0002:00005be8       rgpv                       000000018001cbe8     agentcore.exp
 0002:00005f08       rgszName                   000000018001cf08     agentcore.exp
 0002:00006228       rgwOrd                     000000018001d228     agentcore.exp
 0002:000063b8       szName                     000000018001d3b8     agentcore.exp
 0002:000063c6       $N00001                    000000018001d3c6     agentcore.exp
 0002:000063fb       $N00002                    000000018001d3fb     agentcore.exp
 0002:0000642e       $N00003                    000000018001d42e     agentcore.exp
 0002:00006458       $N00004                    000000018001d458     agentcore.exp
 0002:00006495       $N00005                    000000018001d495     agentcore.exp
 0002:000064d9       $N00006                    000000018001d4d9     agentcore.exp
 0002:0000650f       $N00007                    000000018001d50f     agentcore.exp
 0002:00006543       $N00008                    000000018001d543     agentcore.exp
 0002:000065b2       $N00009                    000000018001d5b2     agentcore.exp
 0002:000065ec       $N00010                    000000018001d5ec     agentcore.exp
 0002:00006624       $N00011                    000000018001d624     agentcore.exp
 0002:00006653       $N00012                    000000018001d653     agentcore.exp
 0002:0000669b       $N00013                    000000018001d69b     agentcore.exp
 0002:000066da       $N00014                    000000018001d6da     agentcore.exp
 0002:0000671c       $N00015                    000000018001d71c     agentcore.exp
 0002:00006755       $N00016                    000000018001d755     agentcore.exp
 0002:00006779       $N00017                    000000018001d779     agentcore.exp
 0002:0000679e       $N00018                    000000018001d79e     agentcore.exp
 0002:000067cd       $N00019                    000000018001d7cd     agentcore.exp
 0002:000067fa       $N00020                    000000018001d7fa     agentcore.exp
 0002:00006823       $N00021                    000000018001d823     agentcore.exp
 0002:000068a4       $N00022                    000000018001d8a4     agentcore.exp
 0002:000068d1       $N00023                    000000018001d8d1     agentcore.exp
 0002:000068f6       $N00024                    000000018001d8f6     agentcore.exp
 0002:00006929       $N00025                    000000018001d929     agentcore.exp
 0002:0000695a       $N00026                    000000018001d95a     agentcore.exp
 0002:00006983       $N00027                    000000018001d983     agentcore.exp
 0002:000069c0       $N00028                    000000018001d9c0     agentcore.exp
 0002:000069fc       $N00029                    000000018001d9fc     agentcore.exp
 0002:00006a26       $N00030                    000000018001da26     agentcore.exp
 0002:00006a5b       $N00031                    000000018001da5b     agentcore.exp
 0002:00006a86       $N00032                    000000018001da86     agentcore.exp
 0002:00006ab5       $N00033                    000000018001dab5     agentcore.exp
 0002:00006af4       $N00034                    000000018001daf4     agentcore.exp
 0002:00006b2d       $N00035                    000000018001db2d     agentcore.exp
 0002:00006b51       $N00036                    000000018001db51     agentcore.exp
 0002:00006b76       $N00037                    000000018001db76     agentcore.exp
 0002:00006b97       $N00038                    000000018001db97     agentcore.exp
 0002:00006bbc       $N00039                    000000018001dbbc     agentcore.exp
 0002:00006be5       $N00040                    000000018001dbe5     agentcore.exp
 0002:00006c0f       $N00041                    000000018001dc0f     agentcore.exp
 0002:00006c4c       $N00042                    000000018001dc4c     agentcore.exp
 0002:00006c87       $N00043                    000000018001dc87     agentcore.exp
 0002:00006ccb       $N00044                    000000018001dccb     agentcore.exp
 0002:00006d09       $N00045                    000000018001dd09     agentcore.exp
 0002:00006d45       $N00046                    000000018001dd45     agentcore.exp
 0002:00006d87       $N00047                    000000018001dd87     agentcore.exp
 0002:00006dc7       $N00048                    000000018001ddc7     agentcore.exp
 0002:00006e17       $N00049                    000000018001de17     agentcore.exp
 0002:00006e61       $N00050                    000000018001de61     agentcore.exp
 0002:00006e96       $N00051                    000000018001de96     agentcore.exp
 0002:00006ecc       $N00052                    000000018001decc     agentcore.exp
 0002:00006f00       $N00053                    000000018001df00     agentcore.exp
 0002:00006f30       $N00054                    000000018001df30     agentcore.exp
 0002:00006f64       $N00055                    000000018001df64     agentcore.exp
 0002:00006f9e       $N00056                    000000018001df9e     agentcore.exp
 0002:00006fd6       $N00057                    000000018001dfd6     agentcore.exp
 0002:00007011       $N00058                    000000018001e011     agentcore.exp
 0002:00007043       $N00059                    000000018001e043     agentcore.exp
 0002:0000707f       $N00060                    000000018001e07f     agentcore.exp
 0002:000070c3       $N00061                    000000018001e0c3     agentcore.exp
 0002:00007106       $N00062                    000000018001e106     agentcore.exp
 0002:00007124       $N00063                    000000018001e124     agentcore.exp
 0002:00007146       $N00064                    000000018001e146     agentcore.exp
 0002:0000716c       $N00065                    000000018001e16c     agentcore.exp
 0002:00007196       $N00066                    000000018001e196     agentcore.exp
 0002:000071d5       $N00067                    000000018001e1d5     agentcore.exp
 0002:00007216       $N00068                    000000018001e216     agentcore.exp
 0002:000072b3       $N00069                    000000018001e2b3     agentcore.exp
 0002:000072e2       $N00070                    000000018001e2e2     agentcore.exp
 0002:0000734a       $N00071                    000000018001e34a     agentcore.exp
 0002:0000739a       $N00072                    000000018001e39a     agentcore.exp
 0002:000073f0       $N00073                    000000018001e3f0     agentcore.exp
 0002:00007432       $N00074                    000000018001e432     agentcore.exp
 0002:00007479       $N00075                    000000018001e479     agentcore.exp
 0002:000074f0       $N00076                    000000018001e4f0     agentcore.exp
 0002:00007530       $N00077                    000000018001e530     agentcore.exp
 0002:00007566       $N00078                    000000018001e566     agentcore.exp
 0002:00007601       $N00079                    000000018001e601     agentcore.exp
 0002:0000769c       $N00080                    000000018001e69c     agentcore.exp
 0002:000076f0       $N00081                    000000018001e6f0     agentcore.exp
 0002:00007729       $N00082                    000000018001e729     agentcore.exp
 0002:000077a7       $N00083                    000000018001e7a7     agentcore.exp
 0002:000077d1       $N00084                    000000018001e7d1     agentcore.exp
 0002:000077ff       $N00085                    000000018001e7ff     agentcore.exp
 0002:00007835       $N00086                    000000018001e835     agentcore.exp
 0002:0000786b       $N00087                    000000018001e86b     agentcore.exp
 0002:000078a2       $N00088                    000000018001e8a2     agentcore.exp
 0002:000078de       $N00089                    000000018001e8de     agentcore.exp
 0002:0000790d       $N00090                    000000018001e90d     agentcore.exp
 0002:00007937       $N00091                    000000018001e937     agentcore.exp
 0002:000079a6       $N00092                    000000018001e9a6     agentcore.exp
 0002:00007a12       $N00093                    000000018001ea12     agentcore.exp
 0002:00007a99       $N00094                    000000018001ea99     agentcore.exp
 0002:00007ae1       $N00095                    000000018001eae1     agentcore.exp
 0002:00007b5d       $N00096                    000000018001eb5d     agentcore.exp
 0002:00007b89       $N00097                    000000018001eb89     agentcore.exp
 0002:00007bf7       $N00098                    000000018001ebf7     agentcore.exp
 0002:00007c76       $N00099                    000000018001ec76     agentcore.exp
 0002:00007cf4       $N00100                    000000018001ecf4     agentcore.exp
 0002:00007d27       $N00101                    000000018001ed27     agentcore.exp
 0002:00007d6f       $N00102                    000000018001ed6f     agentcore.exp
 0002:00007de1       $N00103                    000000018001ede1     agentcore.exp
 0002:00007e26       $N00104                    000000018001ee26     agentcore.exp
 0002:00007e9e       $N00105                    000000018001ee9e     agentcore.exp
 0002:00007f2b       $N00106                    000000018001ef2b     agentcore.exp
 0002:00007f89       $N00107                    000000018001ef89     agentcore.exp
 0002:00008019       $N00108                    000000018001f019     agentcore.exp
 0002:000080af       $N00109                    000000018001f0af     agentcore.exp
 0002:00008115       $N00110                    000000018001f115     agentcore.exp
 0002:00008197       $N00111                    000000018001f197     agentcore.exp
 0002:00008268       $N00112                    000000018001f268     agentcore.exp
 0002:000082a2       $N00113                    000000018001f2a2     agentcore.exp
 0002:000082d6       $N00114                    000000018001f2d6     agentcore.exp
 0002:000083da       $N00115                    000000018001f3da     agentcore.exp
 0002:00008453       $N00116                    000000018001f453     agentcore.exp
 0002:0000847f       $N00117                    000000018001f47f     agentcore.exp
 0002:000084c4       $N00118                    000000018001f4c4     agentcore.exp
 0002:0000850f       $N00119                    000000018001f50f     agentcore.exp
 0002:00008537       $N00120                    000000018001f537     agentcore.exp
 0002:00008583       $N00121                    000000018001f583     agentcore.exp
 0002:000085fd       $N00122                    000000018001f5fd     agentcore.exp
 0002:00008630       $N00123                    000000018001f630     agentcore.exp
 0002:000086c6       $N00124                    000000018001f6c6     agentcore.exp
 0002:00008722       $N00125                    000000018001f722     agentcore.exp
 0002:000087b8       $N00126                    000000018001f7b8     agentcore.exp
 0002:00008814       $N00127                    000000018001f814     agentcore.exp
 0002:00008849       $N00128                    000000018001f849     agentcore.exp
 0002:00008890       $N00129                    000000018001f890     agentcore.exp
 0002:00008904       $N00130                    000000018001f904     agentcore.exp
 0002:00008974       $N00131                    000000018001f974     agentcore.exp
 0002:000089ab       $N00132                    000000018001f9ab     agentcore.exp
 0002:00008a2a       $N00133                    000000018001fa2a     agentcore.exp
 0002:00008a62       $N00134                    000000018001fa62     agentcore.exp
 0002:00008a8f       $N00135                    000000018001fa8f     agentcore.exp
 0002:00008abf       $N00136                    000000018001fabf     agentcore.exp
 0002:00008aee       $N00137                    000000018001faee     agentcore.exp
 0002:00008b29       $N00138                    000000018001fb29     agentcore.exp
 0002:00008b96       $N00139                    000000018001fb96     agentcore.exp
 0002:00008bd6       $N00140                    000000018001fbd6     agentcore.exp
 0002:00008c4c       $N00141                    000000018001fc4c     agentcore.exp
 0002:00008c83       $N00142                    000000018001fc83     agentcore.exp
 0002:00008cbf       $N00143                    000000018001fcbf     agentcore.exp
 0002:00008d4a       $N00144                    000000018001fd4a     agentcore.exp
 0002:00008d78       $N00145                    000000018001fd78     agentcore.exp
 0002:00008e04       $N00146                    000000018001fe04     agentcore.exp
 0002:00008e73       $N00147                    000000018001fe73     agentcore.exp
 0002:00008eda       $N00148                    000000018001feda     agentcore.exp
 0002:00008f29       $N00149                    000000018001ff29     agentcore.exp
 0002:00008f8c       $N00150                    000000018001ff8c     agentcore.exp
 0002:00009005       $N00151                    0000000180020005     agentcore.exp
 0002:00009035       $N00152                    0000000180020035     agentcore.exp
 0002:00009081       $N00153                    0000000180020081     agentcore.exp
 0002:000090d1       $N00154                    00000001800200d1     agentcore.exp
 0002:0000913a       $N00155                    000000018002013a     agentcore.exp
 0002:0000916c       $N00156                    000000018002016c     agentcore.exp
 0002:000091f4       $N00157                    00000001800201f4     agentcore.exp
 0002:00009280       $N00158                    0000000180020280     agentcore.exp
 0002:000092c6       $N00159                    00000001800202c6     agentcore.exp
 0002:000092f0       $N00160                    00000001800202f0     agentcore.exp
 0002:0000933b       $N00161                    000000018002033b     agentcore.exp
 0002:00009385       $N00162                    0000000180020385     agentcore.exp
 0002:000093d8       $N00163                    00000001800203d8     agentcore.exp
 0002:00009431       $N00164                    0000000180020431     agentcore.exp
 0002:00009488       $N00165                    0000000180020488     agentcore.exp
 0002:000094fb       $N00166                    00000001800204fb     agentcore.exp
 0002:0000958a       $N00167                    000000018002058a     agentcore.exp
 0002:0000961d       $N00168                    000000018002061d     agentcore.exp
 0002:000096ac       $N00169                    00000001800206ac     agentcore.exp
 0002:00009735       $N00170                    0000000180020735     agentcore.exp
 0002:000097b0       $N00171                    00000001800207b0     agentcore.exp
 0002:000097e4       $N00172                    00000001800207e4     agentcore.exp
 0002:00009821       $N00173                    0000000180020821     agentcore.exp
 0002:0000988f       $N00174                    000000018002088f     agentcore.exp
 0002:0000990c       $N00175                    000000018002090c     agentcore.exp
 0002:00009948       $N00176                    0000000180020948     agentcore.exp
 0002:0000997e       $N00177                    000000018002097e     agentcore.exp
 0002:000099b3       $N00178                    00000001800209b3     agentcore.exp
 0002:00009a32       $N00179                    0000000180020a32     agentcore.exp
 0002:00009a80       $N00180                    0000000180020a80     agentcore.exp
 0002:00009af6       $N00181                    0000000180020af6     agentcore.exp
 0002:00009b27       $N00182                    0000000180020b27     agentcore.exp
 0002:00009b49       $N00183                    0000000180020b49     agentcore.exp
 0002:00009b7a       $N00184                    0000000180020b7a     agentcore.exp
 0002:00009ba8       $N00185                    0000000180020ba8     agentcore.exp
 0002:00009be5       $N00186                    0000000180020be5     agentcore.exp
 0002:00009c1d       $N00187                    0000000180020c1d     agentcore.exp
 0002:00009c52       $N00188                    0000000180020c52     agentcore.exp
 0002:00009c89       $N00189                    0000000180020c89     agentcore.exp
 0002:00009cb6       $N00190                    0000000180020cb6     agentcore.exp
 0002:00009cf2       $N00191                    0000000180020cf2     agentcore.exp
 0002:00009d26       $N00192                    0000000180020d26     agentcore.exp
 0002:00009d59       $N00193                    0000000180020d59     agentcore.exp
 0002:00009dca       $N00194                    0000000180020dca     agentcore.exp
 0002:00009e3f       $N00195                    0000000180020e3f     agentcore.exp
 0002:00009eaa       $N00196                    0000000180020eaa     agentcore.exp
 0002:00009ee7       $N00197                    0000000180020ee7     agentcore.exp
 0002:00009ef5       $N00198                    0000000180020ef5     agentcore.exp
 0002:00009f18       $N00199                    0000000180020f18     agentcore.exp
 0002:00009f31       $N00200                    0000000180020f31     agentcore.exp
 0002:0000a4a0       .idata$6                   00000001800214a0     Ws2_32:WS2_32.dll
 0002:0000a5e2       .idata$6                   00000001800215e2     kernel32:KERNEL32.dll
 0002:0000a75a       .idata$6                   000000018002175a     node:node.exe
 0002:0000b0e8       .idata$6                   00000001800220e8     msvcprt:MSVCP140.dll
 0002:0000b1b4       .idata$6                   00000001800221b4     vcruntime:VCRUNTIME140.dll
 0002:0000b414       .idata$6                   0000000180022414     ucrt:api-ms-win-crt-time-l1-1-0.dll
 0002:0000b434       .idata$6                   0000000180022434     ucrt:api-ms-win-crt-stdio-l1-1-0.dll
 0002:0000b454       .idata$6                   0000000180022454     ucrt:api-ms-win-crt-runtime-l1-1-0.dll
 0002:0000b476       .idata$6                   0000000180022476     ucrt:api-ms-win-crt-filesystem-l1-1-0.dll
 0002:0000b49c       .idata$6                   000000018002249c     ucrt:api-ms-win-crt-string-l1-1-0.dll
 0002:0000b4be       .idata$6                   00000001800224be     ucrt:api-ms-win-crt-heap-l1-1-0.dll
 0003:00000038       ?CONFIGURATION_TOPIC@connector@monitoring@ibmras@@3V?$basic_string@DU?$char_traits@D@std@@V?$allocator@D@2@@std@@B 0000000180023038     ConfigurationConnector.obj
 0003:00000108       ?_Fac_tidy_reg@std@@3U_Fac_tidy_reg_t@1@B 0000000180023108     msvcprt:locale0_implib.obj
 0003:00000110       ?_Fac_head@std@@3PEAU_Fac_node@1@EA 0000000180023110     msvcprt:locale0_implib.obj
 0003:00000128       ?is_initialized_as_dll@@3_NA 0000000180023128     MSVCRT:utility.obj
 0003:00000129       ?module_local_atexit_table_initialized@@3_NA 0000000180023129     MSVCRT:utility.obj
 0003:00000130       ?module_local_atexit_table@@3U_onexit_table_t@@A 0000000180023130     MSVCRT:utility.obj
 0003:00000148       ?module_local_at_quick_exit_table@@3U_onexit_table_t@@A 0000000180023148     MSVCRT:utility.obj
 0003:00000160       ?__proc_attached@@3HA      0000000180023160     MSVCRT:dll_dllmain.obj
 0003:00000170       GS_ExceptionRecord         0000000180023170     MSVCRT:gs_report.obj
 0003:00000210       GS_ContextRecord           0000000180023210     MSVCRT:gs_report.obj
 0003:000007a0       ?defaultMemoryManager@memory@common@ibmras@@3PEAVMemoryManager@23@EA 00000001800237a0     MemoryManager.obj
 0004:00000000       $pdata$??__Elogger@common@ibmras@@YAXXZ 0000000180024000     MemoryManager.obj
 0004:0000000c       $pdata$??__Elogger@port@common@ibmras@@YAXXZ 000000018002400c     Thread.obj
 0004:00000018       $pdata$??__Elogger@locking@port@common@ibmras@@YAXXZ 0000000180024018     Lock.obj
 0004:00000024       $pdata$??__Epluginlogger@agent@monitoring@ibmras@@YAXXZ 0000000180024024     Agent.obj
 0004:00000030       $pdata$??__Ecorelogger@agent@monitoring@ibmras@@YAXXZ 0000000180024030     Agent.obj
 0004:0000003c       $pdata$??__Einstance@agent@monitoring@ibmras@@YAXXZ 000000018002403c     Agent.obj
 0004:00000048       $pdata$??__Elogger@agent@monitoring@ibmras@@YAXXZ 0000000180024048     Agent.obj
 0004:00000054       $pdata$??__Elogger@threads@agent@monitoring@ibmras@@YAXXZ 0000000180024054     ThreadPool.obj
 0004:00000060       $pdata$??__Elogger@bucket@agent@monitoring@ibmras@@YAXXZ 0000000180024060     Bucket.obj
 0004:0000006c       $pdata$??__Elogger@monitoring@ibmras@@YAXXZ 000000018002406c     Plugin.obj
 0004:00000078       $pdata$??__ECONFIGURATION_TOPIC@connector@monitoring@ibmras@@YAXXZ 0000000180024078     ConfigurationConnector.obj
 0004:00000084       $pdata$??0Logger@common@ibmras@@QEAA@AEBV012@@Z 0000000180024084     Logger.obj
 0004:00000090       $pdata$??4Logger@common@ibmras@@QEAAAEAV012@AEBV012@@Z 0000000180024090     Logger.obj
 0004:0000009c       $pdata$??_ELogger@common@ibmras@@UEAAPEAXI@Z 000000018002409c     Logger.obj
 0004:000000a8       $pdata$??0Logger@common@ibmras@@QEAA@AEBV?$basic_string@DU?$char_traits@D@std@@V?$allocator@D@2@@std@@P6AX0W4loggingLevel@@PEAV012@@Z@Z 00000001800240a8     Logger.obj
 0004:000000b4       $pdata$??1Logger@common@ibmras@@UEAA@XZ 00000001800240b4     Logger.obj
 0004:000000c0       $pdata$?header@Logger@common@ibmras@@AEAAXAEAV?$basic_stringstream@DU?$char_traits@D@std@@V?$allocator@D@2@@std@@W4loggingLevel@@_N@Z 00000001800240c0     Logger.obj
 0004:000000cc       $pdata$?log@Logger@common@ibmras@@QEAAXW4loggingLevel@@PEBDZZ 00000001800240cc     Logger.obj
 0004:000000d8       $pdata$??_D?$basic_stringstream@DU?$char_traits@D@std@@V?$allocator@D@2@@std@@QEAAXXZ 00000001800240d8     Logger.obj
 0004:000000e4       $pdata$?logDebug@Logger@common@ibmras@@QEAAXW4loggingLevel@@PEBDZZ 00000001800240e4     Logger.obj
 0004:000000f0       $pdata$??1?$basic_string@DU?$char_traits@D@std@@V?$allocator@D@2@@std@@QEAA@XZ 00000001800240f0     Logger.obj
 0004:000000fc       $pdata$??0?$basic_string@DU?$char_traits@D@std@@V?$allocator@D@2@@std@@QEAA@AEBV01@@Z 00000001800240fc     Logger.obj
 0004:00000108       $pdata$??0?$basic_stringstream@DU?$char_traits@D@std@@V?$allocator@D@2@@std@@QEAA@H@Z 0000000180024108     Logger.obj
 0004:00000114       $pdata$?seekpos@?$basic_stringbuf@DU?$char_traits@D@std@@V?$allocator@D@2@@std@@MEAA?AV?$fpos@U_Mbstatet@@@2@V32@H@Z 0000000180024114     Logger.obj
 0004:00000120       $pdata$?seekoff@?$basic_stringbuf@DU?$char_traits@D@std@@V?$allocator@D@2@@std@@MEAA?AV?$fpos@U_Mbstatet@@@2@_JHH@Z 0000000180024120     Logger.obj
 0004:0000012c       $pdata$?overflow@?$basic_stringbuf@DU?$char_traits@D@std@@V?$allocator@D@2@@std@@MEAAHH@Z 000000018002412c     Logger.obj
 0004:00000138       $pdata$??1?$basic_stringbuf@DU?$char_traits@D@std@@V?$allocator@D@2@@std@@UEAA@XZ 0000000180024138     Logger.obj
 0004:00000144       $pdata$??_G?$basic_stringstream@DU?$char_traits@D@std@@V?$allocator@D@2@@std@@UEAAPEAXI@Z 0000000180024144     Logger.obj
 0004:00000150       $pdata$??_G?$basic_stringbuf@DU?$char_traits@D@std@@V?$allocator@D@2@@std@@UEAAPEAXI@Z 0000000180024150     Logger.obj
 0004:0000015c       $pdata$?assign@?$basic_string@DU?$char_traits@D@std@@V?$allocator@D@2@@std@@QEAAAEAV12@QEBD_K@Z 000000018002415c     Logger.obj
 0004:00000168       $pdata$0$?assign@?$basic_string@DU?$char_traits@D@std@@V?$allocator@D@2@@std@@QEAAAEAV12@QEBD_K@Z 0000000180024168     Logger.obj
 0004:00000174       $pdata$1$?assign@?$basic_string@DU?$char_traits@D@std@@V?$allocator@D@2@@std@@QEAAAEAV12@QEBD_K@Z 0000000180024174     Logger.obj
 0004:00000180       $pdata$2$?assign@?$basic_string@DU?$char_traits@D@std@@V?$allocator@D@2@@std@@QEAAAEAV12@QEBD_K@Z 0000000180024180     Logger.obj
 0004:0000018c       $pdata$3$?assign@?$basic_string@DU?$char_traits@D@std@@V?$allocator@D@2@@std@@QEAAAEAV12@QEBD_K@Z 000000018002418c     Logger.obj
 0004:00000198       $pdata$??$?6U?$char_traits@D@std@@@std@@YAAEAV?$basic_ostream@DU?$char_traits@D@std@@@0@AEAV10@PEBD@Z 0000000180024198     Logger.obj
 0004:000001a4       $pdata$??$?6U?$char_traits@D@std@@@std@@YAAEAV?$basic_ostream@DU?$char_traits@D@std@@@0@AEAV10@D@Z 00000001800241a4     Logger.obj
 0004:000001b0       $pdata$??1sentry@?$basic_ostream@DU?$char_traits@D@std@@@std@@QEAA@XZ 00000001800241b0     Logger.obj
 0004:000001bc       $pdata$?_Xlen@?$basic_string@DU?$char_traits@D@std@@V?$allocator@D@2@@std@@SAXXZ 00000001800241bc     Logger.obj
 0004:000001c8       $pdata$??1_Sentry_base@?$basic_istream@DU?$char_traits@D@std@@@std@@QEAA@XZ 00000001800241c8     PropertiesFile.obj
 0004:000001c8       $pdata$??1_Sentry_base@?$basic_ostream@DU?$char_traits@D@std@@@std@@QEAA@XZ 00000001800241c8     Logger.obj
 0004:000001d4       $pdata$??$_Insert_string@DU?$char_traits@D@std@@_K@std@@YAAEAV?$basic_ostream@DU?$char_traits@D@std@@@0@AEAV10@QEBD_K@Z 00000001800241d4     Logger.obj
 0004:000001e0       $pdata$??1LogManager@common@ibmras@@QEAA@XZ 00000001800241e0     LogManager.obj
 0004:000001ec       $pdata$??0LogManager@common@ibmras@@QEAA@AEBV012@@Z 00000001800241ec     LogManager.obj
 0004:000001f8       $pdata$1$??0LogManager@common@ibmras@@QEAA@AEBV012@@Z 00000001800241f8     LogManager.obj
 0004:00000204       $pdata$2$??0LogManager@common@ibmras@@QEAA@AEBV012@@Z 0000000180024204     LogManager.obj
 0004:00000210       $pdata$??4LogManager@common@ibmras@@QEAAAEAV012@AEBV012@@Z 0000000180024210     LogManager.obj
 0004:0000021c       $pdata$??4LogManager@common@ibmras@@QEAAAEAV012@$$QEAV012@@Z 000000018002421c     LogManager.obj
 0004:00000228       $pdata$ibmras_common_LogManager_getLogger 0000000180024228     LogManager.obj
 0004:00000234       $pdata$?processMsg@LogManager@common@ibmras@@AEAAXAEBV?$basic_string@DU?$char_traits@D@std@@V?$allocator@D@2@@std@@@Z 0000000180024234     LogManager.obj
 0004:00000240       $pdata$?msgHandler@LogManager@common@ibmras@@SAXAEBV?$basic_string@DU?$char_traits@D@std@@V?$allocator@D@2@@std@@W4loggingLevel@@PEAVLogger@23@@Z 0000000180024240     LogManager.obj
 0004:0000024c       $pdata$?setLevel@LogManager@common@ibmras@@QEAAXAEBV?$basic_string@DU?$char_traits@D@std@@V?$allocator@D@2@@std@@W4loggingLevel@@@Z 000000018002424c     LogManager.obj
 0004:00000258       $pdata$?getInstance@LogManager@common@ibmras@@SAPEAV123@XZ 0000000180024258     LogManager.obj
 0004:00000264       $pdata$?getLogger@LogManager@common@ibmras@@SAPEAVLogger@23@AEBV?$basic_string@DU?$char_traits@D@std@@V?$allocator@D@2@@std@@@Z 0000000180024264     LogManager.obj
 0004:00000270       $pdata$?setLevel@LogManager@common@ibmras@@QEAAXAEBV?$basic_string@DU?$char_traits@D@std@@V?$allocator@D@2@@std@@0@Z 0000000180024270     LogManager.obj
 0004:0000027c       $pdata$0$?setLevel@LogManager@common@ibmras@@QEAAXAEBV?$basic_string@DU?$char_traits@D@std@@V?$allocator@D@2@@std@@0@Z 000000018002427c     LogManager.obj
 0004:00000288       $pdata$1$?setLevel@LogManager@common@ibmras@@QEAAXAEBV?$basic_string@DU?$char_traits@D@std@@V?$allocator@D@2@@std@@0@Z 0000000180024288     LogManager.obj
 0004:00000294       $pdata$?findLogger@LogManager@common@ibmras@@AEAAPEAVLogger@23@AEBV?$basic_string@DU?$char_traits@D@std@@V?$allocator@D@2@@std@@@Z 0000000180024294     LogManager.obj
 0004:000002a0       $pdata$??4?$vector@PEAVBucket@agent@monitoring@ibmras@@V?$allocator@PEAVBucket@agent@monitoring@ibmras@@@std@@@std@@QEAAAEAV01@AEBV01@@Z 00000001800242a0     Agent.obj
 0004:000002a0       $pdata$??4?$vector@PEAVPlugin@monitoring@ibmras@@V?$allocator@PEAVPlugin@monitoring@ibmras@@@std@@@std@@QEAAAEAV01@AEBV01@@Z 00000001800242a0     Agent.obj
 0004:000002a0       $pdata$??4?$vector@PEAVLogger@common@ibmras@@V?$allocator@PEAVLogger@common@ibmras@@@std@@@std@@QEAAAEAV01@AEBV01@@Z 00000001800242a0     LogManager.obj
 0004:000002ac       $pdata$??1?$vector@PEAVBucket@agent@monitoring@ibmras@@V?$allocator@PEAVBucket@agent@monitoring@ibmras@@@std@@@std@@QEAA@XZ 00000001800242ac     Agent.obj
 0004:000002ac       $pdata$?_Tidy@?$vector@PEAVBucket@agent@monitoring@ibmras@@V?$allocator@PEAVBucket@agent@monitoring@ibmras@@@std@@@std@@AEAAXXZ 00000001800242ac     Agent.obj
 0004:000002ac       $pdata$??1BucketList@agent@monitoring@ibmras@@QEAA@XZ 00000001800242ac     Agent.obj
 0004:000002ac       $pdata$?_Tidy@?$vector@PEAVPlugin@monitoring@ibmras@@V?$allocator@PEAVPlugin@monitoring@ibmras@@@std@@@std@@AEAAXXZ 00000001800242ac     Agent.obj
 0004:000002ac       $pdata$?_Tidy@?$vector@PEAVLogger@common@ibmras@@V?$allocator@PEAVLogger@common@ibmras@@@std@@@std@@AEAAXXZ 00000001800242ac     LogManager.obj
 0004:000002ac       $pdata$??1?$vector@PEAVPlugin@monitoring@ibmras@@V?$allocator@PEAVPlugin@monitoring@ibmras@@@std@@@std@@QEAA@XZ 00000001800242ac     Agent.obj
 0004:000002b8       $pdata$?_Buy@?$vector@PEAVPlugin@monitoring@ibmras@@V?$allocator@PEAVPlugin@monitoring@ibmras@@@std@@@std@@AEAA_N_K@Z 00000001800242b8     Agent.obj
 0004:000002b8       $pdata$?_Buy@?$vector@PEAVBucket@agent@monitoring@ibmras@@V?$allocator@PEAVBucket@agent@monitoring@ibmras@@@std@@@std@@AEAA_N_K@Z 00000001800242b8     Agent.obj
 0004:000002b8       $pdata$?_Buy@?$vector@PEAVLogger@common@ibmras@@V?$allocator@PEAVLogger@common@ibmras@@@std@@@std@@AEAA_N_K@Z 00000001800242b8     LogManager.obj
 0004:000002c4       $pdata$0$?_Buy@?$vector@PEAVLogger@common@ibmras@@V?$allocator@PEAVLogger@common@ibmras@@@std@@@std@@AEAA_N_K@Z 00000001800242c4     LogManager.obj
 0004:000002c4       $pdata$0$?_Buy@?$vector@PEAVBucket@agent@monitoring@ibmras@@V?$allocator@PEAVBucket@agent@monitoring@ibmras@@@std@@@std@@AEAA_N_K@Z 00000001800242c4     Agent.obj
 0004:000002c4       $pdata$0$?_Buy@?$vector@PEAVPlugin@monitoring@ibmras@@V?$allocator@PEAVPlugin@monitoring@ibmras@@@std@@@std@@AEAA_N_K@Z 00000001800242c4     Agent.obj
 0004:000002d0       $pdata$1$?_Buy@?$vector@PEAVLogger@common@ibmras@@V?$allocator@PEAVLogger@common@ibmras@@@std@@@std@@AEAA_N_K@Z 00000001800242d0     LogManager.obj
 0004:000002d0       $pdata$1$?_Buy@?$vector@PEAVPlugin@monitoring@ibmras@@V?$allocator@PEAVPlugin@monitoring@ibmras@@@std@@@std@@AEAA_N_K@Z 00000001800242d0     Agent.obj
 0004:000002d0       $pdata$1$?_Buy@?$vector@PEAVBucket@agent@monitoring@ibmras@@V?$allocator@PEAVBucket@agent@monitoring@ibmras@@@std@@@std@@AEAA_N_K@Z 00000001800242d0     Agent.obj
 0004:000002dc       $pdata$?_Xlength@?$vector@PEAVBucket@agent@monitoring@ibmras@@V?$allocator@PEAVBucket@agent@monitoring@ibmras@@@std@@@std@@CAXXZ 00000001800242dc     Agent.obj
 0004:000002dc       $pdata$?_Xlength@?$vector@PEAVPlugin@monitoring@ibmras@@V?$allocator@PEAVPlugin@monitoring@ibmras@@@std@@@std@@CAXXZ 00000001800242dc     Agent.obj
 0004:000002dc       $pdata$?_Xlength@?$vector@PEAVLogger@common@ibmras@@V?$allocator@PEAVLogger@common@ibmras@@@std@@@std@@CAXXZ 00000001800242dc     LogManager.obj
 0004:000002dc       $pdata$?_Xlength@?$vector@V?$basic_string@DU?$char_traits@D@std@@V?$allocator@D@2@@std@@V?$allocator@V?$basic_string@DU?$char_traits@D@std@@V?$allocator@D@2@@std@@@2@@std@@CAXXZ 00000001800242dc     strUtils.obj
 0004:000002dc       $pdata$?_Xlength@?$vector@PEAVWorkerThread@threads@agent@monitoring@ibmras@@V?$allocator@PEAVWorkerThread@threads@agent@monitoring@ibmras@@@std@@@std@@CAXXZ 00000001800242dc     ThreadPool.obj
 0004:000002e8       $pdata$??$_Emplace_reallocate@PEAVWorkerThread@threads@agent@monitoring@ibmras@@@?$vector@PEAVWorkerThread@threads@agent@monitoring@ibmras@@V?$allocator@PEAVWorkerThread@threads@agent@monitoring@ibmras@@@std@@@std@@QEAAPEAPEAVWorkerThread@threads@agent@monitoring@ibmras@@QEAPEAV23456@$$QEAPEAV23456@@Z 00000001800242e8     ThreadPool.obj
 0004:000002e8       $pdata$??$_Emplace_reallocate@AEBQEAVBucket@agent@monitoring@ibmras@@@?$vector@PEAVBucket@agent@monitoring@ibmras@@V?$allocator@PEAVBucket@agent@monitoring@ibmras@@@std@@@std@@QEAAPEAPEAVBucket@agent@monitoring@ibmras@@QEAPEAV2345@AEBQEAV2345@@Z 00000001800242e8     Agent.obj
 0004:000002e8       $pdata$??$_Emplace_reallocate@AEBQEAVLogger@common@ibmras@@@?$vector@PEAVLogger@common@ibmras@@V?$allocator@PEAVLogger@common@ibmras@@@std@@@std@@QEAAPEAPEAVLogger@common@ibmras@@QEAPEAV234@AEBQEAV234@@Z 00000001800242e8     LogManager.obj
 0004:000002f4       $pdata$2$??$_Emplace_reallocate@AEBQEAVBucket@agent@monitoring@ibmras@@@?$vector@PEAVBucket@agent@monitoring@ibmras@@V?$allocator@PEAVBucket@agent@monitoring@ibmras@@@std@@@std@@QEAAPEAPEAVBucket@agent@monitoring@ibmras@@QEAPEAV2345@AEBQEAV2345@@Z 00000001800242f4     Agent.obj
 0004:000002f4       $pdata$2$??$_Emplace_reallocate@PEAVWorkerThread@threads@agent@monitoring@ibmras@@@?$vector@PEAVWorkerThread@threads@agent@monitoring@ibmras@@V?$allocator@PEAVWorkerThread@threads@agent@monitoring@ibmras@@@std@@@std@@QEAAPEAPEAVWorkerThread@threads@agent@monitoring@ibmras@@QEAPEAV23456@$$QEAPEAV23456@@Z 00000001800242f4     ThreadPool.obj
 0004:000002f4       $pdata$2$??$_Emplace_reallocate@AEBQEAVLogger@common@ibmras@@@?$vector@PEAVLogger@common@ibmras@@V?$allocator@PEAVLogger@common@ibmras@@@std@@@std@@QEAAPEAPEAVLogger@common@ibmras@@QEAPEAV234@AEBQEAV234@@Z 00000001800242f4     LogManager.obj
 0004:00000300       $pdata$4$??$_Emplace_reallocate@PEAVWorkerThread@threads@agent@monitoring@ibmras@@@?$vector@PEAVWorkerThread@threads@agent@monitoring@ibmras@@V?$allocator@PEAVWorkerThread@threads@agent@monitoring@ibmras@@@std@@@std@@QEAAPEAPEAVWorkerThread@threads@agent@monitoring@ibmras@@QEAPEAV23456@$$QEAPEAV23456@@Z 0000000180024300     ThreadPool.obj
 0004:00000300       $pdata$4$??$_Emplace_reallocate@AEBQEAVLogger@common@ibmras@@@?$vector@PEAVLogger@common@ibmras@@V?$allocator@PEAVLogger@common@ibmras@@@std@@@std@@QEAAPEAPEAVLogger@common@ibmras@@QEAPEAV234@AEBQEAV234@@Z 0000000180024300     LogManager.obj
 0004:00000300       $pdata$4$??$_Emplace_reallocate@AEBQEAVBucket@agent@monitoring@ibmras@@@?$vector@PEAVBucket@agent@monitoring@ibmras@@V?$allocator@PEAVBucket@agent@monitoring@ibmras@@@std@@@std@@QEAAPEAPEAVBucket@agent@monitoring@ibmras@@QEAPEAV2345@AEBQEAV2345@@Z 0000000180024300     Agent.obj
 0004:0000030c       $pdata$5$??$_Emplace_reallocate@PEAVWorkerThread@threads@agent@monitoring@ibmras@@@?$vector@PEAVWorkerThread@threads@agent@monitoring@ibmras@@V?$allocator@PEAVWorkerThread@threads@agent@monitoring@ibmras@@@std@@@std@@QEAAPEAPEAVWorkerThread@threads@agent@monitoring@ibmras@@QEAPEAV23456@$$QEAPEAV23456@@Z 000000018002430c     ThreadPool.obj
 0004:0000030c       $pdata$5$??$_Emplace_reallocate@AEBQEAVLogger@common@ibmras@@@?$vector@PEAVLogger@common@ibmras@@V?$allocator@PEAVLogger@common@ibmras@@@std@@@std@@QEAAPEAPEAVLogger@common@ibmras@@QEAPEAV234@AEBQEAV234@@Z 000000018002430c     LogManager.obj
 0004:0000030c       $pdata$5$??$_Emplace_reallocate@AEBQEAVBucket@agent@monitoring@ibmras@@@?$vector@PEAVBucket@agent@monitoring@ibmras@@V?$allocator@PEAVBucket@agent@monitoring@ibmras@@@std@@@std@@QEAAPEAPEAVBucket@agent@monitoring@ibmras@@QEAPEAV2345@AEBQEAV2345@@Z 000000018002430c     Agent.obj
 0004:00000318       $pdata$??_GMemoryManager@common@ibmras@@UEAAPEAXI@Z 0000000180024318     MemoryManager.obj
 0004:00000324       $pdata$?allocate@MemoryManager@common@ibmras@@UEAAPEAEI@Z 0000000180024324     MemoryManager.obj
 0004:00000330       $pdata$?deallocate@MemoryManager@common@ibmras@@UEAAXPEAPEAE@Z 0000000180024330     MemoryManager.obj
 0004:0000033c       $pdata$?allocate@memory@common@ibmras@@YAPEAEI@Z 000000018002433c     MemoryManager.obj
 0004:00000348       $pdata$?deallocate@memory@common@ibmras@@YAXPEAPEAE@Z 0000000180024348     MemoryManager.obj
 0004:00000354       $pdata$??4?$basic_string@DU?$char_traits@D@std@@V?$allocator@D@2@@std@@QEAAAEAV01@$$QEAV01@@Z 0000000180024354     LibraryUtils.obj
 0004:00000360       $pdata$?_Xran@?$_String_val@U?$_Simple_types@D@std@@@std@@SAXXZ 0000000180024360     LibraryUtils.obj
 0004:0000036c       $pdata$?wrapper@port@common@ibmras@@YAXPEAX@Z 000000018002436c     Thread.obj
 0004:00000378       $pdata$?createThread@port@common@ibmras@@YA_KPEAVThreadData@123@@Z 0000000180024378     Thread.obj
 0004:00000384       $pdata$?getHostName@port@common@ibmras@@YA?AV?$basic_string@DU?$char_traits@D@std@@V?$allocator@D@2@@std@@XZ 0000000180024384     Process.obj
 0004:00000390       $pdata$??0Lock@port@common@ibmras@@QEAA@XZ 0000000180024390     Lock.obj
 0004:0000039c       $pdata$?acquire@Lock@port@common@ibmras@@QEAAHXZ 000000018002439c     Lock.obj
 0004:000003a8       $pdata$?release@Lock@port@common@ibmras@@QEAAHXZ 00000001800243a8     Lock.obj
 0004:000003b4       $pdata$?destroy@Lock@port@common@ibmras@@QEAAXXZ 00000001800243b4     Lock.obj
 0004:000003b4       $pdata$??1Lock@port@common@ibmras@@QEAA@XZ 00000001800243b4     Lock.obj
 0004:000003c0       $pdata$??1Properties@common@ibmras@@UEAA@XZ 00000001800243c0     Properties.obj
 0004:000003c0       $pdata$??1PropertiesFile@common@ibmras@@UEAA@XZ 00000001800243c0     PropertiesFile.obj
 0004:000003cc       $pdata$??0Properties@common@ibmras@@QEAA@XZ 00000001800243cc     Properties.obj
 0004:000003d8       $pdata$??0Properties@common@ibmras@@QEAA@AEBV012@@Z 00000001800243d8     Properties.obj
 0004:000003e4       $pdata$??4Properties@common@ibmras@@QEAAAEAV012@AEBV012@@Z 00000001800243e4     Properties.obj
 0004:000003e4       $pdata$??4PropertiesFile@common@ibmras@@QEAAAEAV012@AEBV012@@Z 00000001800243e4     PropertiesFile.obj
 0004:000003e4       $pdata$??4PropertiesFile@common@ibmras@@QEAAAEAV012@$$QEAV012@@Z 00000001800243e4     PropertiesFile.obj
 0004:000003f0       $pdata$??_EProperties@common@ibmras@@UEAAPEAXI@Z 00000001800243f0     Properties.obj
 0004:000003f0       $pdata$??_EPropertiesFile@common@ibmras@@UEAAPEAXI@Z 00000001800243f0     PropertiesFile.obj
 0004:000003fc       $pdata$?get@Properties@common@ibmras@@UEAA?AV?$basic_string@DU?$char_traits@D@std@@V?$allocator@D@2@@std@@AEBV45@0@Z 00000001800243fc     Properties.obj
 0004:00000408       $pdata$?put@Properties@common@ibmras@@UEAAXAEBV?$basic_string@DU?$char_traits@D@std@@V?$allocator@D@2@@std@@0@Z 0000000180024408     Properties.obj
 0004:00000414       $pdata$4$?put@Properties@common@ibmras@@UEAAXAEBV?$basic_string@DU?$char_traits@D@std@@V?$allocator@D@2@@std@@0@Z 0000000180024414     Properties.obj
 0004:00000420       $pdata$5$?put@Properties@common@ibmras@@UEAAXAEBV?$basic_string@DU?$char_traits@D@std@@V?$allocator@D@2@@std@@0@Z 0000000180024420     Properties.obj
 0004:0000042c       $pdata$?add@Properties@common@ibmras@@UEAAXAEBV123@@Z 000000018002442c     Properties.obj
 0004:00000438       $pdata$?exists@Properties@common@ibmras@@UEAA_NAEBV?$basic_string@DU?$char_traits@D@std@@V?$allocator@D@2@@std@@@Z 0000000180024438     Properties.obj
 0004:00000444       $pdata$?getKeys@Properties@common@ibmras@@UEAA?AV?$list@V?$basic_string@DU?$char_traits@D@std@@V?$allocator@D@2@@std@@V?$allocator@V?$basic_string@DU?$char_traits@D@std@@V?$allocator@D@2@@std@@@2@@std@@AEBV?$basic_string@DU?$char_traits@D@std@@V?$allocator@D@2@@5@@Z 0000000180024444     Properties.obj
 0004:00000450       $pdata$?add@Properties@common@ibmras@@UEAAXAEBV?$basic_string@DU?$char_traits@D@std@@V?$allocator@D@2@@std@@@Z 0000000180024450     Properties.obj
 0004:0000045c       $pdata$?toString@Properties@common@ibmras@@UEAA?AV?$basic_string@DU?$char_traits@D@std@@V?$allocator@D@2@@std@@XZ 000000018002445c     Properties.obj
 0004:00000468       $pdata$??1?$vector@V?$basic_string@DU?$char_traits@D@std@@V?$allocator@D@2@@std@@V?$allocator@V?$basic_string@DU?$char_traits@D@std@@V?$allocator@D@2@@std@@@2@@std@@QEAA@XZ 0000000180024468     Properties.obj
 0004:00000474       $pdata$??1?$list@V?$basic_string@DU?$char_traits@D@std@@V?$allocator@D@2@@std@@V?$allocator@V?$basic_string@DU?$char_traits@D@std@@V?$allocator@D@2@@std@@@2@@std@@QEAA@XZ 0000000180024474     Properties.obj
 0004:00000480       $pdata$?lower_bound@?$_Tree@V?$_Tmap_traits@V?$basic_string@DU?$char_traits@D@std@@V?$allocator@D@2@@std@@V12@U?$less@V?$basic_string@DU?$char_traits@D@std@@V?$allocator@D@2@@std@@@2@V?$allocator@U?$pair@$$CBV?$basic_string@DU?$char_traits@D@std@@V?$allocator@D@2@@std@@V12@@std@@@2@$0A@@std@@@std@@QEAA?AV?$_Tree_iterator@V?$_Tree_val@U?$_Tree_simple_types@U?$pair@$$CBV?$basic_string@DU?$char_traits@D@std@@V?$allocator@D@2@@std@@V12@@std@@@std@@@std@@@2@AEBV?$basic_string@DU?$char_traits@D@std@@V?$allocator@D@2@@2@@Z 0000000180024480     Properties.obj
 0004:0000048c       $pdata$2$?lower_bound@?$_Tree@V?$_Tmap_traits@V?$basic_string@DU?$char_traits@D@std@@V?$allocator@D@2@@std@@V12@U?$less@V?$basic_string@DU?$char_traits@D@std@@V?$allocator@D@2@@std@@@2@V?$allocator@U?$pair@$$CBV?$basic_string@DU?$char_traits@D@std@@V?$allocator@D@2@@std@@V12@@std@@@2@$0A@@std@@@std@@QEAA?AV?$_Tree_iterator@V?$_Tree_val@U?$_Tree_simple_types@U?$pair@$$CBV?$basic_string@DU?$char_traits@D@std@@V?$allocator@D@2@@std@@V12@@std@@@std@@@std@@@2@AEBV?$basic_string@DU?$char_traits@D@std@@V?$allocator@D@2@@2@@Z 000000018002448c     Properties.obj
 0004:00000498       $pdata$4$?lower_bound@?$_Tree@V?$_Tmap_traits@V?$basic_string@DU?$char_traits@D@std@@V?$allocator@D@2@@std@@V12@U?$less@V?$basic_string@DU?$char_traits@D@std@@V?$allocator@D@2@@std@@@2@V?$allocator@U?$pair@$$CBV?$basic_string@DU?$char_traits@D@std@@V?$allocator@D@2@@std@@V12@@std@@@2@$0A@@std@@@std@@QEAA?AV?$_Tree_iterator@V?$_Tree_val@U?$_Tree_simple_types@U?$pair@$$CBV?$basic_string@DU?$char_traits@D@std@@V?$allocator@D@2@@std@@V12@@std@@@std@@@std@@@2@AEBV?$basic_string@DU?$char_traits@D@std@@V?$allocator@D@2@@2@@Z 0000000180024498     Properties.obj
 0004:000004a4       $pdata$5$?lower_bound@?$_Tree@V?$_Tmap_traits@V?$basic_string@DU?$char_traits@D@std@@V?$allocator@D@2@@std@@V12@U?$less@V?$basic_string@DU?$char_traits@D@std@@V?$allocator@D@2@@std@@@2@V?$allocator@U?$pair@$$CBV?$basic_string@DU?$char_traits@D@std@@V?$allocator@D@2@@std@@V12@@std@@@2@$0A@@std@@@std@@QEAA?AV?$_Tree_iterator@V?$_Tree_val@U?$_Tree_simple_types@U?$pair@$$CBV?$basic_string@DU?$char_traits@D@std@@V?$allocator@D@2@@std@@V12@@std@@@std@@@std@@@2@AEBV?$basic_string@DU?$char_traits@D@std@@V?$allocator@D@2@@2@@Z 00000001800244a4     Properties.obj
 0004:000004b0       $pdata$?clear@?$_Tree@V?$_Tmap_traits@V?$basic_string@DU?$char_traits@D@std@@V?$allocator@D@2@@std@@V12@U?$less@V?$basic_string@DU?$char_traits@D@std@@V?$allocator@D@2@@std@@@2@V?$allocator@U?$pair@$$CBV?$basic_string@DU?$char_traits@D@std@@V?$allocator@D@2@@std@@V12@@std@@@2@$0A@@std@@@std@@QEAAXXZ 00000001800244b0     Properties.obj
 0004:000004bc       $pdata$?_Erase@?$_Tree@V?$_Tmap_traits@V?$basic_string@DU?$char_traits@D@std@@V?$allocator@D@2@@std@@V12@U?$less@V?$basic_string@DU?$char_traits@D@std@@V?$allocator@D@2@@std@@@2@V?$allocator@U?$pair@$$CBV?$basic_string@DU?$char_traits@D@std@@V?$allocator@D@2@@std@@V12@@std@@@2@$0A@@std@@@std@@IEAAXPEAU?$_Tree_node@U?$pair@$$CBV?$basic_string@DU?$char_traits@D@std@@V?$allocator@D@2@@std@@V12@@std@@PEAX@2@@Z 00000001800244bc     Properties.obj
 0004:000004c8       $pdata$??$_Copy@U_Copy_tag@?$_Tree@V?$_Tmap_traits@V?$basic_string@DU?$char_traits@D@std@@V?$allocator@D@2@@std@@V12@U?$less@V?$basic_string@DU?$char_traits@D@std@@V?$allocator@D@2@@std@@@2@V?$allocator@U?$pair@$$CBV?$basic_string@DU?$char_traits@D@std@@V?$allocator@D@2@@std@@V12@@std@@@2@$0A@@std@@@std@@@?$_Tree@V?$_Tmap_traits@V?$basic_string@DU?$char_traits@D@std@@V?$allocator@D@2@@std@@V12@U?$less@V?$basic_string@DU?$char_traits@D@std@@V?$allocator@D@2@@std@@@2@V?$allocator@U?$pair@$$CBV?$basic_string@DU?$char_traits@D@std@@V?$allocator@D@2@@std@@V12@@std@@@2@$0A@@std@@@std@@IEAAXAEBV01@U_Copy_tag@01@@Z 00000001800244c8     Properties.obj
 0004:000004d4       $pdata$??$_Destroy_range@V?$allocator@V?$basic_string@DU?$char_traits@D@std@@V?$allocator@D@2@@std@@@std@@@std@@YAXPEAV?$basic_string@DU?$char_traits@D@std@@V?$allocator@D@2@@0@0AEAV?$allocator@V?$basic_string@DU?$char_traits@D@std@@V?$allocator@D@2@@std@@@0@@Z 00000001800244d4     Properties.obj
 0004:000004e0       $pdata$0$??$_Destroy_range@V?$allocator@V?$basic_string@DU?$char_traits@D@std@@V?$allocator@D@2@@std@@@std@@@std@@YAXPEAV?$basic_string@DU?$char_traits@D@std@@V?$allocator@D@2@@0@0AEAV?$allocator@V?$basic_string@DU?$char_traits@D@std@@V?$allocator@D@2@@std@@@0@@Z 00000001800244e0     Properties.obj
 0004:000004ec       $pdata$1$??$_Destroy_range@V?$allocator@V?$basic_string@DU?$char_traits@D@std@@V?$allocator@D@2@@std@@@std@@@std@@YAXPEAV?$basic_string@DU?$char_traits@D@std@@V?$allocator@D@2@@0@0AEAV?$allocator@V?$basic_string@DU?$char_traits@D@std@@V?$allocator@D@2@@std@@@0@@Z 00000001800244ec     Properties.obj
 0004:000004f8       $pdata$2$??$_Destroy_range@V?$allocator@V?$basic_string@DU?$char_traits@D@std@@V?$allocator@D@2@@std@@@std@@@std@@YAXPEAV?$basic_string@DU?$char_traits@D@std@@V?$allocator@D@2@@0@0AEAV?$allocator@V?$basic_string@DU?$char_traits@D@std@@V?$allocator@D@2@@std@@@0@@Z 00000001800244f8     Properties.obj
 0004:00000504       $pdata$??1?$pair@$$CBV?$basic_string@DU?$char_traits@D@std@@V?$allocator@D@2@@std@@V12@@std@@QEAA@XZ 0000000180024504     Properties.obj
 0004:00000510       $pdata$??$_Copy_nodes@U_Copy_tag@?$_Tree@V?$_Tmap_traits@V?$basic_string@DU?$char_traits@D@std@@V?$allocator@D@2@@std@@V12@U?$less@V?$basic_string@DU?$char_traits@D@std@@V?$allocator@D@2@@std@@@2@V?$allocator@U?$pair@$$CBV?$basic_string@DU?$char_traits@D@std@@V?$allocator@D@2@@std@@V12@@std@@@2@$0A@@std@@@std@@@?$_Tree@V?$_Tmap_traits@V?$basic_string@DU?$char_traits@D@std@@V?$allocator@D@2@@std@@V12@U?$less@V?$basic_string@DU?$char_traits@D@std@@V?$allocator@D@2@@std@@@2@V?$allocator@U?$pair@$$CBV?$basic_string@DU?$char_traits@D@std@@V?$allocator@D@2@@std@@V12@@std@@@2@$0A@@std@@@std@@IEAAPEAU?$_Tree_node@U?$pair@$$CBV?$basic_string@DU?$char_traits@D@std@@V?$allocator@D@2@@std@@V12@@std@@PEAX@1@PEAU21@0U_Copy_tag@01@@Z 0000000180024510     Properties.obj
 0004:0000051c       $pdata$??$_Insert_hint@AEAU?$pair@$$CBV?$basic_string@DU?$char_traits@D@std@@V?$allocator@D@2@@std@@V12@@std@@PEAU?$_Tree_node@U?$pair@$$CBV?$basic_string@DU?$char_traits@D@std@@V?$allocator@D@2@@std@@V12@@std@@PEAX@2@@?$_Tree@V?$_Tmap_traits@V?$basic_string@DU?$char_traits@D@std@@V?$allocator@D@2@@std@@V12@U?$less@V?$basic_string@DU?$char_traits@D@std@@V?$allocator@D@2@@std@@@2@V?$allocator@U?$pair@$$CBV?$basic_string@DU?$char_traits@D@std@@V?$allocator@D@2@@std@@V12@@std@@@2@$0A@@std@@@std@@IEAA?AV?$_Tree_iterator@V?$_Tree_val@U?$_Tree_simple_types@U?$pair@$$CBV?$basic_string@DU?$char_traits@D@std@@V?$allocator@D@2@@std@@V12@@std@@@std@@@std@@@1@V?$_Tree_const_iterator@V?$_Tree_val@U?$_Tree_simple_types@U?$pair@$$CBV?$basic_string@DU?$char_traits@D@std@@V?$allocator@D@2@@std@@V12@@std@@@std@@@std@@@1@AEAU?$pair@$$CBV?$basic_string@DU?$char_traits@D@std@@V?$allocator@D@2@@std@@V12@@1@PEAU?$_Tree_node@U?$pair@$$CBV?$basic_string@DU?$char_traits@D@std@@V?$allocator@D@2@@std@@V12@@std@@PEAX@1@@Z 000000018002451c     Properties.obj
 0004:00000528       $pdata$2$??$_Insert_hint@AEAU?$pair@$$CBV?$basic_string@DU?$char_traits@D@std@@V?$allocator@D@2@@std@@V12@@std@@PEAU?$_Tree_node@U?$pair@$$CBV?$basic_string@DU?$char_traits@D@std@@V?$allocator@D@2@@std@@V12@@std@@PEAX@2@@?$_Tree@V?$_Tmap_traits@V?$basic_string@DU?$char_traits@D@std@@V?$allocator@D@2@@std@@V12@U?$less@V?$basic_string@DU?$char_traits@D@std@@V?$allocator@D@2@@std@@@2@V?$allocator@U?$pair@$$CBV?$basic_string@DU?$char_traits@D@std@@V?$allocator@D@2@@std@@V12@@std@@@2@$0A@@std@@@std@@IEAA?AV?$_Tree_iterator@V?$_Tree_val@U?$_Tree_simple_types@U?$pair@$$CBV?$basic_string@DU?$char_traits@D@std@@V?$allocator@D@2@@std@@V12@@std@@@std@@@std@@@1@V?$_Tree_const_iterator@V?$_Tree_val@U?$_Tree_simple_types@U?$pair@$$CBV?$basic_string@DU?$char_traits@D@std@@V?$allocator@D@2@@std@@V12@@std@@@std@@@std@@@1@AEAU?$pair@$$CBV?$basic_string@DU?$char_traits@D@std@@V?$allocator@D@2@@std@@V12@@1@PEAU?$_Tree_node@U?$pair@$$CBV?$basic_string@DU?$char_traits@D@std@@V?$allocator@D@2@@std@@V12@@std@@PEAX@1@@Z 0000000180024528     Properties.obj
 0004:00000534       $pdata$4$??$_Insert_hint@AEAU?$pair@$$CBV?$basic_string@DU?$char_traits@D@std@@V?$allocator@D@2@@std@@V12@@std@@PEAU?$_Tree_node@U?$pair@$$CBV?$basic_string@DU?$char_traits@D@std@@V?$allocator@D@2@@std@@V12@@std@@PEAX@2@@?$_Tree@V?$_Tmap_traits@V?$basic_string@DU?$char_traits@D@std@@V?$allocator@D@2@@std@@V12@U?$less@V?$basic_string@DU?$char_traits@D@std@@V?$allocator@D@2@@std@@@2@V?$allocator@U?$pair@$$CBV?$basic_string@DU?$char_traits@D@std@@V?$allocator@D@2@@std@@V12@@std@@@2@$0A@@std@@@std@@IEAA?AV?$_Tree_iterator@V?$_Tree_val@U?$_Tree_simple_types@U?$pair@$$CBV?$basic_string@DU?$char_traits@D@std@@V?$allocator@D@2@@std@@V12@@std@@@std@@@std@@@1@V?$_Tree_const_iterator@V?$_Tree_val@U?$_Tree_simple_types@U?$pair@$$CBV?$basic_string@DU?$char_traits@D@std@@V?$allocator@D@2@@std@@V12@@std@@@std@@@std@@@1@AEAU?$pair@$$CBV?$basic_string@DU?$char_traits@D@std@@V?$allocator@D@2@@std@@V12@@1@PEAU?$_Tree_node@U?$pair@$$CBV?$basic_string@DU?$char_traits@D@std@@V?$allocator@D@2@@std@@V12@@std@@PEAX@1@@Z 0000000180024534     Properties.obj
 0004:00000540       $pdata$?_Destroy_if_node@?$_Tree@V?$_Tmap_traits@V?$basic_string@DU?$char_traits@D@std@@V?$allocator@D@2@@std@@V12@U?$less@V?$basic_string@DU?$char_traits@D@std@@V?$allocator@D@2@@std@@@2@V?$allocator@U?$pair@$$CBV?$basic_string@DU?$char_traits@D@std@@V?$allocator@D@2@@std@@V12@@std@@@2@$0A@@std@@@std@@IEAAXPEAU?$_Tree_node@U?$pair@$$CBV?$basic_string@DU?$char_traits@D@std@@V?$allocator@D@2@@std@@V12@@std@@PEAX@2@@Z 0000000180024540     Properties.obj
 0004:0000054c       $pdata$??$_Insert_at@AEAU?$pair@$$CBV?$basic_string@DU?$char_traits@D@std@@V?$allocator@D@2@@std@@V12@@std@@PEAU?$_Tree_node@U?$pair@$$CBV?$basic_string@DU?$char_traits@D@std@@V?$allocator@D@2@@std@@V12@@std@@PEAX@2@@?$_Tree@V?$_Tmap_traits@V?$basic_string@DU?$char_traits@D@std@@V?$allocator@D@2@@std@@V12@U?$less@V?$basic_string@DU?$char_traits@D@std@@V?$allocator@D@2@@std@@@2@V?$allocator@U?$pair@$$CBV?$basic_string@DU?$char_traits@D@std@@V?$allocator@D@2@@std@@V12@@std@@@2@$0A@@std@@@std@@IEAA?AV?$_Tree_iterator@V?$_Tree_val@U?$_Tree_simple_types@U?$pair@$$CBV?$basic_string@DU?$char_traits@D@std@@V?$allocator@D@2@@std@@V12@@std@@@std@@@std@@@1@_NPEAU?$_Tree_node@U?$pair@$$CBV?$basic_string@DU?$char_traits@D@std@@V?$allocator@D@2@@std@@V12@@std@@PEAX@1@AEAU?$pair@$$CBV?$basic_string@DU?$char_traits@D@std@@V?$allocator@D@2@@std@@V12@@1@1@Z 000000018002454c     Properties.obj
 0004:00000558       $pdata$??$_Insert_nohint@AEAU?$pair@$$CBV?$basic_string@DU?$char_traits@D@std@@V?$allocator@D@2@@std@@V12@@std@@PEAU?$_Tree_node@U?$pair@$$CBV?$basic_string@DU?$char_traits@D@std@@V?$allocator@D@2@@std@@V12@@std@@PEAX@2@@?$_Tree@V?$_Tmap_traits@V?$basic_string@DU?$char_traits@D@std@@V?$allocator@D@2@@std@@V12@U?$less@V?$basic_string@DU?$char_traits@D@std@@V?$allocator@D@2@@std@@@2@V?$allocator@U?$pair@$$CBV?$basic_string@DU?$char_traits@D@std@@V?$allocator@D@2@@std@@V12@@std@@@2@$0A@@std@@@std@@IEAA?AU?$pair@V?$_Tree_iterator@V?$_Tree_val@U?$_Tree_simple_types@U?$pair@$$CBV?$basic_string@DU?$char_traits@D@std@@V?$allocator@D@2@@std@@V12@@std@@@std@@@std@@@std@@_N@1@_NAEAU?$pair@$$CBV?$basic_string@DU?$char_traits@D@std@@V?$allocator@D@2@@std@@V12@@1@PEAU?$_Tree_node@U?$pair@$$CBV?$basic_string@DU?$char_traits@D@std@@V?$allocator@D@2@@std@@V12@@std@@PEAX@1@@Z 0000000180024558     Properties.obj
 0004:00000564       $pdata$??1locale@std@@QEAA@XZ 0000000180024564     PropertiesFile.obj
 0004:00000570       $pdata$??0PropertiesFile@common@ibmras@@QEAA@XZ 0000000180024570     PropertiesFile.obj
 0004:0000057c       $pdata$??0PropertiesFile@common@ibmras@@QEAA@$$QEAV012@@Z 000000018002457c     PropertiesFile.obj
 0004:0000057c       $pdata$??0PropertiesFile@common@ibmras@@QEAA@AEBV012@@Z 000000018002457c     PropertiesFile.obj
 0004:00000588       $pdata$?load@PropertiesFile@common@ibmras@@QEAAHAEBV?$basic_string@DU?$char_traits@D@std@@V?$allocator@D@2@@std@@@Z 0000000180024588     PropertiesFile.obj
 0004:00000594       $pdata$??_D?$basic_ifstream@DU?$char_traits@D@std@@@std@@QEAAXXZ 0000000180024594     PropertiesFile.obj
 0004:000005a0       $pdata$??0?$basic_ifstream@DU?$char_traits@D@std@@@std@@QEAA@PEBDHH@Z 00000001800245a0     PropertiesFile.obj
 0004:000005ac       $pdata$?imbue@?$basic_filebuf@DU?$char_traits@D@std@@@std@@MEAAXAEBVlocale@2@@Z 00000001800245ac     PropertiesFile.obj
 0004:000005b8       $pdata$?sync@?$basic_filebuf@DU?$char_traits@D@std@@@std@@MEAAHXZ 00000001800245b8     PropertiesFile.obj
 0004:000005c4       $pdata$?setbuf@?$basic_filebuf@DU?$char_traits@D@std@@@std@@MEAAPEAV?$basic_streambuf@DU?$char_traits@D@std@@@2@PEAD_J@Z 00000001800245c4     PropertiesFile.obj
 0004:000005d0       $pdata$0$?setbuf@?$basic_filebuf@DU?$char_traits@D@std@@@std@@MEAAPEAV?$basic_streambuf@DU?$char_traits@D@std@@@2@PEAD_J@Z 00000001800245d0     PropertiesFile.obj
 0004:000005dc       $pdata$1$?setbuf@?$basic_filebuf@DU?$char_traits@D@std@@@std@@MEAAPEAV?$basic_streambuf@DU?$char_traits@D@std@@@2@PEAD_J@Z 00000001800245dc     PropertiesFile.obj
 0004:000005e8       $pdata$?seekpos@?$basic_filebuf@DU?$char_traits@D@std@@@std@@MEAA?AV?$fpos@U_Mbstatet@@@2@V32@H@Z 00000001800245e8     PropertiesFile.obj
 0004:000005f4       $pdata$?seekoff@?$basic_filebuf@DU?$char_traits@D@std@@@std@@MEAA?AV?$fpos@U_Mbstatet@@@2@_JHH@Z 00000001800245f4     PropertiesFile.obj
 0004:00000600       $pdata$?xsputn@?$basic_filebuf@DU?$char_traits@D@std@@@std@@MEAA_JPEBD_J@Z 0000000180024600     PropertiesFile.obj
 0004:0000060c       $pdata$?xsgetn@?$basic_filebuf@DU?$char_traits@D@std@@@std@@MEAA_JPEAD_J@Z 000000018002460c     PropertiesFile.obj
 0004:00000618       $pdata$?uflow@?$basic_filebuf@DU?$char_traits@D@std@@@std@@MEAAHXZ 0000000180024618     PropertiesFile.obj
 0004:00000624       $pdata$?underflow@?$basic_filebuf@DU?$char_traits@D@std@@@std@@MEAAHXZ 0000000180024624     PropertiesFile.obj
 0004:00000630       $pdata$0$?underflow@?$basic_filebuf@DU?$char_traits@D@std@@@std@@MEAAHXZ 0000000180024630     PropertiesFile.obj
 0004:0000063c       $pdata$2$?underflow@?$basic_filebuf@DU?$char_traits@D@std@@@std@@MEAAHXZ 000000018002463c     PropertiesFile.obj
 0004:00000648       $pdata$?pbackfail@?$basic_filebuf@DU?$char_traits@D@std@@@std@@MEAAHH@Z 0000000180024648     PropertiesFile.obj
 0004:00000654       $pdata$?overflow@?$basic_filebuf@DU?$char_traits@D@std@@@std@@MEAAHH@Z 0000000180024654     PropertiesFile.obj
 0004:00000660       $pdata$0$?overflow@?$basic_filebuf@DU?$char_traits@D@std@@@std@@MEAAHH@Z 0000000180024660     PropertiesFile.obj
 0004:0000066c       $pdata$1$?overflow@?$basic_filebuf@DU?$char_traits@D@std@@@std@@MEAAHH@Z 000000018002466c     PropertiesFile.obj
 0004:00000678       $pdata$??1?$basic_filebuf@DU?$char_traits@D@std@@@std@@UEAA@XZ 0000000180024678     PropertiesFile.obj
 0004:00000684       $pdata$??_G?$basic_ifstream@DU?$char_traits@D@std@@@std@@UEAAPEAXI@Z 0000000180024684     PropertiesFile.obj
 0004:00000690       $pdata$??_G?$basic_filebuf@DU?$char_traits@D@std@@@std@@UEAAPEAXI@Z 0000000180024690     PropertiesFile.obj
 0004:0000069c       $pdata$?_Endwrite@?$basic_filebuf@DU?$char_traits@D@std@@@std@@IEAA_NXZ 000000018002469c     PropertiesFile.obj
 0004:000006a8       $pdata$??$use_facet@V?$codecvt@DDU_Mbstatet@@@std@@@std@@YAAEBV?$codecvt@DDU_Mbstatet@@@0@AEBVlocale@0@@Z 00000001800246a8     PropertiesFile.obj
 0004:000006b4       $pdata$??$_Reallocate_grow_by@V<lambda_319d5e083f45f90dcdce5dce53cbb275>@@D@?$basic_string@DU?$char_traits@D@std@@V?$allocator@D@2@@std@@QEAAAEAV01@_KV<lambda_319d5e083f45f90dcdce5dce53cbb275>@@D@Z 00000001800246b4     PropertiesFile.obj
 0004:000006c0       $pdata$2$??$_Reallocate_grow_by@V<lambda_319d5e083f45f90dcdce5dce53cbb275>@@D@?$basic_string@DU?$char_traits@D@std@@V?$allocator@D@2@@std@@QEAAAEAV01@_KV<lambda_319d5e083f45f90dcdce5dce53cbb275>@@D@Z 00000001800246c0     PropertiesFile.obj
 0004:000006cc       $pdata$3$??$_Reallocate_grow_by@V<lambda_319d5e083f45f90dcdce5dce53cbb275>@@D@?$basic_string@DU?$char_traits@D@std@@V?$allocator@D@2@@std@@QEAAAEAV01@_KV<lambda_319d5e083f45f90dcdce5dce53cbb275>@@D@Z 00000001800246cc     PropertiesFile.obj
 0004:000006d8       $pdata$??1?$unique_ptr@V_Facet_base@std@@U?$default_delete@V_Facet_base@std@@@2@@std@@QEAA@XZ 00000001800246d8     PropertiesFile.obj
 0004:000006e4       $pdata$??$getline@DU?$char_traits@D@std@@V?$allocator@D@2@@std@@YAAEAV?$basic_istream@DU?$char_traits@D@std@@@0@$$QEAV10@AEAV?$basic_string@DU?$char_traits@D@std@@V?$allocator@D@2@@0@D@Z 00000001800246e4     PropertiesFile.obj
 0004:000006f0       $pdata$??1sentry@?$basic_istream@DU?$char_traits@D@std@@@std@@QEAA@XZ 00000001800246f0     PropertiesFile.obj
 0004:000006fc       $pdata$?split@util@common@ibmras@@YAAEAV?$vector@V?$basic_string@DU?$char_traits@D@std@@V?$allocator@D@2@@std@@V?$allocator@V?$basic_string@DU?$char_traits@D@std@@V?$allocator@D@2@@std@@@2@@std@@AEBV?$basic_string@DU?$char_traits@D@std@@V?$allocator@D@2@@5@DAEAV45@@Z 00000001800246fc     strUtils.obj
 0004:00000708       $pdata$?equalsIgnoreCase@util@common@ibmras@@YA_NAEBV?$basic_string@DU?$char_traits@D@std@@V?$allocator@D@2@@std@@0@Z 0000000180024708     strUtils.obj
 0004:00000714       $pdata$?createNativeString@util@common@ibmras@@YAPEADPEBD_N@Z 0000000180024714     strUtils.obj
 0004:00000714       $pdata$?createAsciiString@util@common@ibmras@@YAPEADPEBD_N@Z 0000000180024714     strUtils.obj
 0004:00000720       $pdata$0$?createNativeString@util@common@ibmras@@YAPEADPEBD_N@Z 0000000180024720     strUtils.obj
 0004:00000720       $pdata$0$?createAsciiString@util@common@ibmras@@YAPEADPEBD_N@Z 0000000180024720     strUtils.obj
 0004:0000072c       $pdata$1$?createNativeString@util@common@ibmras@@YAPEADPEBD_N@Z 000000018002472c     strUtils.obj
 0004:0000072c       $pdata$1$?createAsciiString@util@common@ibmras@@YAPEADPEBD_N@Z 000000018002472c     strUtils.obj
 0004:00000738       $pdata$??$_Emplace_reallocate@AEBV?$basic_string@DU?$char_traits@D@std@@V?$allocator@D@2@@std@@@?$vector@V?$basic_string@DU?$char_traits@D@std@@V?$allocator@D@2@@std@@V?$allocator@V?$basic_string@DU?$char_traits@D@std@@V?$allocator@D@2@@std@@@2@@std@@QEAAPEAV?$basic_string@DU?$char_traits@D@std@@V?$allocator@D@2@@1@QEAV21@AEBV21@@Z 0000000180024738     strUtils.obj
 0004:00000744       $pdata$2$??$_Emplace_reallocate@AEBV?$basic_string@DU?$char_traits@D@std@@V?$allocator@D@2@@std@@@?$vector@V?$basic_string@DU?$char_traits@D@std@@V?$allocator@D@2@@std@@V?$allocator@V?$basic_string@DU?$char_traits@D@std@@V?$allocator@D@2@@std@@@2@@std@@QEAAPEAV?$basic_string@DU?$char_traits@D@std@@V?$allocator@D@2@@1@QEAV21@AEBV21@@Z 0000000180024744     strUtils.obj
 0004:00000750       $pdata$3$??$_Emplace_reallocate@AEBV?$basic_string@DU?$char_traits@D@std@@V?$allocator@D@2@@std@@@?$vector@V?$basic_string@DU?$char_traits@D@std@@V?$allocator@D@2@@std@@V?$allocator@V?$basic_string@DU?$char_traits@D@std@@V?$allocator@D@2@@std@@@2@@std@@QEAAPEAV?$basic_string@DU?$char_traits@D@std@@V?$allocator@D@2@@1@QEAV21@AEBV21@@Z 0000000180024750     strUtils.obj
 0004:0000075c       $pdata$4$??$_Emplace_reallocate@AEBV?$basic_string@DU?$char_traits@D@std@@V?$allocator@D@2@@std@@@?$vector@V?$basic_string@DU?$char_traits@D@std@@V?$allocator@D@2@@std@@V?$allocator@V?$basic_string@DU?$char_traits@D@std@@V?$allocator@D@2@@std@@@2@@std@@QEAAPEAV?$basic_string@DU?$char_traits@D@std@@V?$allocator@D@2@@1@QEAV21@AEBV21@@Z 000000018002475c     strUtils.obj
 0004:00000768       $pdata$6$??$_Emplace_reallocate@AEBV?$basic_string@DU?$char_traits@D@std@@V?$allocator@D@2@@std@@@?$vector@V?$basic_string@DU?$char_traits@D@std@@V?$allocator@D@2@@std@@V?$allocator@V?$basic_string@DU?$char_traits@D@std@@V?$allocator@D@2@@std@@@2@@std@@QEAAPEAV?$basic_string@DU?$char_traits@D@std@@V?$allocator@D@2@@1@QEAV21@AEBV21@@Z 0000000180024768     strUtils.obj
 0004:00000774       $pdata$7$??$_Emplace_reallocate@AEBV?$basic_string@DU?$char_traits@D@std@@V?$allocator@D@2@@std@@@?$vector@V?$basic_string@DU?$char_traits@D@std@@V?$allocator@D@2@@std@@V?$allocator@V?$basic_string@DU?$char_traits@D@std@@V?$allocator@D@2@@std@@@2@@std@@QEAAPEAV?$basic_string@DU?$char_traits@D@std@@V?$allocator@D@2@@1@QEAV21@AEBV21@@Z 0000000180024774     strUtils.obj
 0004:00000780       $pdata$?getMilliseconds@util@common@ibmras@@YA_KXZ 0000000180024780     sysUtils.obj
 0004:0000078c       $pdata$??_GReceiver@connector@monitoring@ibmras@@UEAAPEAXI@Z 000000018002478c     Agent.obj
 0004:00000798       $pdata$?getID@Connector@connector@monitoring@ibmras@@UEAA?AV?$basic_string@DU?$char_traits@D@std@@V?$allocator@D@2@@std@@XZ 0000000180024798     Agent.obj
 0004:000007a4       $pdata$??_GConnector@connector@monitoring@ibmras@@UEAAPEAXI@Z 00000001800247a4     Agent.obj
 0004:000007b0       $pdata$??1Bucket@agent@monitoring@ibmras@@QEAA@XZ 00000001800247b0     Agent.obj
 0004:000007bc       $pdata$??0Bucket@agent@monitoring@ibmras@@QEAA@AEBV0123@@Z 00000001800247bc     Agent.obj
 0004:000007c8       $pdata$??4Bucket@agent@monitoring@ibmras@@QEAAAEAV0123@AEBV0123@@Z 00000001800247c8     Agent.obj
 0004:000007d4       $pdata$??4Bucket@agent@monitoring@ibmras@@QEAAAEAV0123@$$QEAV0123@@Z 00000001800247d4     Agent.obj
 0004:000007e0       $pdata$??0BucketList@agent@monitoring@ibmras@@QEAA@AEBV0123@@Z 00000001800247e0     Agent.obj
 0004:000007ec       $pdata$0$??0BucketList@agent@monitoring@ibmras@@QEAA@AEBV0123@@Z 00000001800247ec     Agent.obj
 0004:000007f8       $pdata$1$??0BucketList@agent@monitoring@ibmras@@QEAA@AEBV0123@@Z 00000001800247f8     Agent.obj
 0004:00000804       $pdata$??4BucketList@agent@monitoring@ibmras@@QEAAAEAV0123@AEBV0123@@Z 0000000180024804     Agent.obj
 0004:00000810       $pdata$??4BucketList@agent@monitoring@ibmras@@QEAAAEAV0123@$$QEAV0123@@Z 0000000180024810     Agent.obj
 0004:0000081c       $pdata$??1ReceivedMessage@ConnectorManager@connector@monitoring@ibmras@@UEAA@XZ 000000018002481c     Agent.obj
 0004:00000828       $pdata$??0ConnectorManager@connector@monitoring@ibmras@@QEAA@AEBV0123@@Z 0000000180024828     Agent.obj
 0004:00000834       $pdata$??4ConnectorManager@connector@monitoring@ibmras@@QEAAAEAV0123@AEBV0123@@Z 0000000180024834     Agent.obj
 0004:00000840       $pdata$??_EConnectorManager@connector@monitoring@ibmras@@UEAAPEAXI@Z 0000000180024840     Agent.obj
 0004:0000084c       $pdata$??_GReceivedMessage@ConnectorManager@connector@monitoring@ibmras@@UEAAPEAXI@Z 000000018002484c     Agent.obj
 0004:00000858       $pdata$??1?$queue@VReceivedMessage@ConnectorManager@connector@monitoring@ibmras@@V?$deque@VReceivedMessage@ConnectorManager@connector@monitoring@ibmras@@V?$allocator@VReceivedMessage@ConnectorManager@connector@monitoring@ibmras@@@std@@@std@@@std@@QEAA@XZ 0000000180024858     Agent.obj
 0004:00000864       $pdata$??1?$set@PEAVConnector@connector@monitoring@ibmras@@U?$less@PEAVConnector@connector@monitoring@ibmras@@@std@@V?$allocator@PEAVConnector@connector@monitoring@ibmras@@@6@@std@@QEAA@XZ 0000000180024864     Agent.obj
 0004:00000870       $pdata$?getID@ConfigurationConnector@connector@monitoring@ibmras@@UEAA?AV?$basic_string@DU?$char_traits@D@std@@V?$allocator@D@2@@std@@XZ 0000000180024870     Agent.obj
 0004:0000087c       $pdata$??0ConfigurationConnector@connector@monitoring@ibmras@@QEAA@AEBV0123@@Z 000000018002487c     Agent.obj
 0004:00000888       $pdata$??4ConfigurationConnector@connector@monitoring@ibmras@@QEAAAEAV0123@AEBV0123@@Z 0000000180024888     Agent.obj
 0004:00000894       $pdata$??_EConfigurationConnector@connector@monitoring@ibmras@@UEAAPEAXI@Z 0000000180024894     Agent.obj
 0004:000008a0       $pdata$??1Agent@agent@monitoring@ibmras@@QEAA@XZ 00000001800248a0     Agent.obj
 0004:000008ac       $pdata$??0Agent@agent@monitoring@ibmras@@QEAA@AEBV0123@@Z 00000001800248ac     Agent.obj
 0004:000008b8       $pdata$??0Agent@agent@monitoring@ibmras@@QEAA@$$QEAV0123@@Z 00000001800248b8     Agent.obj
 0004:000008c4       $pdata$??4Agent@agent@monitoring@ibmras@@QEAAAEAV0123@AEBV0123@@Z 00000001800248c4     Agent.obj
 0004:000008d0       $pdata$??4Agent@agent@monitoring@ibmras@@QEAAAEAV0123@$$QEAV0123@@Z 00000001800248d0     Agent.obj
 0004:000008dc       $pdata$??_EAgentExtensionReceiver@monitoring@ibmras@@UEAAPEAXI@Z 00000001800248dc     Agent.obj
 0004:000008e8       $pdata$loader_entrypoint   00000001800248e8     Agent.obj
 0004:000008f4       $pdata$getPropertyWrapper  00000001800248f4     Agent.obj
 0004:00000900       $pdata$setPropertyWrapper  0000000180024900     Agent.obj
 0004:0000090c       $pdata$sendMessageWrapper  000000018002490c     Agent.obj
 0004:00000918       $pdata$getVersionWrapper   0000000180024918     Agent.obj
 0004:00000924       $pdata$??0Agent@agent@monitoring@ibmras@@QEAA@XZ 0000000180024924     Agent.obj
 0004:00000930       $pdata$?getBuildDate@Agent@agent@monitoring@ibmras@@SA?AV?$basic_string@DU?$char_traits@D@std@@V?$allocator@D@2@@std@@XZ 0000000180024930     Agent.obj
 0004:0000093c       $pdata$?getVersion@Agent@agent@monitoring@ibmras@@SA?AV?$basic_string@DU?$char_traits@D@std@@V?$allocator@D@2@@std@@XZ 000000018002493c     Agent.obj
 0004:00000948       $pdata$?setLogLevels@Agent@agent@monitoring@ibmras@@QEAAXXZ 0000000180024948     Agent.obj
 0004:00000954       $pdata$?setLocalLog@Agent@agent@monitoring@ibmras@@QEAAX_N@Z 0000000180024954     Agent.obj
 0004:00000960       $pdata$?getPullSource@Agent@agent@monitoring@ibmras@@QEAAPEAV?$DataSource@Upullsource@@@234@V?$basic_string@DU?$char_traits@D@std@@V?$allocator@D@2@@std@@@Z 0000000180024960     Agent.obj
 0004:0000096c       $pdata$?getPushSource@Agent@agent@monitoring@ibmras@@QEAAPEAV?$DataSource@Upushsource@@@234@V?$basic_string@DU?$char_traits@D@std@@V?$allocator@D@2@@std@@@Z 000000018002496c     Agent.obj
 0004:00000978       $pdata$?processPublishLoop@agent@monitoring@ibmras@@YAPEAXPEAVThreadData@port@common@3@@Z 0000000180024978     Agent.obj
 0004:00000984       $pdata$?endPullSourceLoop@agent@monitoring@ibmras@@YAPEAXPEAVThreadData@port@common@3@@Z 0000000180024984     Agent.obj
 0004:00000990       $pdata$?processPullSourceLoop@agent@monitoring@ibmras@@YAPEAXPEAVThreadData@port@common@3@@Z 0000000180024990     Agent.obj
 0004:0000099c       $pdata$?publish@Agent@agent@monitoring@ibmras@@QEAAXXZ 000000018002499c     Agent.obj
 0004:000009a8       $pdata$0$?publish@Agent@agent@monitoring@ibmras@@QEAAXXZ 00000001800249a8     Agent.obj
 0004:000009b4       $pdata$1$?publish@Agent@agent@monitoring@ibmras@@QEAAXXZ 00000001800249b4     Agent.obj
 0004:000009c0       $pdata$?republish@Agent@agent@monitoring@ibmras@@QEAAXAEBV?$basic_string@DU?$char_traits@D@std@@V?$allocator@D@2@@std@@@Z 00000001800249c0     Agent.obj
 0004:000009cc       $pdata$0$?republish@Agent@agent@monitoring@ibmras@@QEAAXAEBV?$basic_string@DU?$char_traits@D@std@@V?$allocator@D@2@@std@@@Z 00000001800249cc     Agent.obj
 0004:000009d8       $pdata$1$?republish@Agent@agent@monitoring@ibmras@@QEAAXAEBV?$basic_string@DU?$char_traits@D@std@@V?$allocator@D@2@@std@@@Z 00000001800249d8     Agent.obj
 0004:000009e4       $pdata$?addPushSource@Agent@agent@monitoring@ibmras@@AEAAXV?$_Vector_iterator@V?$_Vector_val@U?$_Simple_types@PEAVPlugin@monitoring@ibmras@@@std@@@std@@@std@@I@Z 00000001800249e4     Agent.obj
 0004:000009f0       $pdata$?addPullSource@Agent@agent@monitoring@ibmras@@AEAAXV?$_Vector_iterator@V?$_Vector_val@U?$_Simple_types@PEAVPlugin@monitoring@ibmras@@@std@@@std@@@std@@I@Z 00000001800249f0     Agent.obj
 0004:000009fc       $pdata$?createBuckets@Agent@agent@monitoring@ibmras@@AEAAXXZ 00000001800249fc     Agent.obj
 0004:00000a08       $pdata$?addPlugin@Agent@agent@monitoring@ibmras@@QEAAXPEAVPlugin@34@@Z 0000000180024a08     Agent.obj
 0004:00000a14       $pdata$0$?addPlugin@Agent@agent@monitoring@ibmras@@QEAAXPEAVPlugin@34@@Z 0000000180024a14     Agent.obj
 0004:00000a20       $pdata$1$?addPlugin@Agent@agent@monitoring@ibmras@@QEAAXPEAVPlugin@34@@Z 0000000180024a20     Agent.obj
 0004:00000a2c       $pdata$?addPlugin@Agent@agent@monitoring@ibmras@@QEAAXAEBV?$basic_string@DU?$char_traits@D@std@@V?$allocator@D@2@@std@@V56@@Z 0000000180024a2c     Agent.obj
 0004:00000a38       $pdata$?addPlugin@Agent@agent@monitoring@ibmras@@QEAAXPEBD@Z 0000000180024a38     Agent.obj
 0004:00000a44       $pdata$?addSystemPlugins@Agent@agent@monitoring@ibmras@@AEAAXXZ 0000000180024a44     Agent.obj
 0004:00000a50       $pdata$?removeConnector@Agent@agent@monitoring@ibmras@@QEAAXPEAVConnector@connector@34@@Z 0000000180024a50     Agent.obj
 0004:00000a5c       $pdata$?init@Agent@agent@monitoring@ibmras@@QEAAXXZ 0000000180024a5c     Agent.obj
 0004:00000a68       $pdata$?getConfig@Agent@agent@monitoring@ibmras@@QEAA?AV?$basic_string@DU?$char_traits@D@std@@V?$allocator@D@2@@std@@AEBV56@@Z 0000000180024a68     Agent.obj
 0004:00000a74       $pdata$?readOnly@Agent@agent@monitoring@ibmras@@QEAA_NXZ 0000000180024a74     Agent.obj
 0004:00000a80       $pdata$?start@Agent@agent@monitoring@ibmras@@QEAAXXZ 0000000180024a80     Agent.obj
 0004:00000a8c       $pdata$?startPlugins@Agent@agent@monitoring@ibmras@@AEAAXXZ 0000000180024a8c     Agent.obj
 0004:00000a98       $pdata$?stopPlugins@Agent@agent@monitoring@ibmras@@AEAAXXZ 0000000180024a98     Agent.obj
 0004:00000aa4       $pdata$?startReceivers@Agent@agent@monitoring@ibmras@@AEAAXXZ 0000000180024aa4     Agent.obj
 0004:00000ab0       $pdata$1$?startReceivers@Agent@agent@monitoring@ibmras@@AEAAXXZ 0000000180024ab0     Agent.obj
 0004:00000abc       $pdata$2$?startReceivers@Agent@agent@monitoring@ibmras@@AEAAXXZ 0000000180024abc     Agent.obj
 0004:00000ac8       $pdata$?startConnectors@Agent@agent@monitoring@ibmras@@AEAAXXZ 0000000180024ac8     Agent.obj
 0004:00000ad4       $pdata$?stop@Agent@agent@monitoring@ibmras@@QEAAXXZ 0000000180024ad4     Agent.obj
 0004:00000ae0       $pdata$?shutdown@Agent@agent@monitoring@ibmras@@QEAAXXZ 0000000180024ae0     Agent.obj
 0004:00000aec       $pdata$?getProperties@Agent@agent@monitoring@ibmras@@QEAA?AVProperties@common@4@XZ 0000000180024aec     Agent.obj
 0004:00000af8       $pdata$?getProperty@Agent@agent@monitoring@ibmras@@QEAA?AV?$basic_string@DU?$char_traits@D@std@@V?$allocator@D@2@@std@@AEBV56@@Z 0000000180024af8     Agent.obj
 0004:00000b04       $pdata$?getAgentPropertyPrefix@Agent@agent@monitoring@ibmras@@QEAA?AV?$basic_string@DU?$char_traits@D@std@@V?$allocator@D@2@@std@@XZ 0000000180024b04     Agent.obj
 0004:00000b10       $pdata$?getAgentProperty@Agent@agent@monitoring@ibmras@@QEAA?AV?$basic_string@DU?$char_traits@D@std@@V?$allocator@D@2@@std@@AEBV56@@Z 0000000180024b10     Agent.obj
 0004:00000b1c       $pdata$?setAgentProperty@Agent@agent@monitoring@ibmras@@QEAAXAEBV?$basic_string@DU?$char_traits@D@std@@V?$allocator@D@2@@std@@0@Z 0000000180024b1c     Agent.obj
 0004:00000b28       $pdata$?agentPropertyExists@Agent@agent@monitoring@ibmras@@QEAA_NAEBV?$basic_string@DU?$char_traits@D@std@@V?$allocator@D@2@@std@@@Z 0000000180024b28     Agent.obj
 0004:00000b34       $pdata$?setHeadlessRunning@Agent@agent@monitoring@ibmras@@QEAAX_N@Z 0000000180024b34     Agent.obj
 0004:00000b40       $pdata$?loadPropertiesFile@Agent@agent@monitoring@ibmras@@QEAA_NPEBD@Z 0000000180024b40     Agent.obj
 0004:00000b4c       $pdata$??4?$deque@VReceivedMessage@ConnectorManager@connector@monitoring@ibmras@@V?$allocator@VReceivedMessage@ConnectorManager@connector@monitoring@ibmras@@@std@@@std@@QEAAAEAV01@AEBV01@@Z 0000000180024b4c     Agent.obj
 0004:00000b58       $pdata$0$??4?$deque@VReceivedMessage@ConnectorManager@connector@monitoring@ibmras@@V?$allocator@VReceivedMessage@ConnectorManager@connector@monitoring@ibmras@@@std@@@std@@QEAAAEAV01@AEBV01@@Z 0000000180024b58     Agent.obj
 0004:00000b64       $pdata$2$??4?$deque@VReceivedMessage@ConnectorManager@connector@monitoring@ibmras@@V?$allocator@VReceivedMessage@ConnectorManager@connector@monitoring@ibmras@@@std@@@std@@QEAAAEAV01@AEBV01@@Z 0000000180024b64     Agent.obj
 0004:00000b70       $pdata$3$??4?$deque@VReceivedMessage@ConnectorManager@connector@monitoring@ibmras@@V?$allocator@VReceivedMessage@ConnectorManager@connector@monitoring@ibmras@@@std@@@std@@QEAAAEAV01@AEBV01@@Z 0000000180024b70     Agent.obj
 0004:00000b7c       $pdata$4$??4?$deque@VReceivedMessage@ConnectorManager@connector@monitoring@ibmras@@V?$allocator@VReceivedMessage@ConnectorManager@connector@monitoring@ibmras@@@std@@@std@@QEAAAEAV01@AEBV01@@Z 0000000180024b7c     Agent.obj
 0004:00000b88       $pdata$??1?$_Deque_alloc@U?$_Deque_base_types@VReceivedMessage@ConnectorManager@connector@monitoring@ibmras@@V?$allocator@VReceivedMessage@ConnectorManager@connector@monitoring@ibmras@@@std@@@std@@@std@@QEAA@XZ 0000000180024b88     Agent.obj
 0004:00000b94       $pdata$?_Tidy@?$deque@VReceivedMessage@ConnectorManager@connector@monitoring@ibmras@@V?$allocator@VReceivedMessage@ConnectorManager@connector@monitoring@ibmras@@@std@@@std@@IEAAXXZ 0000000180024b94     Agent.obj
 0004:00000ba0       $pdata$?erase@?$deque@VReceivedMessage@ConnectorManager@connector@monitoring@ibmras@@V?$allocator@VReceivedMessage@ConnectorManager@connector@monitoring@ibmras@@@std@@@std@@QEAA?AV?$_Deque_iterator@V?$_Deque_val@U?$_Deque_simple_types@VReceivedMessage@ConnectorManager@connector@monitoring@ibmras@@@std@@@std@@@2@V?$_Deque_const_iterator@V?$_Deque_val@U?$_Deque_simple_types@VReceivedMessage@ConnectorManager@connector@monitoring@ibmras@@@std@@@std@@@2@0@Z 0000000180024ba0     Agent.obj
 0004:00000bac       $pdata$5$?erase@?$deque@VReceivedMessage@ConnectorManager@connector@monitoring@ibmras@@V?$allocator@VReceivedMessage@ConnectorManager@connector@monitoring@ibmras@@@std@@@std@@QEAA?AV?$_Deque_iterator@V?$_Deque_val@U?$_Deque_simple_types@VReceivedMessage@ConnectorManager@connector@monitoring@ibmras@@@std@@@std@@@2@V?$_Deque_const_iterator@V?$_Deque_val@U?$_Deque_simple_types@VReceivedMessage@ConnectorManager@connector@monitoring@ibmras@@@std@@@std@@@2@0@Z 0000000180024bac     Agent.obj
 0004:00000bb8       $pdata$6$?erase@?$deque@VReceivedMessage@ConnectorManager@connector@monitoring@ibmras@@V?$allocator@VReceivedMessage@ConnectorManager@connector@monitoring@ibmras@@@std@@@std@@QEAA?AV?$_Deque_iterator@V?$_Deque_val@U?$_Deque_simple_types@VReceivedMessage@ConnectorManager@connector@monitoring@ibmras@@@std@@@std@@@2@V?$_Deque_const_iterator@V?$_Deque_val@U?$_Deque_simple_types@VReceivedMessage@ConnectorManager@connector@monitoring@ibmras@@@std@@@std@@@2@0@Z 0000000180024bb8     Agent.obj
 0004:00000bc4       $pdata$7$?erase@?$deque@VReceivedMessage@ConnectorManager@connector@monitoring@ibmras@@V?$allocator@VReceivedMessage@ConnectorManager@connector@monitoring@ibmras@@@std@@@std@@QEAA?AV?$_Deque_iterator@V?$_Deque_val@U?$_Deque_simple_types@VReceivedMessage@ConnectorManager@connector@monitoring@ibmras@@@std@@@std@@@2@V?$_Deque_const_iterator@V?$_Deque_val@U?$_Deque_simple_types@VReceivedMessage@ConnectorManager@connector@monitoring@ibmras@@@std@@@std@@@2@0@Z 0000000180024bc4     Agent.obj
 0004:00000bd0       $pdata$?append@?$basic_string@DU?$char_traits@D@std@@V?$allocator@D@2@@std@@QEAAAEAV12@QEBD_K@Z 0000000180024bd0     Agent.obj
 0004:00000bdc       $pdata$0$?append@?$basic_string@DU?$char_traits@D@std@@V?$allocator@D@2@@std@@QEAAAEAV12@QEBD_K@Z 0000000180024bdc     Agent.obj
 0004:00000be8       $pdata$1$?append@?$basic_string@DU?$char_traits@D@std@@V?$allocator@D@2@@std@@QEAAAEAV12@QEBD_K@Z 0000000180024be8     Agent.obj
 0004:00000bf4       $pdata$?clear@?$_Tree@V?$_Tset_traits@PEAVReceiver@connector@monitoring@ibmras@@U?$less@PEAVReceiver@connector@monitoring@ibmras@@@std@@V?$allocator@PEAVReceiver@connector@monitoring@ibmras@@@6@$0A@@std@@@std@@QEAAXXZ 0000000180024bf4     Agent.obj
 0004:00000bf4       $pdata$?clear@?$_Tree@V?$_Tset_traits@PEAVConnector@connector@monitoring@ibmras@@U?$less@PEAVConnector@connector@monitoring@ibmras@@@std@@V?$allocator@PEAVConnector@connector@monitoring@ibmras@@@6@$0A@@std@@@std@@QEAAXXZ 0000000180024bf4     Agent.obj
 0004:00000c00       $pdata$?erase@?$_Tree@V?$_Tset_traits@PEAVReceiver@connector@monitoring@ibmras@@U?$less@PEAVReceiver@connector@monitoring@ibmras@@@std@@V?$allocator@PEAVReceiver@connector@monitoring@ibmras@@@6@$0A@@std@@@std@@QEAA?AV?$_Tree_const_iterator@V?$_Tree_val@U?$_Tree_simple_types@PEAVReceiver@connector@monitoring@ibmras@@@std@@@std@@@2@V32@0@Z 0000000180024c00     Agent.obj
 0004:00000c00       $pdata$?erase@?$_Tree@V?$_Tset_traits@PEAVConnector@connector@monitoring@ibmras@@U?$less@PEAVConnector@connector@monitoring@ibmras@@@std@@V?$allocator@PEAVConnector@connector@monitoring@ibmras@@@6@$0A@@std@@@std@@QEAA?AV?$_Tree_const_iterator@V?$_Tree_val@U?$_Tree_simple_types@PEAVConnector@connector@monitoring@ibmras@@@std@@@std@@@2@V32@0@Z 0000000180024c00     Agent.obj
 0004:00000c0c       $pdata$?_Erase@?$_Tree@V?$_Tset_traits@PEAVConnector@connector@monitoring@ibmras@@U?$less@PEAVConnector@connector@monitoring@ibmras@@@std@@V?$allocator@PEAVConnector@connector@monitoring@ibmras@@@6@$0A@@std@@@std@@IEAAXPEAU?$_Tree_node@PEAVConnector@connector@monitoring@ibmras@@PEAX@2@@Z 0000000180024c0c     Agent.obj
 0004:00000c0c       $pdata$?_Erase@?$_Tree@V?$_Tset_traits@PEAVReceiver@connector@monitoring@ibmras@@U?$less@PEAVReceiver@connector@monitoring@ibmras@@@std@@V?$allocator@PEAVReceiver@connector@monitoring@ibmras@@@6@$0A@@std@@@std@@IEAAXPEAU?$_Tree_node@PEAVReceiver@connector@monitoring@ibmras@@PEAX@2@@Z 0000000180024c0c     Agent.obj
 0004:00000c18       $pdata$?_Extract@?$_Tree_val@U?$_Tree_simple_types@PEAVConnector@connector@monitoring@ibmras@@@std@@@std@@QEAAPEAU?$_Tree_node@PEAVConnector@connector@monitoring@ibmras@@PEAX@2@V?$_Tree_const_iterator@V?$_Tree_val@U?$_Tree_simple_types@PEAVConnector@connector@monitoring@ibmras@@@std@@@std@@@2@@Z 0000000180024c18     Agent.obj
 0004:00000c18       $pdata$?_Extract@?$_Tree_val@U?$_Tree_simple_types@PEAVReceiver@connector@monitoring@ibmras@@@std@@@std@@QEAAPEAU?$_Tree_node@PEAVReceiver@connector@monitoring@ibmras@@PEAX@2@V?$_Tree_const_iterator@V?$_Tree_val@U?$_Tree_simple_types@PEAVReceiver@connector@monitoring@ibmras@@@std@@@std@@@2@@Z 0000000180024c18     Agent.obj
 0004:00000c24       $pdata$?add@?$DataSourceList@Upushsource@@@agent@monitoring@ibmras@@QEAAXIPEAUpushsource@@V?$basic_string@DU?$char_traits@D@std@@V?$allocator@D@2@@std@@@Z 0000000180024c24     Agent.obj
 0004:00000c24       $pdata$?add@?$DataSourceList@Upullsource@@@agent@monitoring@ibmras@@QEAAXIPEAUpullsource@@V?$basic_string@DU?$char_traits@D@std@@V?$allocator@D@2@@std@@@Z 0000000180024c24     Agent.obj
 0004:00000c30       $pdata$?toString@?$DataSourceList@Upushsource@@@agent@monitoring@ibmras@@QEAA?AV?$basic_string@DU?$char_traits@D@std@@V?$allocator@D@2@@std@@XZ 0000000180024c30     Agent.obj
 0004:00000c30       $pdata$?toString@?$DataSourceList@Upullsource@@@agent@monitoring@ibmras@@QEAA?AV?$basic_string@DU?$char_traits@D@std@@V?$allocator@D@2@@std@@XZ 0000000180024c30     Agent.obj
 0004:00000c3c       $pdata$?getBuckets@?$DataSourceList@Upullsource@@@agent@monitoring@ibmras@@QEAA?AV?$vector@PEAVBucket@agent@monitoring@ibmras@@V?$allocator@PEAVBucket@agent@monitoring@ibmras@@@std@@@std@@XZ 0000000180024c3c     Agent.obj
 0004:00000c3c       $pdata$?getBuckets@?$DataSourceList@Upushsource@@@agent@monitoring@ibmras@@QEAA?AV?$vector@PEAVBucket@agent@monitoring@ibmras@@V?$allocator@PEAVBucket@agent@monitoring@ibmras@@@std@@@std@@XZ 0000000180024c3c     Agent.obj
 0004:00000c48       $pdata$??$_Emplace_reallocate@AEBQEAVPlugin@monitoring@ibmras@@@?$vector@PEAVPlugin@monitoring@ibmras@@V?$allocator@PEAVPlugin@monitoring@ibmras@@@std@@@std@@QEAAPEAPEAVPlugin@monitoring@ibmras@@QEAPEAV234@AEBQEAV234@@Z 0000000180024c48     Agent.obj
 0004:00000c54       $pdata$2$??$_Emplace_reallocate@AEBQEAVPlugin@monitoring@ibmras@@@?$vector@PEAVPlugin@monitoring@ibmras@@V?$allocator@PEAVPlugin@monitoring@ibmras@@@std@@@std@@QEAAPEAPEAVPlugin@monitoring@ibmras@@QEAPEAV234@AEBQEAV234@@Z 0000000180024c54     Agent.obj
 0004:00000c60       $pdata$3$??$_Emplace_reallocate@AEBQEAVPlugin@monitoring@ibmras@@@?$vector@PEAVPlugin@monitoring@ibmras@@V?$allocator@PEAVPlugin@monitoring@ibmras@@@std@@@std@@QEAAPEAPEAVPlugin@monitoring@ibmras@@QEAPEAV234@AEBQEAV234@@Z 0000000180024c60     Agent.obj
 0004:00000c6c       $pdata$??$copy@V?$_Deque_const_iterator@V?$_Deque_val@U?$_Deque_simple_types@VReceivedMessage@ConnectorManager@connector@monitoring@ibmras@@@std@@@std@@@std@@V?$_Deque_iterator@V?$_Deque_val@U?$_Deque_simple_types@VReceivedMessage@ConnectorManager@connector@monitoring@ibmras@@@std@@@std@@@2@@std@@YA?AV?$_Deque_iterator@V?$_Deque_val@U?$_Deque_simple_types@VReceivedMessage@ConnectorManager@connector@monitoring@ibmras@@@std@@@std@@@0@V?$_Deque_const_iterator@V?$_Deque_val@U?$_Deque_simple_types@VReceivedMessage@ConnectorManager@connector@monitoring@ibmras@@@std@@@std@@@0@0V10@@Z 0000000180024c6c     Agent.obj
 0004:00000c78       $pdata$3$??$copy@V?$_Deque_const_iterator@V?$_Deque_val@U?$_Deque_simple_types@VReceivedMessage@ConnectorManager@connector@monitoring@ibmras@@@std@@@std@@@std@@V?$_Deque_iterator@V?$_Deque_val@U?$_Deque_simple_types@VReceivedMessage@ConnectorManager@connector@monitoring@ibmras@@@std@@@std@@@2@@std@@YA?AV?$_Deque_iterator@V?$_Deque_val@U?$_Deque_simple_types@VReceivedMessage@ConnectorManager@connector@monitoring@ibmras@@@std@@@std@@@0@V?$_Deque_const_iterator@V?$_Deque_val@U?$_Deque_simple_types@VReceivedMessage@ConnectorManager@connector@monitoring@ibmras@@@std@@@std@@@0@0V10@@Z 0000000180024c78     Agent.obj
 0004:00000c84       $pdata$5$??$copy@V?$_Deque_const_iterator@V?$_Deque_val@U?$_Deque_simple_types@VReceivedMessage@ConnectorManager@connector@monitoring@ibmras@@@std@@@std@@@std@@V?$_Deque_iterator@V?$_Deque_val@U?$_Deque_simple_types@VReceivedMessage@ConnectorManager@connector@monitoring@ibmras@@@std@@@std@@@2@@std@@YA?AV?$_Deque_iterator@V?$_Deque_val@U?$_Deque_simple_types@VReceivedMessage@ConnectorManager@connector@monitoring@ibmras@@@std@@@std@@@0@V?$_Deque_const_iterator@V?$_Deque_val@U?$_Deque_simple_types@VReceivedMessage@ConnectorManager@connector@monitoring@ibmras@@@std@@@std@@@0@0V10@@Z 0000000180024c84     Agent.obj
 0004:00000c90       $pdata$6$??$copy@V?$_Deque_const_iterator@V?$_Deque_val@U?$_Deque_simple_types@VReceivedMessage@ConnectorManager@connector@monitoring@ibmras@@@std@@@std@@@std@@V?$_Deque_iterator@V?$_Deque_val@U?$_Deque_simple_types@VReceivedMessage@ConnectorManager@connector@monitoring@ibmras@@@std@@@std@@@2@@std@@YA?AV?$_Deque_iterator@V?$_Deque_val@U?$_Deque_simple_types@VReceivedMessage@ConnectorManager@connector@monitoring@ibmras@@@std@@@std@@@0@V?$_Deque_const_iterator@V?$_Deque_val@U?$_Deque_simple_types@VReceivedMessage@ConnectorManager@connector@monitoring@ibmras@@@std@@@std@@@0@0V10@@Z 0000000180024c90     Agent.obj
 0004:00000c9c       $pdata$7$??$copy@V?$_Deque_const_iterator@V?$_Deque_val@U?$_Deque_simple_types@VReceivedMessage@ConnectorManager@connector@monitoring@ibmras@@@std@@@std@@@std@@V?$_Deque_iterator@V?$_Deque_val@U?$_Deque_simple_types@VReceivedMessage@ConnectorManager@connector@monitoring@ibmras@@@std@@@std@@@2@@std@@YA?AV?$_Deque_iterator@V?$_Deque_val@U?$_Deque_simple_types@VReceivedMessage@ConnectorManager@connector@monitoring@ibmras@@@std@@@std@@@0@V?$_Deque_const_iterator@V?$_Deque_val@U?$_Deque_simple_types@VReceivedMessage@ConnectorManager@connector@monitoring@ibmras@@@std@@@std@@@0@0V10@@Z 0000000180024c9c     Agent.obj
 0004:00000ca8       $pdata$??$insert@V?$_Deque_const_iterator@V?$_Deque_val@U?$_Deque_simple_types@VReceivedMessage@ConnectorManager@connector@monitoring@ibmras@@@std@@@std@@@std@@X@?$deque@VReceivedMessage@ConnectorManager@connector@monitoring@ibmras@@V?$allocator@VReceivedMessage@ConnectorManager@connector@monitoring@ibmras@@@std@@@std@@QEAA?AV?$_Deque_iterator@V?$_Deque_val@U?$_Deque_simple_types@VReceivedMessage@ConnectorManager@connector@monitoring@ibmras@@@std@@@std@@@1@V?$_Deque_const_iterator@V?$_Deque_val@U?$_Deque_simple_types@VReceivedMessage@ConnectorManager@connector@monitoring@ibmras@@@std@@@std@@@1@00@Z 0000000180024ca8     Agent.obj
 0004:00000cb4       $pdata$??$_Copy@U_Copy_tag@?$_Tree@V?$_Tset_traits@PEAVReceiver@connector@monitoring@ibmras@@U?$less@PEAVReceiver@connector@monitoring@ibmras@@@std@@V?$allocator@PEAVReceiver@connector@monitoring@ibmras@@@6@$0A@@std@@@std@@@?$_Tree@V?$_Tset_traits@PEAVReceiver@connector@monitoring@ibmras@@U?$less@PEAVReceiver@connector@monitoring@ibmras@@@std@@V?$allocator@PEAVReceiver@connector@monitoring@ibmras@@@6@$0A@@std@@@std@@IEAAXAEBV01@U_Copy_tag@01@@Z 0000000180024cb4     Agent.obj
 0004:00000cb4       $pdata$??$_Copy@U_Copy_tag@?$_Tree@V?$_Tset_traits@PEAVConnector@connector@monitoring@ibmras@@U?$less@PEAVConnector@connector@monitoring@ibmras@@@std@@V?$allocator@PEAVConnector@connector@monitoring@ibmras@@@6@$0A@@std@@@std@@@?$_Tree@V?$_Tset_traits@PEAVConnector@connector@monitoring@ibmras@@U?$less@PEAVConnector@connector@monitoring@ibmras@@@std@@V?$allocator@PEAVConnector@connector@monitoring@ibmras@@@6@$0A@@std@@@std@@IEAAXAEBV01@U_Copy_tag@01@@Z 0000000180024cb4     Agent.obj
 0004:00000cc0       $pdata$??$_Reallocate_grow_by@V<lambda_65e615be2a453ca0576c979606f46740>@@PEBD_K@?$basic_string@DU?$char_traits@D@std@@V?$allocator@D@2@@std@@QEAAAEAV01@_KV<lambda_65e615be2a453ca0576c979606f46740>@@PEBD_K@Z 0000000180024cc0     Agent.obj
 0004:00000ccc       $pdata$3$??$_Reallocate_grow_by@V<lambda_65e615be2a453ca0576c979606f46740>@@PEBD_K@?$basic_string@DU?$char_traits@D@std@@V?$allocator@D@2@@std@@QEAAAEAV01@_KV<lambda_65e615be2a453ca0576c979606f46740>@@PEBD_K@Z 0000000180024ccc     Agent.obj
 0004:00000cd8       $pdata$4$??$_Reallocate_grow_by@V<lambda_65e615be2a453ca0576c979606f46740>@@PEBD_K@?$basic_string@DU?$char_traits@D@std@@V?$allocator@D@2@@std@@QEAAAEAV01@_KV<lambda_65e615be2a453ca0576c979606f46740>@@PEBD_K@Z 0000000180024cd8     Agent.obj
 0004:00000ce4       $pdata$?_Change_array@?$vector@PEAVPlugin@monitoring@ibmras@@V?$allocator@PEAVPlugin@monitoring@ibmras@@@std@@@std@@AEAAXQEAPEAVPlugin@monitoring@ibmras@@_K1@Z 0000000180024ce4     Agent.obj
 0004:00000cf0       $pdata$?_Growmap@?$deque@VReceivedMessage@ConnectorManager@connector@monitoring@ibmras@@V?$allocator@VReceivedMessage@ConnectorManager@connector@monitoring@ibmras@@@std@@@std@@IEAAX_K@Z 0000000180024cf0     Agent.obj
 0004:00000cfc       $pdata$1$?_Growmap@?$deque@VReceivedMessage@ConnectorManager@connector@monitoring@ibmras@@V?$allocator@VReceivedMessage@ConnectorManager@connector@monitoring@ibmras@@@std@@@std@@IEAAX_K@Z 0000000180024cfc     Agent.obj
 0004:00000d08       $pdata$4$?_Growmap@?$deque@VReceivedMessage@ConnectorManager@connector@monitoring@ibmras@@V?$allocator@VReceivedMessage@ConnectorManager@connector@monitoring@ibmras@@@std@@@std@@IEAAX_K@Z 0000000180024d08     Agent.obj
 0004:00000d14       $pdata$5$?_Growmap@?$deque@VReceivedMessage@ConnectorManager@connector@monitoring@ibmras@@V?$allocator@VReceivedMessage@ConnectorManager@connector@monitoring@ibmras@@@std@@@std@@IEAAX_K@Z 0000000180024d14     Agent.obj
 0004:00000d20       $pdata$7$?_Growmap@?$deque@VReceivedMessage@ConnectorManager@connector@monitoring@ibmras@@V?$allocator@VReceivedMessage@ConnectorManager@connector@monitoring@ibmras@@@std@@@std@@IEAAX_K@Z 0000000180024d20     Agent.obj
 0004:00000d2c       $pdata$8$?_Growmap@?$deque@VReceivedMessage@ConnectorManager@connector@monitoring@ibmras@@V?$allocator@VReceivedMessage@ConnectorManager@connector@monitoring@ibmras@@@std@@@std@@IEAAX_K@Z 0000000180024d2c     Agent.obj
 0004:00000d38       $pdata$?push_back@?$deque@VReceivedMessage@ConnectorManager@connector@monitoring@ibmras@@V?$allocator@VReceivedMessage@ConnectorManager@connector@monitoring@ibmras@@@std@@@std@@QEAAXAEBVReceivedMessage@ConnectorManager@connector@monitoring@ibmras@@@Z 0000000180024d38     Agent.obj
 0004:00000d44       $pdata$?reserve@?$basic_string@DU?$char_traits@D@std@@V?$allocator@D@2@@std@@QEAAX_K@Z 0000000180024d44     Agent.obj
 0004:00000d50       $pdata$0$?reserve@?$basic_string@DU?$char_traits@D@std@@V?$allocator@D@2@@std@@QEAAX_K@Z 0000000180024d50     Agent.obj
 0004:00000d5c       $pdata$2$?reserve@?$basic_string@DU?$char_traits@D@std@@V?$allocator@D@2@@std@@QEAAX_K@Z 0000000180024d5c     Agent.obj
 0004:00000d68       $pdata$3$?reserve@?$basic_string@DU?$char_traits@D@std@@V?$allocator@D@2@@std@@QEAAX_K@Z 0000000180024d68     Agent.obj
 0004:00000d74       $pdata$4$?reserve@?$basic_string@DU?$char_traits@D@std@@V?$allocator@D@2@@std@@QEAAX_K@Z 0000000180024d74     Agent.obj
 0004:00000d80       $pdata$5$?reserve@?$basic_string@DU?$char_traits@D@std@@V?$allocator@D@2@@std@@QEAAX_K@Z 0000000180024d80     Agent.obj
 0004:00000d8c       $pdata$?_Xlen@?$deque@VReceivedMessage@ConnectorManager@connector@monitoring@ibmras@@V?$allocator@VReceivedMessage@ConnectorManager@connector@monitoring@ibmras@@@std@@@std@@IEBAXXZ 0000000180024d8c     Agent.obj
 0004:00000d98       $pdata$?toString@?$DataSource@Upullsource@@@agent@monitoring@ibmras@@QEAA?AV?$basic_string@DU?$char_traits@D@std@@V?$allocator@D@2@@std@@XZ 0000000180024d98     Agent.obj
 0004:00000d98       $pdata$?toString@?$DataSource@Upushsource@@@agent@monitoring@ibmras@@QEAA?AV?$basic_string@DU?$char_traits@D@std@@V?$allocator@D@2@@std@@XZ 0000000180024d98     Agent.obj
 0004:00000da4       $pdata$??$_Insert_range@PEAPEAVPlugin@monitoring@ibmras@@@?$vector@PEAVPlugin@monitoring@ibmras@@V?$allocator@PEAVPlugin@monitoring@ibmras@@@std@@@std@@AEAAXV?$_Vector_const_iterator@V?$_Vector_val@U?$_Simple_types@PEAVPlugin@monitoring@ibmras@@@std@@@std@@@1@PEAPEAVPlugin@monitoring@ibmras@@1Uforward_iterator_tag@1@@Z 0000000180024da4     Agent.obj
 0004:00000db0       $pdata$1$??$_Insert_range@PEAPEAVPlugin@monitoring@ibmras@@@?$vector@PEAVPlugin@monitoring@ibmras@@V?$allocator@PEAVPlugin@monitoring@ibmras@@@std@@@std@@AEAAXV?$_Vector_const_iterator@V?$_Vector_val@U?$_Simple_types@PEAVPlugin@monitoring@ibmras@@@std@@@std@@@1@PEAPEAVPlugin@monitoring@ibmras@@1Uforward_iterator_tag@1@@Z 0000000180024db0     Agent.obj
 0004:00000dbc       $pdata$2$??$_Insert_range@PEAPEAVPlugin@monitoring@ibmras@@@?$vector@PEAVPlugin@monitoring@ibmras@@V?$allocator@PEAVPlugin@monitoring@ibmras@@@std@@@std@@AEAAXV?$_Vector_const_iterator@V?$_Vector_val@U?$_Simple_types@PEAVPlugin@monitoring@ibmras@@@std@@@std@@@1@PEAPEAVPlugin@monitoring@ibmras@@1Uforward_iterator_tag@1@@Z 0000000180024dbc     Agent.obj
 0004:00000dc8       $pdata$3$??$_Insert_range@PEAPEAVPlugin@monitoring@ibmras@@@?$vector@PEAVPlugin@monitoring@ibmras@@V?$allocator@PEAVPlugin@monitoring@ibmras@@@std@@@std@@AEAAXV?$_Vector_const_iterator@V?$_Vector_val@U?$_Simple_types@PEAVPlugin@monitoring@ibmras@@@std@@@std@@@1@PEAPEAVPlugin@monitoring@ibmras@@1Uforward_iterator_tag@1@@Z 0000000180024dc8     Agent.obj
 0004:00000dd4       $pdata$??$rotate@V?$_Deque_iterator@V?$_Deque_val@U?$_Deque_simple_types@VReceivedMessage@ConnectorManager@connector@monitoring@ibmras@@@std@@@std@@@std@@@std@@YA?AV?$_Deque_iterator@V?$_Deque_val@U?$_Deque_simple_types@VReceivedMessage@ConnectorManager@connector@monitoring@ibmras@@@std@@@std@@@0@V10@00@Z 0000000180024dd4     Agent.obj
 0004:00000de0       $pdata$3$??$rotate@V?$_Deque_iterator@V?$_Deque_val@U?$_Deque_simple_types@VReceivedMessage@ConnectorManager@connector@monitoring@ibmras@@@std@@@std@@@std@@@std@@YA?AV?$_Deque_iterator@V?$_Deque_val@U?$_Deque_simple_types@VReceivedMessage@ConnectorManager@connector@monitoring@ibmras@@@std@@@std@@@0@V10@00@Z 0000000180024de0     Agent.obj
 0004:00000dec       $pdata$6$??$rotate@V?$_Deque_iterator@V?$_Deque_val@U?$_Deque_simple_types@VReceivedMessage@ConnectorManager@connector@monitoring@ibmras@@@std@@@std@@@std@@@std@@YA?AV?$_Deque_iterator@V?$_Deque_val@U?$_Deque_simple_types@VReceivedMessage@ConnectorManager@connector@monitoring@ibmras@@@std@@@std@@@0@V10@00@Z 0000000180024dec     Agent.obj
 0004:00000df8       $pdata$7$??$rotate@V?$_Deque_iterator@V?$_Deque_val@U?$_Deque_simple_types@VReceivedMessage@ConnectorManager@connector@monitoring@ibmras@@@std@@@std@@@std@@@std@@YA?AV?$_Deque_iterator@V?$_Deque_val@U?$_Deque_simple_types@VReceivedMessage@ConnectorManager@connector@monitoring@ibmras@@@std@@@std@@@0@V10@00@Z 0000000180024df8     Agent.obj
 0004:00000e04       $pdata$8$??$rotate@V?$_Deque_iterator@V?$_Deque_val@U?$_Deque_simple_types@VReceivedMessage@ConnectorManager@connector@monitoring@ibmras@@@std@@@std@@@std@@@std@@YA?AV?$_Deque_iterator@V?$_Deque_val@U?$_Deque_simple_types@VReceivedMessage@ConnectorManager@connector@monitoring@ibmras@@@std@@@std@@@0@V10@00@Z 0000000180024e04     Agent.obj
 0004:00000e10       $pdata$??$_Copy_nodes@U_Copy_tag@?$_Tree@V?$_Tset_traits@PEAVReceiver@connector@monitoring@ibmras@@U?$less@PEAVReceiver@connector@monitoring@ibmras@@@std@@V?$allocator@PEAVReceiver@connector@monitoring@ibmras@@@6@$0A@@std@@@std@@@?$_Tree@V?$_Tset_traits@PEAVReceiver@connector@monitoring@ibmras@@U?$less@PEAVReceiver@connector@monitoring@ibmras@@@std@@V?$allocator@PEAVReceiver@connector@monitoring@ibmras@@@6@$0A@@std@@@std@@IEAAPEAU?$_Tree_node@PEAVReceiver@connector@monitoring@ibmras@@PEAX@1@PEAU21@0U_Copy_tag@01@@Z 0000000180024e10     Agent.obj
 0004:00000e10       $pdata$??$_Copy_nodes@U_Copy_tag@?$_Tree@V?$_Tset_traits@PEAVConnector@connector@monitoring@ibmras@@U?$less@PEAVConnector@connector@monitoring@ibmras@@@std@@V?$allocator@PEAVConnector@connector@monitoring@ibmras@@@6@$0A@@std@@@std@@@?$_Tree@V?$_Tset_traits@PEAVConnector@connector@monitoring@ibmras@@U?$less@PEAVConnector@connector@monitoring@ibmras@@@std@@V?$allocator@PEAVConnector@connector@monitoring@ibmras@@@6@$0A@@std@@@std@@IEAAPEAU?$_Tree_node@PEAVConnector@connector@monitoring@ibmras@@PEAX@1@PEAU21@0U_Copy_tag@01@@Z 0000000180024e10     Agent.obj
 0004:00000e1c       $pdata$0$??$_Copy_nodes@U_Copy_tag@?$_Tree@V?$_Tset_traits@PEAVConnector@connector@monitoring@ibmras@@U?$less@PEAVConnector@connector@monitoring@ibmras@@@std@@V?$allocator@PEAVConnector@connector@monitoring@ibmras@@@6@$0A@@std@@@std@@@?$_Tree@V?$_Tset_traits@PEAVConnector@connector@monitoring@ibmras@@U?$less@PEAVConnector@connector@monitoring@ibmras@@@std@@V?$allocator@PEAVConnector@connector@monitoring@ibmras@@@6@$0A@@std@@@std@@IEAAPEAU?$_Tree_node@PEAVConnector@connector@monitoring@ibmras@@PEAX@1@PEAU21@0U_Copy_tag@01@@Z 0000000180024e1c     Agent.obj
 0004:00000e1c       $pdata$0$??$_Copy_nodes@U_Copy_tag@?$_Tree@V?$_Tset_traits@PEAVReceiver@connector@monitoring@ibmras@@U?$less@PEAVReceiver@connector@monitoring@ibmras@@@std@@V?$allocator@PEAVReceiver@connector@monitoring@ibmras@@@6@$0A@@std@@@std@@@?$_Tree@V?$_Tset_traits@PEAVReceiver@connector@monitoring@ibmras@@U?$less@PEAVReceiver@connector@monitoring@ibmras@@@std@@V?$allocator@PEAVReceiver@connector@monitoring@ibmras@@@6@$0A@@std@@@std@@IEAAPEAU?$_Tree_node@PEAVReceiver@connector@monitoring@ibmras@@PEAX@1@PEAU21@0U_Copy_tag@01@@Z 0000000180024e1c     Agent.obj
 0004:00000e28       $pdata$1$??$_Copy_nodes@U_Copy_tag@?$_Tree@V?$_Tset_traits@PEAVConnector@connector@monitoring@ibmras@@U?$less@PEAVConnector@connector@monitoring@ibmras@@@std@@V?$allocator@PEAVConnector@connector@monitoring@ibmras@@@6@$0A@@std@@@std@@@?$_Tree@V?$_Tset_traits@PEAVConnector@connector@monitoring@ibmras@@U?$less@PEAVConnector@connector@monitoring@ibmras@@@std@@V?$allocator@PEAVConnector@connector@monitoring@ibmras@@@6@$0A@@std@@@std@@IEAAPEAU?$_Tree_node@PEAVConnector@connector@monitoring@ibmras@@PEAX@1@PEAU21@0U_Copy_tag@01@@Z 0000000180024e28     Agent.obj
 0004:00000e28       $pdata$1$??$_Copy_nodes@U_Copy_tag@?$_Tree@V?$_Tset_traits@PEAVReceiver@connector@monitoring@ibmras@@U?$less@PEAVReceiver@connector@monitoring@ibmras@@@std@@V?$allocator@PEAVReceiver@connector@monitoring@ibmras@@@6@$0A@@std@@@std@@@?$_Tree@V?$_Tset_traits@PEAVReceiver@connector@monitoring@ibmras@@U?$less@PEAVReceiver@connector@monitoring@ibmras@@@std@@V?$allocator@PEAVReceiver@connector@monitoring@ibmras@@@6@$0A@@std@@@std@@IEAAPEAU?$_Tree_node@PEAVReceiver@connector@monitoring@ibmras@@PEAX@1@PEAU21@0U_Copy_tag@01@@Z 0000000180024e28     Agent.obj
 0004:00000e34       $pdata$??$_Reverse_unchecked@V?$_Deque_unchecked_iterator@V?$_Deque_val@U?$_Deque_simple_types@VReceivedMessage@ConnectorManager@connector@monitoring@ibmras@@@std@@@std@@@std@@@std@@YAXV?$_Deque_unchecked_iterator@V?$_Deque_val@U?$_Deque_simple_types@VReceivedMessage@ConnectorManager@connector@monitoring@ibmras@@@std@@@std@@@0@0@Z 0000000180024e34     Agent.obj
 0004:00000e40       $pdata$?stopAll@ThreadPool@threads@agent@monitoring@ibmras@@QEAAXXZ 0000000180024e40     ThreadPool.obj
 0004:00000e4c       $pdata$??1ThreadPool@threads@agent@monitoring@ibmras@@QEAA@XZ 0000000180024e4c     ThreadPool.obj
 0004:00000e58       $pdata$?stop@WorkerThread@threads@agent@monitoring@ibmras@@QEAAXXZ 0000000180024e58     WorkerThread.obj
 0004:00000e64       $pdata$?cleanUp@WorkerThread@threads@agent@monitoring@ibmras@@SAPEAXPEAVThreadData@port@common@5@@Z 0000000180024e64     WorkerThread.obj
 0004:00000e70       $pdata$?threadEntry@WorkerThread@threads@agent@monitoring@ibmras@@SAPEAXPEAVThreadData@port@common@5@@Z 0000000180024e70     WorkerThread.obj
 0004:00000e7c       $pdata$0$?threadEntry@WorkerThread@threads@agent@monitoring@ibmras@@SAPEAXPEAVThreadData@port@common@5@@Z 0000000180024e7c     WorkerThread.obj
 0004:00000e88       $pdata$1$?threadEntry@WorkerThread@threads@agent@monitoring@ibmras@@SAPEAXPEAVThreadData@port@common@5@@Z 0000000180024e88     WorkerThread.obj
 0004:00000e94       $pdata$2$?threadEntry@WorkerThread@threads@agent@monitoring@ibmras@@SAPEAXPEAVThreadData@port@common@5@@Z 0000000180024e94     WorkerThread.obj
 0004:00000ea0       $pdata$3$?threadEntry@WorkerThread@threads@agent@monitoring@ibmras@@SAPEAXPEAVThreadData@port@common@5@@Z 0000000180024ea0     WorkerThread.obj
 0004:00000eac       $pdata$??1Plugin@monitoring@ibmras@@UEAA@XZ 0000000180024eac     SystemReceiver.obj
 0004:00000eb8       $pdata$??_GPlugin@monitoring@ibmras@@UEAAPEAXI@Z 0000000180024eb8     SystemReceiver.obj
 0004:00000ec4       $pdata$??0SystemReceiver@agent@monitoring@ibmras@@QEAA@XZ 0000000180024ec4     SystemReceiver.obj
 0004:00000ed0       $pdata$??_GSystemReceiver@agent@monitoring@ibmras@@UEAAPEAXI@Z 0000000180024ed0     SystemReceiver.obj
 0004:00000edc       $pdata$?receiveMessage@SystemReceiver@agent@monitoring@ibmras@@UEAAXAEBV?$basic_string@DU?$char_traits@D@std@@V?$allocator@D@2@@std@@IPEAX@Z 0000000180024edc     SystemReceiver.obj
 0004:00000ee8       $pdata$ibmras_getSystemReceiver 0000000180024ee8     SystemReceiver.obj
 0004:00000ef4       $pdata$??0ConnectorManager@connector@monitoring@ibmras@@QEAA@XZ 0000000180024ef4     ConnectorManager.obj
 0004:00000f00       $pdata$??1ConnectorManager@connector@monitoring@ibmras@@UEAA@XZ 0000000180024f00     ConnectorManager.obj
 0004:00000f0c       $pdata$?addConnector@ConnectorManager@connector@monitoring@ibmras@@QEAAXPEAVConnector@234@@Z 0000000180024f0c     ConnectorManager.obj
 0004:00000f18       $pdata$?removeConnector@ConnectorManager@connector@monitoring@ibmras@@QEAAXPEAVConnector@234@@Z 0000000180024f18     ConnectorManager.obj
 0004:00000f24       $pdata$?addReceiver@ConnectorManager@connector@monitoring@ibmras@@QEAAXPEAVReceiver@234@@Z 0000000180024f24     ConnectorManager.obj
 0004:00000f30       $pdata$?removeReceiver@ConnectorManager@connector@monitoring@ibmras@@QEAAXPEAVReceiver@234@@Z 0000000180024f30     ConnectorManager.obj
 0004:00000f3c       $pdata$?receiveMessage@ConnectorManager@connector@monitoring@ibmras@@UEAAXAEBV?$basic_string@DU?$char_traits@D@std@@V?$allocator@D@2@@std@@IPEAX@Z 0000000180024f3c     ConnectorManager.obj
 0004:00000f48       $pdata$?processMessage@ConnectorManager@connector@monitoring@ibmras@@QEAAXAEBV?$basic_string@DU?$char_traits@D@std@@V?$allocator@D@2@@std@@IPEAX@Z 0000000180024f48     ConnectorManager.obj
 0004:00000f54       $pdata$?processReceivedMessage@ConnectorManager@connector@monitoring@ibmras@@AEAAXAEBVReceivedMessage@1234@@Z 0000000180024f54     ConnectorManager.obj
 0004:00000f60       $pdata$?processThread@ConnectorManager@connector@monitoring@ibmras@@CAPEAXPEAVThreadData@port@common@4@@Z 0000000180024f60     ConnectorManager.obj
 0004:00000f6c       $pdata$?processReceivedMessages@ConnectorManager@connector@monitoring@ibmras@@AEAAXXZ 0000000180024f6c     ConnectorManager.obj
 0004:00000f78       $pdata$?sendMessage@ConnectorManager@connector@monitoring@ibmras@@UEAAHAEBV?$basic_string@DU?$char_traits@D@std@@V?$allocator@D@2@@std@@IPEAX@Z 0000000180024f78     ConnectorManager.obj
 0004:00000f84       $pdata$?getConnector@ConnectorManager@connector@monitoring@ibmras@@QEAAPEAVConnector@234@AEBV?$basic_string@DU?$char_traits@D@std@@V?$allocator@D@2@@std@@@Z 0000000180024f84     ConnectorManager.obj
 0004:00000f90       $pdata$?start@ConnectorManager@connector@monitoring@ibmras@@UEAAHXZ 0000000180024f90     ConnectorManager.obj
 0004:00000f9c       $pdata$?stop@ConnectorManager@connector@monitoring@ibmras@@UEAAHXZ 0000000180024f9c     ConnectorManager.obj
 0004:00000fa8       $pdata$??0ReceivedMessage@ConnectorManager@connector@monitoring@ibmras@@QEAA@AEBV?$basic_string@DU?$char_traits@D@std@@V?$allocator@D@2@@std@@IPEAX@Z 0000000180024fa8     ConnectorManager.obj
 0004:00000fb4       $pdata$??$_Insert_at@AEBQEAVConnector@connector@monitoring@ibmras@@U_Not_a_node_tag@std@@@?$_Tree@V?$_Tset_traits@PEAVConnector@connector@monitoring@ibmras@@U?$less@PEAVConnector@connector@monitoring@ibmras@@@std@@V?$allocator@PEAVConnector@connector@monitoring@ibmras@@@6@$0A@@std@@@std@@IEAA?AV?$_Tree_const_iterator@V?$_Tree_val@U?$_Tree_simple_types@PEAVConnector@connector@monitoring@ibmras@@@std@@@std@@@1@_NPEAU?$_Tree_node@PEAVConnector@connector@monitoring@ibmras@@PEAX@1@AEBQEAVConnector@connector@monitoring@ibmras@@U_Not_a_node_tag@1@@Z 0000000180024fb4     ConnectorManager.obj
 0004:00000fb4       $pdata$??$_Insert_at@AEBQEAVReceiver@connector@monitoring@ibmras@@U_Not_a_node_tag@std@@@?$_Tree@V?$_Tset_traits@PEAVReceiver@connector@monitoring@ibmras@@U?$less@PEAVReceiver@connector@monitoring@ibmras@@@std@@V?$allocator@PEAVReceiver@connector@monitoring@ibmras@@@6@$0A@@std@@@std@@IEAA?AV?$_Tree_const_iterator@V?$_Tree_val@U?$_Tree_simple_types@PEAVReceiver@connector@monitoring@ibmras@@@std@@@std@@@1@_NPEAU?$_Tree_node@PEAVReceiver@connector@monitoring@ibmras@@PEAX@1@AEBQEAVReceiver@connector@monitoring@ibmras@@U_Not_a_node_tag@1@@Z 0000000180024fb4     ConnectorManager.obj
 0004:00000fc0       $pdata$??0Bucket@agent@monitoring@ibmras@@QEAA@IIIAEBV?$basic_string@DU?$char_traits@D@std@@V?$allocator@D@2@@std@@@Z 0000000180024fc0     Bucket.obj
 0004:00000fcc       $pdata$??_GBucketData@Bucket@agent@monitoring@ibmras@@UEAAPEAXI@Z 0000000180024fcc     Bucket.obj
 0004:00000fd8       $pdata$?publish@Bucket@agent@monitoring@ibmras@@QEAAXAEAVConnector@connector@34@@Z 0000000180024fd8     Bucket.obj
 0004:00000fe4       $pdata$3$?publish@Bucket@agent@monitoring@ibmras@@QEAAXAEAVConnector@connector@34@@Z 0000000180024fe4     Bucket.obj
 0004:00000ff0       $pdata$4$?publish@Bucket@agent@monitoring@ibmras@@QEAAXAEAVConnector@connector@34@@Z 0000000180024ff0     Bucket.obj
 0004:00000ffc       $pdata$5$?publish@Bucket@agent@monitoring@ibmras@@QEAAXAEAVConnector@connector@34@@Z 0000000180024ffc     Bucket.obj
 0004:00001008       $pdata$6$?publish@Bucket@agent@monitoring@ibmras@@QEAAXAEAVConnector@connector@34@@Z 0000000180025008     Bucket.obj
 0004:00001014       $pdata$7$?publish@Bucket@agent@monitoring@ibmras@@QEAAXAEAVConnector@connector@34@@Z 0000000180025014     Bucket.obj
 0004:00001020       $pdata$?spill@Bucket@agent@monitoring@ibmras@@AEAA_NI@Z 0000000180025020     Bucket.obj
 0004:0000102c       $pdata$?add@Bucket@agent@monitoring@ibmras@@QEAA_NPEAUmonitordata@@@Z 000000018002502c     Bucket.obj
 0004:00001038       $pdata$?getNextData@Bucket@agent@monitoring@ibmras@@QEAAIIAEAHPEAPEAXAEAI@Z 0000000180025038     Bucket.obj
 0004:00001044       $pdata$0$?getNextData@Bucket@agent@monitoring@ibmras@@QEAAIIAEAHPEAPEAXAEAI@Z 0000000180025044     Bucket.obj
 0004:00001050       $pdata$1$?getNextData@Bucket@agent@monitoring@ibmras@@QEAAIIAEAHPEAPEAXAEAI@Z 0000000180025050     Bucket.obj
 0004:0000105c       $pdata$2$?getNextData@Bucket@agent@monitoring@ibmras@@QEAAIIAEAHPEAPEAXAEAI@Z 000000018002505c     Bucket.obj
 0004:00001068       $pdata$3$?getNextData@Bucket@agent@monitoring@ibmras@@QEAAIIAEAHPEAPEAXAEAI@Z 0000000180025068     Bucket.obj
 0004:00001074       $pdata$?getNextPersistentData@Bucket@agent@monitoring@ibmras@@QEAAIIAEAIPEAPEAX@Z 0000000180025074     Bucket.obj
 0004:00001080       $pdata$?republish@Bucket@agent@monitoring@ibmras@@QEAAXAEBV?$basic_string@DU?$char_traits@D@std@@V?$allocator@D@2@@std@@AEAVConnector@connector@34@@Z 0000000180025080     Bucket.obj
 0004:0000108c       $pdata$?toString@Bucket@agent@monitoring@ibmras@@QEAA?AV?$basic_string@DU?$char_traits@D@std@@V?$allocator@D@2@@std@@XZ 000000018002508c     Bucket.obj
 0004:00001098       $pdata$?getUniqueID@Bucket@agent@monitoring@ibmras@@QEAA?AV?$basic_string@DU?$char_traits@D@std@@V?$allocator@D@2@@std@@XZ 0000000180025098     Bucket.obj
 0004:000010a4       $pdata$?add@BucketList@agent@monitoring@ibmras@@QEAA_NPEAVBucket@234@@Z 00000001800250a4     BucketList.obj
 0004:000010b0       $pdata$?toString@BucketList@agent@monitoring@ibmras@@QEAA?AV?$basic_string@DU?$char_traits@D@std@@V?$allocator@D@2@@std@@XZ 00000001800250b0     BucketList.obj
 0004:000010bc       $pdata$?add@BucketList@agent@monitoring@ibmras@@QEAA_NV?$vector@PEAVBucket@agent@monitoring@ibmras@@V?$allocator@PEAVBucket@agent@monitoring@ibmras@@@std@@@std@@@Z 00000001800250bc     BucketList.obj
 0004:000010c8       $pdata$?findBucket@BucketList@agent@monitoring@ibmras@@QEAAPEAVBucket@234@AEBV?$basic_string@DU?$char_traits@D@std@@V?$allocator@D@2@@std@@@Z 00000001800250c8     BucketList.obj
 0004:000010d4       $pdata$?publish@BucketList@agent@monitoring@ibmras@@QEAAXAEAVConnector@connector@34@@Z 00000001800250d4     BucketList.obj
 0004:000010e0       $pdata$?republish@BucketList@agent@monitoring@ibmras@@QEAAXAEBV?$basic_string@DU?$char_traits@D@std@@V?$allocator@D@2@@std@@AEAVConnector@connector@34@@Z 00000001800250e0     BucketList.obj
 0004:000010ec       $pdata$?addData@BucketList@agent@monitoring@ibmras@@QEAA_NPEAUmonitordata@@@Z 00000001800250ec     BucketList.obj
 0004:000010f8       $pdata$?getIDs@BucketList@agent@monitoring@ibmras@@QEAA?AV?$vector@V?$basic_string@DU?$char_traits@D@std@@V?$allocator@D@2@@std@@V?$allocator@V?$basic_string@DU?$char_traits@D@std@@V?$allocator@D@2@@std@@@2@@std@@XZ 00000001800250f8     BucketList.obj
 0004:00001104       $pdata$??$_Emplace_reallocate@V?$basic_string@DU?$char_traits@D@std@@V?$allocator@D@2@@std@@@?$vector@V?$basic_string@DU?$char_traits@D@std@@V?$allocator@D@2@@std@@V?$allocator@V?$basic_string@DU?$char_traits@D@std@@V?$allocator@D@2@@std@@@2@@std@@QEAAPEAV?$basic_string@DU?$char_traits@D@std@@V?$allocator@D@2@@1@QEAV21@$$QEAV21@@Z 0000000180025104     BucketList.obj
 0004:00001110       $pdata$3$??$_Emplace_reallocate@V?$basic_string@DU?$char_traits@D@std@@V?$allocator@D@2@@std@@@?$vector@V?$basic_string@DU?$char_traits@D@std@@V?$allocator@D@2@@std@@V?$allocator@V?$basic_string@DU?$char_traits@D@std@@V?$allocator@D@2@@std@@@2@@std@@QEAAPEAV?$basic_string@DU?$char_traits@D@std@@V?$allocator@D@2@@1@QEAV21@$$QEAV21@@Z 0000000180025110     BucketList.obj
 0004:0000111c       $pdata$5$??$_Emplace_reallocate@V?$basic_string@DU?$char_traits@D@std@@V?$allocator@D@2@@std@@@?$vector@V?$basic_string@DU?$char_traits@D@std@@V?$allocator@D@2@@std@@V?$allocator@V?$basic_string@DU?$char_traits@D@std@@V?$allocator@D@2@@std@@@2@@std@@QEAAPEAV?$basic_string@DU?$char_traits@D@std@@V?$allocator@D@2@@1@QEAV21@$$QEAV21@@Z 000000018002511c     BucketList.obj
 0004:00001128       $pdata$6$??$_Emplace_reallocate@V?$basic_string@DU?$char_traits@D@std@@V?$allocator@D@2@@std@@@?$vector@V?$basic_string@DU?$char_traits@D@std@@V?$allocator@D@2@@std@@V?$allocator@V?$basic_string@DU?$char_traits@D@std@@V?$allocator@D@2@@std@@@2@@std@@QEAAPEAV?$basic_string@DU?$char_traits@D@std@@V?$allocator@D@2@@1@QEAV21@$$QEAV21@@Z 0000000180025128     BucketList.obj
 0004:00001134       $pdata$??0Plugin@monitoring@ibmras@@QEAA@XZ 0000000180025134     Plugin.obj
 0004:00001140       $pdata$?scan@Plugin@monitoring@ibmras@@SA?AV?$vector@PEAVPlugin@monitoring@ibmras@@V?$allocator@PEAVPlugin@monitoring@ibmras@@@std@@@std@@AEBV?$basic_string@DU?$char_traits@D@std@@V?$allocator@D@2@@5@@Z 0000000180025140     Plugin.obj
 0004:0000114c       $pdata$?processLibrary@Plugin@monitoring@ibmras@@SAPEAV123@AEBV?$basic_string@DU?$char_traits@D@std@@V?$allocator@D@2@@std@@@Z 000000018002514c     Plugin.obj
 0004:00001158       $pdata$??0ConfigurationConnector@connector@monitoring@ibmras@@QEAA@XZ 0000000180025158     ConfigurationConnector.obj
 0004:00001164       $pdata$??1ConfigurationConnector@connector@monitoring@ibmras@@UEAA@XZ 0000000180025164     ConfigurationConnector.obj
 0004:00001170       $pdata$?getConfig@ConfigurationConnector@connector@monitoring@ibmras@@QEAA?AV?$basic_string@DU?$char_traits@D@std@@V?$allocator@D@2@@std@@AEBV56@@Z 0000000180025170     ConfigurationConnector.obj
 0004:0000117c       $pdata$?sendMessage@ConfigurationConnector@connector@monitoring@ibmras@@UEAAHAEBV?$basic_string@DU?$char_traits@D@std@@V?$allocator@D@2@@std@@IPEAX@Z 000000018002517c     ConfigurationConnector.obj
 0004:00001188       $pdata$??1_Fac_tidy_reg_t@std@@QEAA@XZ 0000000180025188     msvcprt:locale0_implib.obj
 0004:00001194       $pdata$?_Facet_Register@std@@YAXPEAV_Facet_base@1@@Z 0000000180025194     msvcprt:locale0_implib.obj
 0004:000011ac       $pdata$??2@YAPEAX_K@Z      00000001800251ac     MSVCRT:new_scalar.obj
 0004:000011b8       $pdata$??_M@YAXPEAX_K1P6AX0@Z@Z 00000001800251b8     MSVCRT:ehvecdtr.obj
 0004:000011c4       $pdata$?__ArrayUnwind@@YAXPEAX_K1P6AX0@Z@Z 00000001800251c4     MSVCRT:ehvecdtr.obj
 0004:000011d0       $pdata$__scrt_acquire_startup_lock 00000001800251d0     MSVCRT:utility.obj
 0004:000011dc       $pdata$__scrt_dllmain_after_initialize_c 00000001800251dc     MSVCRT:utility.obj
 0004:000011e8       $pdata$__scrt_dllmain_before_initialize_c 00000001800251e8     MSVCRT:utility.obj
 0004:000011f4       $pdata$__scrt_dllmain_crt_thread_attach 00000001800251f4     MSVCRT:utility.obj
 0004:00001200       $pdata$__scrt_dllmain_crt_thread_detach 0000000180025200     MSVCRT:utility.obj
 0004:0000120c       $pdata$__scrt_dllmain_exception_filter 000000018002520c     MSVCRT:utility.obj
 0004:00001218       $pdata$__scrt_dllmain_uninitialize_c 0000000180025218     MSVCRT:utility.obj
 0004:00001224       $pdata$__scrt_dllmain_uninitialize_critical 0000000180025224     MSVCRT:utility.obj
 0004:00001230       $pdata$__scrt_initialize_crt 0000000180025230     MSVCRT:utility.obj
 0004:0000123c       $pdata$__scrt_initialize_onexit_tables 000000018002523c     MSVCRT:utility.obj
 0004:00001248       $pdata$__scrt_is_nonwritable_in_current_image 0000000180025248     MSVCRT:utility.obj
 0004:00001254       $pdata$__scrt_release_startup_lock 0000000180025254     MSVCRT:utility.obj
 0004:00001260       $pdata$__scrt_uninitialize_crt 0000000180025260     MSVCRT:utility.obj
 0004:0000126c       $pdata$_onexit             000000018002526c     MSVCRT:utility.obj
 0004:00001278       $pdata$atexit              0000000180025278     MSVCRT:utility.obj
 0004:00001284       $pdata$?dllmain_crt_dispatch@@YAHQEAUHINSTANCE__@@KQEAX@Z 0000000180025284     MSVCRT:dll_dllmain.obj
 0004:00001290       $pdata$?dllmain_crt_process_attach@@YAHQEAUHINSTANCE__@@QEAX@Z 0000000180025290     MSVCRT:dll_dllmain.obj
 0004:0000129c       $pdata$?dllmain_crt_process_detach@@YAH_N@Z 000000018002529c     MSVCRT:dll_dllmain.obj
 0004:000012a8       $pdata$?dllmain_dispatch@@YAHQEAUHINSTANCE__@@KQEAX@Z 00000001800252a8     MSVCRT:dll_dllmain.obj
 0004:000012b4       $pdata$_DllMainCRTStartup  00000001800252b4     MSVCRT:dll_dllmain.obj
 0004:000012c0       $pdata$__raise_securityfailure 00000001800252c0     MSVCRT:gs_report.obj
 0004:000012cc       $pdata$__report_gsfailure  00000001800252cc     MSVCRT:gs_report.obj
 0004:000012d8       $pdata$capture_previous_context 00000001800252d8     MSVCRT:gs_report.obj
 0004:000012e4       $pdata$??0bad_alloc@std@@QEAA@AEBV01@@Z 00000001800252e4     MSVCRT:throw_bad_alloc.obj
 0004:000012f0       $pdata$??0bad_array_new_length@std@@QEAA@AEBV01@@Z 00000001800252f0     MSVCRT:throw_bad_alloc.obj
 0004:000012fc       $pdata$??0exception@std@@QEAA@AEBV01@@Z 00000001800252fc     MSVCRT:throw_bad_alloc.obj
 0004:00001308       $pdata$??_Gexception@std@@UEAAPEAXI@Z 0000000180025308     MSVCRT:throw_bad_alloc.obj
 0004:00001308       $pdata$??_Gbad_alloc@std@@UEAAPEAXI@Z 0000000180025308     MSVCRT:throw_bad_alloc.obj
 0004:00001308       $pdata$??_Gbad_array_new_length@std@@UEAAPEAXI@Z 0000000180025308     MSVCRT:throw_bad_alloc.obj
 0004:00001314       $pdata$?__scrt_throw_std_bad_alloc@@YAXXZ 0000000180025314     MSVCRT:throw_bad_alloc.obj
 0004:00001320       $pdata$?__scrt_throw_std_bad_array_new_length@@YAXXZ 0000000180025320     MSVCRT:throw_bad_alloc.obj
 0004:0000132c       $pdata$??2@YAPEAX_KAEBUnothrow_t@std@@@Z 000000018002532c     MSVCRT:new_scalar_nothrow.obj
 0004:00001338       $pdata$__isa_available_init 0000000180025338     MSVCRT:cpu_disp.obj
 0004:00001344       $pdata$__scrt_fastfail     0000000180025344     MSVCRT:utility_desktop.obj
 0004:00001350       $pdata$__security_init_cookie 0000000180025350     MSVCRT:gs_support.obj
 0004:0000135c       $pdata$DllMain             000000018002535c     MSVCRT:dll_dllmain_stub.obj
 0004:00001368       $pdata$__scrt_initialize_default_local_stdio_options 0000000180025368     MSVCRT:default_local_stdio_options.obj
 0004:00001374       $pdata$_RTC_Initialize     0000000180025374     MSVCRT:initsect.obj
 0004:00001380       $pdata$_RTC_Terminate      0000000180025380     MSVCRT:initsect.obj
 0004:0000138c       $pdata$??_Gtype_info@@UEAAPEAXI@Z 000000018002538c     MSVCRT:std_type_info_static.obj
 0004:00001398       $pdata$__GSHandlerCheck    0000000180025398     MSVCRT:gshandler.obj
 0004:000013a4       $pdata$__GSHandlerCheckCommon 00000001800253a4     MSVCRT:gshandler.obj
 0004:000013b0       $pdata$__GSHandlerCheck_EH 00000001800253b0     MSVCRT:gshandlereh.obj
 0004:000013c8       $pdata$?dtor$4@?0??logDebug@Logger@common@ibmras@@QEAAXW4loggingLevel@@PEBDZZ@4HA 00000001800253c8     Logger.obj
 0004:000013c8       $pdata$?dtor$4@?0??log@Logger@common@ibmras@@QEAAXW4loggingLevel@@PEBDZZ@4HA 00000001800253c8     Logger.obj
 0004:000013d4       $pdata$?dtor$0@?0???0?$basic_stringstream@DU?$char_traits@D@std@@V?$allocator@D@2@@std@@QEAA@H@Z@4HA 00000001800253d4     Logger.obj
 0004:000013e0       $pdata$?dtor$1@?0??getInstance@LogManager@common@ibmras@@SAPEAV123@XZ@4HA 00000001800253e0     LogManager.obj
 0004:000013ec       $pdata$?dtor$0@?0??getLogger@LogManager@common@ibmras@@SAPEAVLogger@23@AEBV?$basic_string@DU?$char_traits@D@std@@V?$allocator@D@2@@std@@@Z@4HA 00000001800253ec     LogManager.obj
 0004:000013f8       $pdata$?dtor$0@?0??getKeys@Properties@common@ibmras@@UEAA?AV?$list@V?$basic_string@DU?$char_traits@D@std@@V?$allocator@D@2@@std@@V?$allocator@V?$basic_string@DU?$char_traits@D@std@@V?$allocator@D@2@@std@@@2@@std@@AEBV?$basic_string@DU?$char_traits@D@std@@V?$allocator@D@2@@5@@Z@4HA 00000001800253f8     Properties.obj
 0004:00001404       $pdata$?dtor$2@?0??add@Properties@common@ibmras@@UEAAXAEBV?$basic_string@DU?$char_traits@D@std@@V?$allocator@D@2@@std@@@Z@4HA 0000000180025404     Properties.obj
 0004:00001410       $pdata$?dtor$3@?0??add@Properties@common@ibmras@@UEAAXAEBV?$basic_string@DU?$char_traits@D@std@@V?$allocator@D@2@@std@@@Z@4HA 0000000180025410     Properties.obj
 0004:0000141c       $pdata$?dtor$3@?0??toString@Properties@common@ibmras@@UEAA?AV?$basic_string@DU?$char_traits@D@std@@V?$allocator@D@2@@std@@XZ@4HA 000000018002541c     Properties.obj
 0004:00001428       $pdata$?dtor$0@?0???0?$basic_ifstream@DU?$char_traits@D@std@@@std@@QEAA@PEBDHH@Z@4HA 0000000180025428     PropertiesFile.obj
 0004:00001434       $pdata$?dtor$2@?0??split@util@common@ibmras@@YAAEAV?$vector@V?$basic_string@DU?$char_traits@D@std@@V?$allocator@D@2@@std@@V?$allocator@V?$basic_string@DU?$char_traits@D@std@@V?$allocator@D@2@@std@@@2@@std@@AEBV?$basic_string@DU?$char_traits@D@std@@V?$allocator@D@2@@5@DAEAV45@@Z@4HA 0000000180025434     strUtils.obj
 0004:00001440       $pdata$?dtor$0@?0???__Einstance@agent@monitoring@ibmras@@YAXXZ@4HA 0000000180025440     Agent.obj
 0004:0000144c       $pdata$?dtor$7@?0??processPullSourceLoop@agent@monitoring@ibmras@@YAPEAXPEAVThreadData@port@common@3@@Z@4HA 000000018002544c     Agent.obj
 0004:00001458       $pdata$?dtor$5@?0??addPlugin@Agent@agent@monitoring@ibmras@@QEAAXAEBV?$basic_string@DU?$char_traits@D@std@@V?$allocator@D@2@@std@@V56@@Z@4HA 0000000180025458     Agent.obj
 0004:00001464       $pdata$?dtor$0@?0??addSystemPlugins@Agent@agent@monitoring@ibmras@@AEAAXXZ@4HA 0000000180025464     Agent.obj
 0004:00001470       $pdata$?dtor$11@?0??init@Agent@agent@monitoring@ibmras@@QEAAXXZ@4HA 0000000180025470     Agent.obj
 0004:0000147c       $pdata$?dtor$1@?0??add@?$DataSourceList@Upushsource@@@agent@monitoring@ibmras@@QEAAXIPEAUpushsource@@V?$basic_string@DU?$char_traits@D@std@@V?$allocator@D@2@@std@@@Z@4HA 000000018002547c     Agent.obj
 0004:0000147c       $pdata$?dtor$1@?0??add@?$DataSourceList@Upullsource@@@agent@monitoring@ibmras@@QEAAXIPEAUpullsource@@V?$basic_string@DU?$char_traits@D@std@@V?$allocator@D@2@@std@@@Z@4HA 000000018002547c     Agent.obj
 0004:00001488       $pdata$?dtor$16@?0??toString@?$DataSourceList@Upullsource@@@agent@monitoring@ibmras@@QEAA?AV?$basic_string@DU?$char_traits@D@std@@V?$allocator@D@2@@std@@XZ@4HA 0000000180025488     Agent.obj
 0004:00001488       $pdata$?dtor$16@?0??toString@?$DataSourceList@Upushsource@@@agent@monitoring@ibmras@@QEAA?AV?$basic_string@DU?$char_traits@D@std@@V?$allocator@D@2@@std@@XZ@4HA 0000000180025488     Agent.obj
 0004:00001494       $pdata$?dtor$0@?0??getBuckets@?$DataSourceList@Upullsource@@@agent@monitoring@ibmras@@QEAA?AV?$vector@PEAVBucket@agent@monitoring@ibmras@@V?$allocator@PEAVBucket@agent@monitoring@ibmras@@@std@@@std@@XZ@4HA 0000000180025494     Agent.obj
 0004:00001494       $pdata$?dtor$0@?0??getBuckets@?$DataSourceList@Upushsource@@@agent@monitoring@ibmras@@QEAA?AV?$vector@PEAVBucket@agent@monitoring@ibmras@@V?$allocator@PEAVBucket@agent@monitoring@ibmras@@@std@@@std@@XZ@4HA 0000000180025494     Agent.obj
 0004:000014a0       $pdata$?dtor$1@?0??getBuckets@?$DataSourceList@Upullsource@@@agent@monitoring@ibmras@@QEAA?AV?$vector@PEAVBucket@agent@monitoring@ibmras@@V?$allocator@PEAVBucket@agent@monitoring@ibmras@@@std@@@std@@XZ@4HA 00000001800254a0     Agent.obj
 0004:000014a0       $pdata$?dtor$1@?0??getBuckets@?$DataSourceList@Upushsource@@@agent@monitoring@ibmras@@QEAA?AV?$vector@PEAVBucket@agent@monitoring@ibmras@@V?$allocator@PEAVBucket@agent@monitoring@ibmras@@@std@@@std@@XZ@4HA 00000001800254a0     Agent.obj
 0004:000014ac       $pdata$?dtor$2@?0??getBuckets@?$DataSourceList@Upullsource@@@agent@monitoring@ibmras@@QEAA?AV?$vector@PEAVBucket@agent@monitoring@ibmras@@V?$allocator@PEAVBucket@agent@monitoring@ibmras@@@std@@@std@@XZ@4HA 00000001800254ac     Agent.obj
 0004:000014ac       $pdata$?dtor$2@?0??getBuckets@?$DataSourceList@Upushsource@@@agent@monitoring@ibmras@@QEAA?AV?$vector@PEAVBucket@agent@monitoring@ibmras@@V?$allocator@PEAVBucket@agent@monitoring@ibmras@@@std@@@std@@XZ@4HA 00000001800254ac     Agent.obj
 0004:000014b8       $pdata$?dtor$19@?0??toString@?$DataSource@Upushsource@@@agent@monitoring@ibmras@@QEAA?AV?$basic_string@DU?$char_traits@D@std@@V?$allocator@D@2@@std@@XZ@4HA 00000001800254b8     Agent.obj
 0004:000014b8       $pdata$?dtor$19@?0??toString@?$DataSource@Upullsource@@@agent@monitoring@ibmras@@QEAA?AV?$basic_string@DU?$char_traits@D@std@@V?$allocator@D@2@@std@@XZ@4HA 00000001800254b8     Agent.obj
 0004:000014c4       $pdata$?dtor$8@?0??receiveMessage@SystemReceiver@agent@monitoring@ibmras@@UEAAXAEBV?$basic_string@DU?$char_traits@D@std@@V?$allocator@D@2@@std@@IPEAX@Z@4HA 00000001800254c4     SystemReceiver.obj
 0004:000014d0       $pdata$?catch$0@?0??sendMessage@ConnectorManager@connector@monitoring@ibmras@@UEAAHAEBV?$basic_string@DU?$char_traits@D@std@@V?$allocator@D@2@@std@@IPEAX@Z@4HA 00000001800254d0     ConnectorManager.obj
 0004:000014dc       $pdata$?dtor$1@?0???0Bucket@agent@monitoring@ibmras@@QEAA@IIIAEBV?$basic_string@DU?$char_traits@D@std@@V?$allocator@D@2@@std@@@Z@4HA 00000001800254dc     Bucket.obj
 0004:000014e8       $pdata$?dtor$0@?0??add@Bucket@agent@monitoring@ibmras@@QEAA_NPEAUmonitordata@@@Z@4HA 00000001800254e8     Bucket.obj
 0004:000014f4       $pdata$?dtor$2@?0??republish@Bucket@agent@monitoring@ibmras@@QEAAXAEBV?$basic_string@DU?$char_traits@D@std@@V?$allocator@D@2@@std@@AEAVConnector@connector@34@@Z@4HA 00000001800254f4     Bucket.obj
 0004:00001500       $pdata$?dtor$43@?0??toString@Bucket@agent@monitoring@ibmras@@QEAA?AV?$basic_string@DU?$char_traits@D@std@@V?$allocator@D@2@@std@@XZ@4HA 0000000180025500     Bucket.obj
 0004:0000150c       $pdata$?dtor$8@?0??toString@BucketList@agent@monitoring@ibmras@@QEAA?AV?$basic_string@DU?$char_traits@D@std@@V?$allocator@D@2@@std@@XZ@4HA 000000018002550c     BucketList.obj
 0004:00001518       $pdata$?dtor$0@?0??getIDs@BucketList@agent@monitoring@ibmras@@QEAA?AV?$vector@V?$basic_string@DU?$char_traits@D@std@@V?$allocator@D@2@@std@@V?$allocator@V?$basic_string@DU?$char_traits@D@std@@V?$allocator@D@2@@std@@@2@@std@@XZ@4HA 0000000180025518     BucketList.obj
 0004:00001524       $pdata$?dtor$10@?0??processLibrary@Plugin@monitoring@ibmras@@SAPEAV123@AEBV?$basic_string@DU?$char_traits@D@std@@V?$allocator@D@2@@std@@@Z@4HA 0000000180025524     Plugin.obj
 0004:00001530       $pdata$?dtor$0@?0??getConfig@ConfigurationConnector@connector@monitoring@ibmras@@QEAA?AV?$basic_string@DU?$char_traits@D@std@@V?$allocator@D@2@@std@@AEBV56@@Z@4HA 0000000180025530     ConfigurationConnector.obj
 0004:0000153c       $pdata$?fin$0@?0???_M@YAXPEAX_K1P6AX0@Z@Z@4HA 000000018002553c     MSVCRT:ehvecdtr.obj
 0004:00001548       $pdata$?filt$0@?0??__ArrayUnwind@@YAXPEAX_K1P6AX0@Z@Z@4HA 0000000180025548     MSVCRT:ehvecdtr.obj
 0004:00001554       $pdata$__scrt_is_nonwritable_in_current_image$filt$0 0000000180025554     MSVCRT:utility.obj
 0004:00001560       $pdata$?fin$0@?0??dllmain_crt_process_attach@@YAHQEAUHINSTANCE__@@QEAX@Z@4HA 0000000180025560     MSVCRT:dll_dllmain.obj
 0004:0000156c       $pdata$?fin$0@?0??dllmain_crt_process_detach@@YAH_N@Z@4HA 000000018002556c     MSVCRT:dll_dllmain.obj
 0004:00001578       $pdata$?filt$0@?0??dllmain_dispatch@@YAHQEAUHINSTANCE__@@KQEAX@Z@4HA 0000000180025578     MSVCRT:dll_dllmain.obj
 0004:00001584       $pdata$?catch$0@?0???2@YAPEAX_KAEBUnothrow_t@std@@@Z@4HA 0000000180025584     MSVCRT:new_scalar_nothrow.obj
 0004:00001590       $pdata$??__FCONFIGURATION_TOPIC@connector@monitoring@ibmras@@YAXXZ 0000000180025590     ConfigurationConnector.obj
 0005:00000060       $R000000                   0000000180026060     * linker generated manifest res *

 Exports

  ordinal    name

        1    ??0Agent@agent@monitoring@ibmras@@QEAA@$$QEAV0123@@Z (public: __cdecl ibmras::monitoring::agent::Agent::Agent(class ibmras::monitoring::agent::Agent &&))
        2    ??0Agent@agent@monitoring@ibmras@@QEAA@AEBV0123@@Z (public: __cdecl ibmras::monitoring::agent::Agent::Agent(class ibmras::monitoring::agent::Agent const &))
        3    ??0Agent@agent@monitoring@ibmras@@QEAA@XZ (public: __cdecl ibmras::monitoring::agent::Agent::Agent(void))
        4    ??0AgentExtensionReceiver@monitoring@ibmras@@QEAA@AEBV012@@Z (public: __cdecl ibmras::monitoring::AgentExtensionReceiver::AgentExtensionReceiver(class ibmras::monitoring::AgentExtensionReceiver const &))
        5    ??0AgentExtensionReceiver@monitoring@ibmras@@QEAA@P6AXPEBDIPEAX@Z@Z (public: __cdecl ibmras::monitoring::AgentExtensionReceiver::AgentExtensionReceiver(void (__cdecl*)(char const *,unsigned int,void *)))
        6    ??0Bucket@agent@monitoring@ibmras@@QEAA@$$QEAV0123@@Z (public: __cdecl ibmras::monitoring::agent::Bucket::Bucket(class ibmras::monitoring::agent::Bucket &&))
        7    ??0Bucket@agent@monitoring@ibmras@@QEAA@AEBV0123@@Z (public: __cdecl ibmras::monitoring::agent::Bucket::Bucket(class ibmras::monitoring::agent::Bucket const &))
        8    ??0Bucket@agent@monitoring@ibmras@@QEAA@IIIAEBV?$basic_string@DU?$char_traits@D@std@@V?$allocator@D@2@@std@@@Z (public: __cdecl ibmras::monitoring::agent::Bucket::Bucket(unsigned int,unsigned int,unsigned int,class std::basic_string<char,struct std::char_traits<char>,class std::allocator<char> > const &))
        9    ??0BucketList@agent@monitoring@ibmras@@QEAA@$$QEAV0123@@Z (public: __cdecl ibmras::monitoring::agent::BucketList::BucketList(class ibmras::monitoring::agent::BucketList &&))
       10    ??0BucketList@agent@monitoring@ibmras@@QEAA@AEBV0123@@Z (public: __cdecl ibmras::monitoring::agent::BucketList::BucketList(class ibmras::monitoring::agent::BucketList const &))
       11    ??0BucketList@agent@monitoring@ibmras@@QEAA@XZ (public: __cdecl ibmras::monitoring::agent::BucketList::BucketList(void))
       12    ??0ConfigurationConnector@connector@monitoring@ibmras@@QEAA@AEBV0123@@Z (public: __cdecl ibmras::monitoring::connector::ConfigurationConnector::ConfigurationConnector(class ibmras::monitoring::connector::ConfigurationConnector const &))
       13    ??0ConfigurationConnector@connector@monitoring@ibmras@@QEAA@XZ (public: __cdecl ibmras::monitoring::connector::ConfigurationConnector::ConfigurationConnector(void))
       14    ??0ConnectorManager@connector@monitoring@ibmras@@QEAA@AEBV0123@@Z (public: __cdecl ibmras::monitoring::connector::ConnectorManager::ConnectorManager(class ibmras::monitoring::connector::ConnectorManager const &))
       15    ??0ConnectorManager@connector@monitoring@ibmras@@QEAA@XZ (public: __cdecl ibmras::monitoring::connector::ConnectorManager::ConnectorManager(void))
       16    ??0Lock@port@common@ibmras@@QEAA@XZ (public: __cdecl ibmras::common::port::Lock::Lock(void))
       17    ??0LogManager@common@ibmras@@IEAA@XZ (protected: __cdecl ibmras::common::LogManager::LogManager(void))
       18    ??0LogManager@common@ibmras@@QEAA@$$QEAV012@@Z (public: __cdecl ibmras::common::LogManager::LogManager(class ibmras::common::LogManager &&))
       19    ??0LogManager@common@ibmras@@QEAA@AEBV012@@Z (public: __cdecl ibmras::common::LogManager::LogManager(class ibmras::common::LogManager const &))
       20    ??0Logger@common@ibmras@@QEAA@AEBV012@@Z (public: __cdecl ibmras::common::Logger::Logger(class ibmras::common::Logger const &))
       21    ??0Logger@common@ibmras@@QEAA@AEBV?$basic_string@DU?$char_traits@D@std@@V?$allocator@D@2@@std@@P6AX0W4loggingLevel@@PEAV012@@Z@Z (public: __cdecl ibmras::common::Logger::Logger(class std::basic_string<char,struct std::char_traits<char>,class std::allocator<char> > const &,void (__cdecl*)(class std::basic_string<char,struct std::char_traits<char>,class std::allocator<char> > const &,enum loggingLevel,class ibmras::common::Logger *)))
       22    ??0Properties@common@ibmras@@QEAA@AEBV012@@Z (public: __cdecl ibmras::common::Properties::Properties(class ibmras::common::Properties const &))
       23    ??0Properties@common@ibmras@@QEAA@XZ (public: __cdecl ibmras::common::Properties::Properties(void))
       24    ??0PropertiesFile@common@ibmras@@QEAA@$$QEAV012@@Z (public: __cdecl ibmras::common::PropertiesFile::PropertiesFile(class ibmras::common::PropertiesFile &&))
       25    ??0PropertiesFile@common@ibmras@@QEAA@AEBV012@@Z (public: __cdecl ibmras::common::PropertiesFile::PropertiesFile(class ibmras::common::PropertiesFile const &))
       26    ??0PropertiesFile@common@ibmras@@QEAA@XZ (public: __cdecl ibmras::common::PropertiesFile::PropertiesFile(void))
       27    ??0ThreadData@port@common@ibmras@@QEAA@P6APEAXPEAV0123@@Z1@Z (public: __cdecl ibmras::common::port::ThreadData::ThreadData(void * (__cdecl*)(class ibmras::common::port::ThreadData *),void * (__cdecl*)(class ibmras::common::port::ThreadData *)))
       28    ??0ThreadData@port@common@ibmras@@QEAA@P6APEAXPEAV0123@@Z@Z (public: __cdecl ibmras::common::port::ThreadData::ThreadData(void * (__cdecl*)(class ibmras::common::port::ThreadData *)))
       29    ??1Agent@agent@monitoring@ibmras@@QEAA@XZ (public: __cdecl ibmras::monitoring::agent::Agent::~Agent(void))
       30    ??1AgentExtensionReceiver@monitoring@ibmras@@UEAA@XZ (public: virtual __cdecl ibmras::monitoring::AgentExtensionReceiver::~AgentExtensionReceiver(void))
       31    ??1Bucket@agent@monitoring@ibmras@@QEAA@XZ (public: __cdecl ibmras::monitoring::agent::Bucket::~Bucket(void))
       32    ??1BucketList@agent@monitoring@ibmras@@QEAA@XZ (public: __cdecl ibmras::monitoring::agent::BucketList::~BucketList(void))
       33    ??1ConfigurationConnector@connector@monitoring@ibmras@@UEAA@XZ (public: virtual __cdecl ibmras::monitoring::connector::ConfigurationConnector::~ConfigurationConnector(void))
       34    ??1ConnectorManager@connector@monitoring@ibmras@@UEAA@XZ (public: virtual __cdecl ibmras::monitoring::connector::ConnectorManager::~ConnectorManager(void))
       35    ??1Lock@port@common@ibmras@@QEAA@XZ (public: __cdecl ibmras::common::port::Lock::~Lock(void))
       36    ??1LogManager@common@ibmras@@QEAA@XZ (public: __cdecl ibmras::common::LogManager::~LogManager(void))
       37    ??1Logger@common@ibmras@@UEAA@XZ (public: virtual __cdecl ibmras::common::Logger::~Logger(void))
       38    ??1Properties@common@ibmras@@UEAA@XZ (public: virtual __cdecl ibmras::common::Properties::~Properties(void))
       39    ??1PropertiesFile@common@ibmras@@UEAA@XZ (public: virtual __cdecl ibmras::common::PropertiesFile::~PropertiesFile(void))
       40    ??1ThreadData@port@common@ibmras@@QEAA@XZ (public: __cdecl ibmras::common::port::ThreadData::~ThreadData(void))
       41    ??4Agent@agent@monitoring@ibmras@@QEAAAEAV0123@$$QEAV0123@@Z (public: class ibmras::monitoring::agent::Agent & __cdecl ibmras::monitoring::agent::Agent::operator=(class ibmras::monitoring::agent::Agent &&))
       42    ??4Agent@agent@monitoring@ibmras@@QEAAAEAV0123@AEBV0123@@Z (public: class ibmras::monitoring::agent::Agent & __cdecl ibmras::monitoring::agent::Agent::operator=(class ibmras::monitoring::agent::Agent const &))
       43    ??4AgentExtensionReceiver@monitoring@ibmras@@QEAAAEAV012@AEBV012@@Z (public: class ibmras::monitoring::AgentExtensionReceiver & __cdecl ibmras::monitoring::AgentExtensionReceiver::operator=(class ibmras::monitoring::AgentExtensionReceiver const &))
       44    ??4Bucket@agent@monitoring@ibmras@@QEAAAEAV0123@$$QEAV0123@@Z (public: class ibmras::monitoring::agent::Bucket & __cdecl ibmras::monitoring::agent::Bucket::operator=(class ibmras::monitoring::agent::Bucket &&))
       45    ??4Bucket@agent@monitoring@ibmras@@QEAAAEAV0123@AEBV0123@@Z (public: class ibmras::monitoring::agent::Bucket & __cdecl ibmras::monitoring::agent::Bucket::operator=(class ibmras::monitoring::agent::Bucket const &))
       46    ??4BucketList@agent@monitoring@ibmras@@QEAAAEAV0123@$$QEAV0123@@Z (public: class ibmras::monitoring::agent::BucketList & __cdecl ibmras::monitoring::agent::BucketList::operator=(class ibmras::monitoring::agent::BucketList &&))
       47    ??4BucketList@agent@monitoring@ibmras@@QEAAAEAV0123@AEBV0123@@Z (public: class ibmras::monitoring::agent::BucketList & __cdecl ibmras::monitoring::agent::BucketList::operator=(class ibmras::monitoring::agent::BucketList const &))
       48    ??4ConfigurationConnector@connector@monitoring@ibmras@@QEAAAEAV0123@AEBV0123@@Z (public: class ibmras::monitoring::connector::ConfigurationConnector & __cdecl ibmras::monitoring::connector::ConfigurationConnector::operator=(class ibmras::monitoring::connector::ConfigurationConnector const &))
       49    ??4ConnectorManager@connector@monitoring@ibmras@@QEAAAEAV0123@AEBV0123@@Z (public: class ibmras::monitoring::connector::ConnectorManager & __cdecl ibmras::monitoring::connector::ConnectorManager::operator=(class ibmras::monitoring::connector::ConnectorManager const &))
       50    ??4Lock@port@common@ibmras@@QEAAAEAV0123@AEBV0123@@Z (public: class ibmras::common::port::Lock & __cdecl ibmras::common::port::Lock::operator=(class ibmras::common::port::Lock const &))
       51    ??4LogManager@common@ibmras@@QEAAAEAV012@$$QEAV012@@Z (public: class ibmras::common::LogManager & __cdecl ibmras::common::LogManager::operator=(class ibmras::common::LogManager &&))
       52    ??4LogManager@common@ibmras@@QEAAAEAV012@AEBV012@@Z (public: class ibmras::common::LogManager & __cdecl ibmras::common::LogManager::operator=(class ibmras::common::LogManager const &))
       53    ??4Logger@common@ibmras@@QEAAAEAV012@AEBV012@@Z (public: class ibmras::common::Logger & __cdecl ibmras::common::Logger::operator=(class ibmras::common::Logger const &))
       54    ??4Properties@common@ibmras@@QEAAAEAV012@AEBV012@@Z (public: class ibmras::common::Properties & __cdecl ibmras::common::Properties::operator=(class ibmras::common::Properties const &))
       55    ??4PropertiesFile@common@ibmras@@QEAAAEAV012@$$QEAV012@@Z (public: class ibmras::common::PropertiesFile & __cdecl ibmras::common::PropertiesFile::operator=(class ibmras::common::PropertiesFile &&))
       56    ??4PropertiesFile@common@ibmras@@QEAAAEAV012@AEBV012@@Z (public: class ibmras::common::PropertiesFile & __cdecl ibmras::common::PropertiesFile::operator=(class ibmras::common::PropertiesFile const &))
       57    ??4ThreadData@port@common@ibmras@@QEAAAEAV0123@AEBV0123@@Z (public: class ibmras::common::port::ThreadData & __cdecl ibmras::common::port::ThreadData::operator=(class ibmras::common::port::ThreadData const &))
       58    ??_7AgentExtensionReceiver@monitoring@ibmras@@6B@ (const ibmras::monitoring::AgentExtensionReceiver::`vftable')
       59    ??_7ConfigurationConnector@connector@monitoring@ibmras@@6B@ (const ibmras::monitoring::connector::ConfigurationConnector::`vftable')
       60    ??_7ConnectorManager@connector@monitoring@ibmras@@6BConnector@123@@ (const ibmras::monitoring::connector::ConnectorManager::`vftable'{for `ibmras::monitoring::connector::Connector'})
       61    ??_7ConnectorManager@connector@monitoring@ibmras@@6BReceiver@123@@ (const ibmras::monitoring::connector::ConnectorManager::`vftable'{for `ibmras::monitoring::connector::Receiver'})
       62    ??_7Logger@common@ibmras@@6B@ (const ibmras::common::Logger::`vftable')
       63    ??_7Properties@common@ibmras@@6B@ (const ibmras::common::Properties::`vftable')
       64    ??_7PropertiesFile@common@ibmras@@6B@ (const ibmras::common::PropertiesFile::`vftable')
       65    ?acquire@Lock@port@common@ibmras@@QEAAHXZ (public: int __cdecl ibmras::common::port::Lock::acquire(void))
       66    ?add@Bucket@agent@monitoring@ibmras@@QEAA_NPEAUmonitordata@@@Z (public: bool __cdecl ibmras::monitoring::agent::Bucket::add(struct monitordata *))
       67    ?add@BucketList@agent@monitoring@ibmras@@QEAA_NPEAVBucket@234@@Z (public: bool __cdecl ibmras::monitoring::agent::BucketList::add(class ibmras::monitoring::agent::Bucket *))
       68    ?add@BucketList@agent@monitoring@ibmras@@QEAA_NV?$vector@PEAVBucket@agent@monitoring@ibmras@@V?$allocator@PEAVBucket@agent@monitoring@ibmras@@@std@@@std@@@Z (public: bool __cdecl ibmras::monitoring::agent::BucketList::add(class std::vector<class ibmras::monitoring::agent::Bucket *,class std::allocator<class ibmras::monitoring::agent::Bucket *> >))
       69    ?add@Properties@common@ibmras@@UEAAXAEBV123@@Z (public: virtual void __cdecl ibmras::common::Properties::add(class ibmras::common::Properties const &))
       70    ?add@Properties@common@ibmras@@UEAAXAEBV?$basic_string@DU?$char_traits@D@std@@V?$allocator@D@2@@std@@@Z (public: virtual void __cdecl ibmras::common::Properties::add(class std::basic_string<char,struct std::char_traits<char>,class std::allocator<char> > const &))
       71    ?addConnector@Agent@agent@monitoring@ibmras@@QEAAXPEAVConnector@connector@34@@Z (public: void __cdecl ibmras::monitoring::agent::Agent::addConnector(class ibmras::monitoring::connector::Connector *))
       72    ?addConnector@ConnectorManager@connector@monitoring@ibmras@@QEAAXPEAVConnector@234@@Z (public: void __cdecl ibmras::monitoring::connector::ConnectorManager::addConnector(class ibmras::monitoring::connector::Connector *))
       73    ?addData@Agent@agent@monitoring@ibmras@@QEAA_NPEAUmonitordata@@@Z (public: bool __cdecl ibmras::monitoring::agent::Agent::addData(struct monitordata *))
       74    ?addData@BucketList@agent@monitoring@ibmras@@QEAA_NPEAUmonitordata@@@Z (public: bool __cdecl ibmras::monitoring::agent::BucketList::addData(struct monitordata *))
       75    ?addPlugin@Agent@agent@monitoring@ibmras@@QEAAXAEBV?$basic_string@DU?$char_traits@D@std@@V?$allocator@D@2@@std@@V56@@Z (public: void __cdecl ibmras::monitoring::agent::Agent::addPlugin(class std::basic_string<char,struct std::char_traits<char>,class std::allocator<char> > const &,class std::basic_string<char,struct std::char_traits<char>,class std::allocator<char> >))
       76    ?addPlugin@Agent@agent@monitoring@ibmras@@QEAAXPEAVPlugin@34@@Z (public: void __cdecl ibmras::monitoring::agent::Agent::addPlugin(class ibmras::monitoring::Plugin *))
       77    ?addPlugin@Agent@agent@monitoring@ibmras@@QEAAXPEBD@Z (public: void __cdecl ibmras::monitoring::agent::Agent::addPlugin(char const *))
       78    ?addPullSource@Agent@agent@monitoring@ibmras@@AEAAXV?$_Vector_iterator@V?$_Vector_val@U?$_Simple_types@PEAVPlugin@monitoring@ibmras@@@std@@@std@@@std@@I@Z (private: void __cdecl ibmras::monitoring::agent::Agent::addPullSource(class std::_Vector_iterator<class std::_Vector_val<struct std::_Simple_types<class ibmras::monitoring::Plugin *> > >,unsigned int))
       79    ?addPushSource@Agent@agent@monitoring@ibmras@@AEAAXV?$_Vector_iterator@V?$_Vector_val@U?$_Simple_types@PEAVPlugin@monitoring@ibmras@@@std@@@std@@@std@@I@Z (private: void __cdecl ibmras::monitoring::agent::Agent::addPushSource(class std::_Vector_iterator<class std::_Vector_val<struct std::_Simple_types<class ibmras::monitoring::Plugin *> > >,unsigned int))
       80    ?addReceiver@ConnectorManager@connector@monitoring@ibmras@@QEAAXPEAVReceiver@234@@Z (public: void __cdecl ibmras::monitoring::connector::ConnectorManager::addReceiver(class ibmras::monitoring::connector::Receiver *))
       81    ?addSystemPlugins@Agent@agent@monitoring@ibmras@@AEAAXXZ (private: void __cdecl ibmras::monitoring::agent::Agent::addSystemPlugins(void))
       82    ?agentPropertyExists@Agent@agent@monitoring@ibmras@@QEAA_NAEBV?$basic_string@DU?$char_traits@D@std@@V?$allocator@D@2@@std@@@Z (public: bool __cdecl ibmras::monitoring::agent::Agent::agentPropertyExists(class std::basic_string<char,struct std::char_traits<char>,class std::allocator<char> > const &))
       83    ?allocate@memory@common@ibmras@@YAPEAEI@Z (unsigned char * __cdecl ibmras::common::memory::allocate(unsigned int))
       84    ?ascii2Native@util@common@ibmras@@YAXPEAD_N@Z (void __cdecl ibmras::common::util::ascii2Native(char *,bool))
       85    ?createAsciiString@util@common@ibmras@@YAPEADPEBD_N@Z (char * __cdecl ibmras::common::util::createAsciiString(char const *,bool))
       86    ?createBuckets@Agent@agent@monitoring@ibmras@@AEAAXXZ (private: void __cdecl ibmras::monitoring::agent::Agent::createBuckets(void))
       87    ?createNativeString@util@common@ibmras@@YAPEADPEBD_N@Z (char * __cdecl ibmras::common::util::createNativeString(char const *,bool))
       88    ?createThread@port@common@ibmras@@YA_KPEAVThreadData@123@@Z (unsigned __int64 __cdecl ibmras::common::port::createThread(class ibmras::common::port::ThreadData *))
       89    ?deallocate@memory@common@ibmras@@YAXPEAPEAE@Z (void __cdecl ibmras::common::memory::deallocate(unsigned char * *))
       90    ?destroy@Lock@port@common@ibmras@@QEAAXXZ (public: void __cdecl ibmras::common::port::Lock::destroy(void))
       91    ?equalsIgnoreCase@util@common@ibmras@@YA_NAEBV?$basic_string@DU?$char_traits@D@std@@V?$allocator@D@2@@std@@0@Z (bool __cdecl ibmras::common::util::equalsIgnoreCase(class std::basic_string<char,struct std::char_traits<char>,class std::allocator<char> > const &,class std::basic_string<char,struct std::char_traits<char>,class std::allocator<char> > const &))
       92    ?exists@Properties@common@ibmras@@UEAA_NAEBV?$basic_string@DU?$char_traits@D@std@@V?$allocator@D@2@@std@@@Z (public: virtual bool __cdecl ibmras::common::Properties::exists(class std::basic_string<char,struct std::char_traits<char>,class std::allocator<char> > const &))
       93    ?findBucket@BucketList@agent@monitoring@ibmras@@QEAAPEAVBucket@234@AEBV?$basic_string@DU?$char_traits@D@std@@V?$allocator@D@2@@std@@@Z (public: class ibmras::monitoring::agent::Bucket * __cdecl ibmras::monitoring::agent::BucketList::findBucket(class std::basic_string<char,struct std::char_traits<char>,class std::allocator<char> > const &))
       94    ?findBucket@BucketList@agent@monitoring@ibmras@@QEAAPEAVBucket@234@II@Z (public: class ibmras::monitoring::agent::Bucket * __cdecl ibmras::monitoring::agent::BucketList::findBucket(unsigned int,unsigned int))
       95    ?findLogger@LogManager@common@ibmras@@AEAAPEAVLogger@23@AEBV?$basic_string@DU?$char_traits@D@std@@V?$allocator@D@2@@std@@@Z (private: class ibmras::common::Logger * __cdecl ibmras::common::LogManager::findLogger(class std::basic_string<char,struct std::char_traits<char>,class std::allocator<char> > const &))
       96    ?force2Native@util@common@ibmras@@YAXPEAD@Z (void __cdecl ibmras::common::util::force2Native(char *))
       97    ?get@Properties@common@ibmras@@UEAA?AV?$basic_string@DU?$char_traits@D@std@@V?$allocator@D@2@@std@@AEBV45@0@Z (public: virtual class std::basic_string<char,struct std::char_traits<char>,class std::allocator<char> > __cdecl ibmras::common::Properties::get(class std::basic_string<char,struct std::char_traits<char>,class std::allocator<char> > const &,class std::basic_string<char,struct std::char_traits<char>,class std::allocator<char> > const &))
       98    ?getAgentProperty@Agent@agent@monitoring@ibmras@@QEAA?AV?$basic_string@DU?$char_traits@D@std@@V?$allocator@D@2@@std@@AEBV56@@Z (public: class std::basic_string<char,struct std::char_traits<char>,class std::allocator<char> > __cdecl ibmras::monitoring::agent::Agent::getAgentProperty(class std::basic_string<char,struct std::char_traits<char>,class std::allocator<char> > const &))
       99    ?getAgentPropertyPrefix@Agent@agent@monitoring@ibmras@@QEAA?AV?$basic_string@DU?$char_traits@D@std@@V?$allocator@D@2@@std@@XZ (public: class std::basic_string<char,struct std::char_traits<char>,class std::allocator<char> > __cdecl ibmras::monitoring::agent::Agent::getAgentPropertyPrefix(void))
      100    ?getArgs@ThreadData@port@common@ibmras@@QEAAPEAXXZ (public: void * __cdecl ibmras::common::port::ThreadData::getArgs(void))
      101    ?getBucketList@Agent@agent@monitoring@ibmras@@QEAAPEAVBucketList@234@XZ (public: class ibmras::monitoring::agent::BucketList * __cdecl ibmras::monitoring::agent::Agent::getBucketList(void))
      102    ?getBuildDate@Agent@agent@monitoring@ibmras@@SA?AV?$basic_string@DU?$char_traits@D@std@@V?$allocator@D@2@@std@@XZ (public: static class std::basic_string<char,struct std::char_traits<char>,class std::allocator<char> > __cdecl ibmras::monitoring::agent::Agent::getBuildDate(void))
      103    ?getCallback@ThreadData@port@common@ibmras@@QEAAP6APEAXPEAV1234@@ZXZ (public: void * (__cdecl*__cdecl ibmras::common::port::ThreadData::getCallback(void))(class ibmras::common::port::ThreadData *))
      104    ?getConfig@Agent@agent@monitoring@ibmras@@QEAA?AV?$basic_string@DU?$char_traits@D@std@@V?$allocator@D@2@@std@@AEBV56@@Z (public: class std::basic_string<char,struct std::char_traits<char>,class std::allocator<char> > __cdecl ibmras::monitoring::agent::Agent::getConfig(class std::basic_string<char,struct std::char_traits<char>,class std::allocator<char> > const &))
      105    ?getConfig@ConfigurationConnector@connector@monitoring@ibmras@@QEAA?AV?$basic_string@DU?$char_traits@D@std@@V?$allocator@D@2@@std@@AEBV56@@Z (public: class std::basic_string<char,struct std::char_traits<char>,class std::allocator<char> > __cdecl ibmras::monitoring::connector::ConfigurationConnector::getConfig(class std::basic_string<char,struct std::char_traits<char>,class std::allocator<char> > const &))
      106    ?getConnectionManager@Agent@agent@monitoring@ibmras@@QEAAPEAVConnectorManager@connector@34@XZ (public: class ibmras::monitoring::connector::ConnectorManager * __cdecl ibmras::monitoring::agent::Agent::getConnectionManager(void))
      107    ?getConnector@Agent@agent@monitoring@ibmras@@QEAAPEAVConnector@connector@34@AEBV?$basic_string@DU?$char_traits@D@std@@V?$allocator@D@2@@std@@@Z (public: class ibmras::monitoring::connector::Connector * __cdecl ibmras::monitoring::agent::Agent::getConnector(class std::basic_string<char,struct std::char_traits<char>,class std::allocator<char> > const &))
      108    ?getConnector@ConnectorManager@connector@monitoring@ibmras@@QEAAPEAVConnector@234@AEBV?$basic_string@DU?$char_traits@D@std@@V?$allocator@D@2@@std@@@Z (public: class ibmras::monitoring::connector::Connector * __cdecl ibmras::monitoring::connector::ConnectorManager::getConnector(class std::basic_string<char,struct std::char_traits<char>,class std::allocator<char> > const &))
      109    ?getHostName@port@common@ibmras@@YA?AV?$basic_string@DU?$char_traits@D@std@@V?$allocator@D@2@@std@@XZ (class std::basic_string<char,struct std::char_traits<char>,class std::allocator<char> > __cdecl ibmras::common::port::getHostName(void))
      110    ?getID@ConfigurationConnector@connector@monitoring@ibmras@@UEAA?AV?$basic_string@DU?$char_traits@D@std@@V?$allocator@D@2@@std@@XZ (public: virtual class std::basic_string<char,struct std::char_traits<char>,class std::allocator<char> > __cdecl ibmras::monitoring::connector::ConfigurationConnector::getID(void))
      111    ?getIDs@BucketList@agent@monitoring@ibmras@@QEAA?AV?$vector@V?$basic_string@DU?$char_traits@D@std@@V?$allocator@D@2@@std@@V?$allocator@V?$basic_string@DU?$char_traits@D@std@@V?$allocator@D@2@@std@@@2@@std@@XZ (public: class std::vector<class std::basic_string<char,struct std::char_traits<char>,class std::allocator<char> >,class std::allocator<class std::basic_string<char,struct std::char_traits<char>,class std::allocator<char> > > > __cdecl ibmras::monitoring::agent::BucketList::getIDs(void))
      112    ?getInstance@Agent@agent@monitoring@ibmras@@SAPEAV1234@XZ (public: static class ibmras::monitoring::agent::Agent * __cdecl ibmras::monitoring::agent::Agent::getInstance(void))
      113    ?getInstance@LogManager@common@ibmras@@SAPEAV123@XZ (public: static class ibmras::common::LogManager * __cdecl ibmras::common::LogManager::getInstance(void))
      114    ?getKeys@Properties@common@ibmras@@UEAA?AV?$list@V?$basic_string@DU?$char_traits@D@std@@V?$allocator@D@2@@std@@V?$allocator@V?$basic_string@DU?$char_traits@D@std@@V?$allocator@D@2@@std@@@2@@std@@AEBV?$basic_string@DU?$char_traits@D@std@@V?$allocator@D@2@@5@@Z (public: virtual class std::list<class std::basic_string<char,struct std::char_traits<char>,class std::allocator<char> >,class std::allocator<class std::basic_string<char,struct std::char_traits<char>,class std::allocator<char> > > > __cdecl ibmras::common::Properties::getKeys(class std::basic_string<char,struct std::char_traits<char>,class std::allocator<char> > const &))
      115    ?getLogger@LogManager@common@ibmras@@SAPEAVLogger@23@AEBV?$basic_string@DU?$char_traits@D@std@@V?$allocator@D@2@@std@@@Z (public: static class ibmras::common::Logger * __cdecl ibmras::common::LogManager::getLogger(class std::basic_string<char,struct std::char_traits<char>,class std::allocator<char> > const &))
      116    ?getMilliseconds@util@common@ibmras@@YA_KXZ (unsigned __int64 __cdecl ibmras::common::util::getMilliseconds(void))
      117    ?getNextData@Bucket@agent@monitoring@ibmras@@QEAAIIAEAHPEAPEAXAEAI@Z (public: unsigned int __cdecl ibmras::monitoring::agent::Bucket::getNextData(unsigned int,int &,void * *,unsigned int &))
      118    ?getNextPersistentData@Bucket@agent@monitoring@ibmras@@QEAAIIAEAIPEAPEAX@Z (public: unsigned int __cdecl ibmras::monitoring::agent::Bucket::getNextPersistentData(unsigned int,unsigned int &,void * *))
      119    ?getProcessId@port@common@ibmras@@YAHXZ (int __cdecl ibmras::common::port::getProcessId(void))
      120    ?getProperties@Agent@agent@monitoring@ibmras@@QEAA?AVProperties@common@4@XZ (public: class ibmras::common::Properties __cdecl ibmras::monitoring::agent::Agent::getProperties(void))
      121    ?getProperty@Agent@agent@monitoring@ibmras@@QEAA?AV?$basic_string@DU?$char_traits@D@std@@V?$allocator@D@2@@std@@AEBV56@@Z (public: class std::basic_string<char,struct std::char_traits<char>,class std::allocator<char> > __cdecl ibmras::monitoring::agent::Agent::getProperty(class std::basic_string<char,struct std::char_traits<char>,class std::allocator<char> > const &))
      122    ?getProvID@Bucket@agent@monitoring@ibmras@@QEAAIXZ (public: unsigned int __cdecl ibmras::monitoring::agent::Bucket::getProvID(void))
      123    ?getPullSource@Agent@agent@monitoring@ibmras@@QEAAPEAV?$DataSource@Upullsource@@@234@V?$basic_string@DU?$char_traits@D@std@@V?$allocator@D@2@@std@@@Z (public: class ibmras::monitoring::agent::DataSource<struct pullsource> * __cdecl ibmras::monitoring::agent::Agent::getPullSource(class std::basic_string<char,struct std::char_traits<char>,class std::allocator<char> >))
      124    ?getPullSources@Agent@agent@monitoring@ibmras@@QEAA?AV?$DataSourceList@Upullsource@@@234@XZ (public: class ibmras::monitoring::agent::DataSourceList<struct pullsource> __cdecl ibmras::monitoring::agent::Agent::getPullSources(void))
      125    ?getPushSource@Agent@agent@monitoring@ibmras@@QEAAPEAV?$DataSource@Upushsource@@@234@V?$basic_string@DU?$char_traits@D@std@@V?$allocator@D@2@@std@@@Z (public: class ibmras::monitoring::agent::DataSource<struct pushsource> * __cdecl ibmras::monitoring::agent::Agent::getPushSource(class std::basic_string<char,struct std::char_traits<char>,class std::allocator<char> >))
      126    ?getPushSources@Agent@agent@monitoring@ibmras@@QEAA?AV?$DataSourceList@Upushsource@@@234@XZ (public: class ibmras::monitoring::agent::DataSourceList<struct pushsource> __cdecl ibmras::monitoring::agent::Agent::getPushSources(void))
      127    ?getSourceID@Bucket@agent@monitoring@ibmras@@QEAAIXZ (public: unsigned int __cdecl ibmras::monitoring::agent::Bucket::getSourceID(void))
      128    ?getStopMethod@ThreadData@port@common@ibmras@@QEAAP6APEAXPEAV1234@@ZXZ (public: void * (__cdecl*__cdecl ibmras::common::port::ThreadData::getStopMethod(void))(class ibmras::common::port::ThreadData *))
      129    ?getUniqueID@Bucket@agent@monitoring@ibmras@@QEAA?AV?$basic_string@DU?$char_traits@D@std@@V?$allocator@D@2@@std@@XZ (public: class std::basic_string<char,struct std::char_traits<char>,class std::allocator<char> > __cdecl ibmras::monitoring::agent::Bucket::getUniqueID(void))
      130    ?getVersion@Agent@agent@monitoring@ibmras@@SA?AV?$basic_string@DU?$char_traits@D@std@@V?$allocator@D@2@@std@@XZ (public: static class std::basic_string<char,struct std::char_traits<char>,class std::allocator<char> > __cdecl ibmras::monitoring::agent::Agent::getVersion(void))
      131    ?hasStopMethod@ThreadData@port@common@ibmras@@QEAA_NXZ (public: bool __cdecl ibmras::common::port::ThreadData::hasStopMethod(void))
      132    ?header@Logger@common@ibmras@@AEAAXAEAV?$basic_stringstream@DU?$char_traits@D@std@@V?$allocator@D@2@@std@@W4loggingLevel@@_N@Z (private: void __cdecl ibmras::common::Logger::header(class std::basic_stringstream<char,struct std::char_traits<char>,class std::allocator<char> > &,enum loggingLevel,bool))
      133    ?immediateUpdate@Agent@agent@monitoring@ibmras@@QEAAXXZ (public: void __cdecl ibmras::monitoring::agent::Agent::immediateUpdate(void))
      134    ?init@Agent@agent@monitoring@ibmras@@QEAAXXZ (public: void __cdecl ibmras::monitoring::agent::Agent::init(void))
      135    ?instance@LogManager@common@ibmras@@0PEAV123@EA (private: static class ibmras::common::LogManager * ibmras::common::LogManager::instance)
      136    ?isDestroyed@Lock@port@common@ibmras@@QEAA_NXZ (public: bool __cdecl ibmras::common::port::Lock::isDestroyed(void))
      137    ?isHeadlessRunning@Agent@agent@monitoring@ibmras@@QEAA_NXZ (public: bool __cdecl ibmras::monitoring::agent::Agent::isHeadlessRunning(void))
      138    ?load@PropertiesFile@common@ibmras@@QEAAHAEBV?$basic_string@DU?$char_traits@D@std@@V?$allocator@D@2@@std@@@Z (public: int __cdecl ibmras::common::PropertiesFile::load(class std::basic_string<char,struct std::char_traits<char>,class std::allocator<char> > const &))
      139    ?loadPropertiesFile@Agent@agent@monitoring@ibmras@@QEAA_NPEBD@Z (public: bool __cdecl ibmras::monitoring::agent::Agent::loadPropertiesFile(char const *))
      140    ?localLogFunc@LogManager@common@ibmras@@2P6APEAXAEBV?$basic_string@DU?$char_traits@D@std@@V?$allocator@D@2@@std@@@ZEA (public: static void * (__cdecl* ibmras::common::LogManager::localLogFunc)(class std::basic_string<char,struct std::char_traits<char>,class std::allocator<char> > const &))
      141    ?log@Logger@common@ibmras@@QEAAXW4loggingLevel@@PEBDZZ (public: void __cdecl ibmras::common::Logger::log(enum loggingLevel,char const *,...))
      142    ?logDebug@Logger@common@ibmras@@QEAAXW4loggingLevel@@PEBDZZ (public: void __cdecl ibmras::common::Logger::logDebug(enum loggingLevel,char const *,...))
      143    ?msgHandler@LogManager@common@ibmras@@SAXAEBV?$basic_string@DU?$char_traits@D@std@@V?$allocator@D@2@@std@@W4loggingLevel@@PEAVLogger@23@@Z (public: static void __cdecl ibmras::common::LogManager::msgHandler(class std::basic_string<char,struct std::char_traits<char>,class std::allocator<char> > const &,enum loggingLevel,class ibmras::common::Logger *))
      144    ?native2Ascii@util@common@ibmras@@YAXPEAD_N@Z (void __cdecl ibmras::common::util::native2Ascii(char *,bool))
      145    ?processMessage@ConnectorManager@connector@monitoring@ibmras@@QEAAXAEBV?$basic_string@DU?$char_traits@D@std@@V?$allocator@D@2@@std@@IPEAX@Z (public: void __cdecl ibmras::monitoring::connector::ConnectorManager::processMessage(class std::basic_string<char,struct std::char_traits<char>,class std::allocator<char> > const &,unsigned int,void *))
      146    ?processMsg@LogManager@common@ibmras@@AEAAXAEBV?$basic_string@DU?$char_traits@D@std@@V?$allocator@D@2@@std@@@Z (private: void __cdecl ibmras::common::LogManager::processMsg(class std::basic_string<char,struct std::char_traits<char>,class std::allocator<char> > const &))
      147    ?processReceivedMessage@ConnectorManager@connector@monitoring@ibmras@@AEAAXAEBVReceivedMessage@1234@@Z (private: void __cdecl ibmras::monitoring::connector::ConnectorManager::processReceivedMessage(class ibmras::monitoring::connector::ConnectorManager::ReceivedMessage const &))
      148    ?processReceivedMessages@ConnectorManager@connector@monitoring@ibmras@@AEAAXXZ (private: void __cdecl ibmras::monitoring::connector::ConnectorManager::processReceivedMessages(void))
      149    ?processThread@ConnectorManager@connector@monitoring@ibmras@@CAPEAXPEAVThreadData@port@common@4@@Z (private: static void * __cdecl ibmras::monitoring::connector::ConnectorManager::processThread(class ibmras::common::port::ThreadData *))
      150    ?propertyExists@Agent@agent@monitoring@ibmras@@QEAA_NAEBV?$basic_string@DU?$char_traits@D@std@@V?$allocator@D@2@@std@@@Z (public: bool __cdecl ibmras::monitoring::agent::Agent::propertyExists(class std::basic_string<char,struct std::char_traits<char>,class std::allocator<char> > const &))
      151    ?publish@Agent@agent@monitoring@ibmras@@QEAAXXZ (public: void __cdecl ibmras::monitoring::agent::Agent::publish(void))
      152    ?publish@Bucket@agent@monitoring@ibmras@@QEAAXAEAVConnector@connector@34@@Z (public: void __cdecl ibmras::monitoring::agent::Bucket::publish(class ibmras::monitoring::connector::Connector &))
      153    ?publish@BucketList@agent@monitoring@ibmras@@QEAAXAEAVConnector@connector@34@@Z (public: void __cdecl ibmras::monitoring::agent::BucketList::publish(class ibmras::monitoring::connector::Connector &))
      154    ?put@Properties@common@ibmras@@UEAAXAEBV?$basic_string@DU?$char_traits@D@std@@V?$allocator@D@2@@std@@0@Z (public: virtual void __cdecl ibmras::common::Properties::put(class std::basic_string<char,struct std::char_traits<char>,class std::allocator<char> > const &,class std::basic_string<char,struct std::char_traits<char>,class std::allocator<char> > const &))
      155    ?readOnly@Agent@agent@monitoring@ibmras@@QEAA_NXZ (public: bool __cdecl ibmras::monitoring::agent::Agent::readOnly(void))
      156    ?receiveMessage@AgentExtensionReceiver@monitoring@ibmras@@UEAAXAEBV?$basic_string@DU?$char_traits@D@std@@V?$allocator@D@2@@std@@IPEAX@Z (public: virtual void __cdecl ibmras::monitoring::AgentExtensionReceiver::receiveMessage(class std::basic_string<char,struct std::char_traits<char>,class std::allocator<char> > const &,unsigned int,void *))
