 envplugin

 Timestamp is 5ce29727 (Mon May 20 17:31:43 2019)

 Preferred load address is 0000000180000000

 Start         Length     Name                   Class
 0001:00000000 00004000H .text$mn                CODE
 0001:00004000 00000020H .text$mn$00             CODE
 0001:00004020 00000180H .text$x                 CODE
 0001:000041a0 000000d4H .text$yd                CODE
 0002:00000000 000002d8H .idata$5                DATA
 0002:000002d8 00000010H .00cfg                  DATA
 0002:000002e8 00000008H .CRT$XCA                DATA
 0002:000002f0 00000008H .CRT$XCZ                DATA
 0002:000002f8 00000008H .CRT$XIA                DATA
 0002:00000300 00000008H .CRT$XIC                DATA
 0002:00000308 00000008H .CRT$XIZ                DATA
 0002:00000310 00000008H .CRT$XLA                DATA
 0002:00000318 00000008H .CRT$XLZ                DATA
 0002:00000320 00000008H .CRT$XPA                DATA
 0002:00000328 00000008H .CRT$XPZ                DATA
 0002:00000330 00000008H .CRT$XTA                DATA
 0002:00000338 00000008H .CRT$XTZ                DATA
 0002:00000340 00000000H .gfids$y                DATA
 0002:00000340 00000950H .rdata                  DATA
 0002:00000c90 00000028H .rdata$T                DATA
 0002:00000cb8 000001f4H .rdata$r                DATA
 0002:00000eac 0000039cH .rdata$zzzdbg           DATA
 0002:00001248 00000008H .rtc$IAA                DATA
 0002:00001250 00000008H .rtc$IZZ                DATA
 0002:00001258 00000008H .rtc$TAA                DATA
 0002:00001260 00000008H .rtc$TZZ                DATA
 0002:00001268 00000004H .tls                    DATA
 0002:0000126c 00000004H .tls$                   DATA
 0002:00001270 00000010H .tls$ZZZ                DATA
 0002:00001280 000005c0H .xdata                  DATA
 0002:00001840 000000f0H .xdata$x                DATA
 0002:00001930 00000108H .edata                  DATA
 0002:00001a38 000000c8H .idata$2                DATA
 0002:00001b00 00000018H .idata$3                DATA
 0002:00001b18 000002d8H .idata$4                DATA
 0002:00001df0 00000b52H .idata$6                DATA
 0003:00000000 00000038H .data                   DATA
 0003:00000038 000000a8H .data$r                 DATA
 0003:000000e0 000006c0H .bss                    DATA
 0004:00000000 00000474H .pdata                  DATA
 0005:00000000 00000060H .rsrc$01                DATA
 0005:00000060 00000180H .rsrc$02                DATA

  Address         Publics by Value              Rva+Base               Lib:Object

 0000:00000000       __guard_longjmp_table      0000000000000000     <absolute>
 0000:00000000       __guard_iat_table          0000000000000000     <absolute>
 0000:00000000       __dynamic_value_reloc_table 0000000000000000     <absolute>
 0000:00000000       __guard_fids_count         0000000000000000     <absolute>
 0000:00000000       __hybrid_code_map_count    0000000000000000     <absolute>
 0000:00000000       __guard_longjmp_count      0000000000000000     <absolute>
 0000:00000000       __hybrid_code_map          0000000000000000     <absolute>
 0000:00000000       __guard_iat_count          0000000000000000     <absolute>
 0000:00000000       __volatile_metadata        0000000000000000     <absolute>
 0000:00000000       __hybrid_auxiliary_iat     0000000000000000     <absolute>
 0000:00000000       __enclave_config           0000000000000000     <absolute>
 0000:00000000       ___safe_se_handler_count   0000000000000000     <absolute>
 0000:00000000       ___safe_se_handler_table   0000000000000000     <absolute>
 0000:00000000       __guard_fids_table         0000000000000000     <absolute>
 0000:00000100       __guard_flags              0000000000000100     <absolute>
 0000:00000000       __ImageBase                0000000180000000     <linker-defined>
 0001:00000000       __local_stdio_printf_options 0000000180001000 f i envplugin.obj
 0001:00000010       sprintf                    0000000180001010 f i envplugin.obj
 0001:00000070       ??_GEnvPlugin@environment@common@plugins@monitoring@ibmras@@UEAAPEAXI@Z 0000000180001070 f i envplugin.obj
 0001:00000070       ??_EEnvPlugin@environment@common@plugins@monitoring@ibmras@@UEAAPEAXI@Z 0000000180001070 f i * CIL library *:* CIL module *
 0001:000000b0       ??1EnvPlugin@environment@common@plugins@monitoring@ibmras@@UEAA@XZ 00000001800010b0 f   envplugin.obj
 0001:00000370       ?createSource@EnvPlugin@environment@common@plugins@monitoring@ibmras@@SAPEAUpullsource@@UagentCoreFunctions@@I@Z 0000000180001370 f   envplugin.obj
 0001:00000640       ?AppendSystemInfo@EnvPlugin@environment@common@plugins@monitoring@ibmras@@AEAAXAEAV?$basic_stringstream@DU?$char_traits@D@std@@V?$allocator@D@2@@std@@@Z 0000000180001640 f   envplugin.obj
 0001:00000840       ?OnRequestData@EnvPlugin@environment@common@plugins@monitoring@ibmras@@QEAAPEAUmonitordata@@XZ 0000000180001840 f   envplugin.obj
 0001:00000bb0       ??_D?$basic_stringstream@DU?$char_traits@D@std@@V?$allocator@D@2@@std@@QEAAXXZ 0000000180001bb0 f i envplugin.obj
 0001:00000c10       ?pullWrapper@environment@common@plugins@monitoring@ibmras@@YAPEAUmonitordata@@XZ 0000000180001c10 f   envplugin.obj
 0001:00000c20       ?pullCompleteWrapper@environment@common@plugins@monitoring@ibmras@@YAXPEAUmonitordata@@@Z 0000000180001c20 f   envplugin.obj
 0001:00000c50       ibmras_monitoring_registerPullSource 0000000180001c50 f   envplugin.obj
 0001:00000ed0       _is_c_termination_complete 0000000180001ed0 f   MSVCRT:ucrt_stubs.obj
 0001:00000ed0       ibmras_monitoring_plugin_init 0000000180001ed0 f   envplugin.obj
 0001:00000ed0       __scrt_stub_for_is_c_termination_complete 0000000180001ed0 f   MSVCRT:ucrt_stubs.obj
 0001:00000ee0       ibmras_monitoring_plugin_start 0000000180001ee0 f   envplugin.obj
 0001:00000f30       ibmras_monitoring_plugin_stop 0000000180001f30 f   envplugin.obj
 0001:00000f80       ibmras_monitoring_getVersion 0000000180001f80 f   envplugin.obj
 0001:00000f90       ?GetWindowsMajorVersion@EnvPlugin@environment@common@plugins@monitoring@ibmras@@CA?BV?$basic_string@DU?$char_traits@D@std@@V?$allocator@D@2@@std@@XZ 0000000180001f90 f   envplugin.obj
 0001:00001320       ?GetWindowsBuild@EnvPlugin@environment@common@plugins@monitoring@ibmras@@CA?BV?$basic_string@DU?$char_traits@D@std@@V?$allocator@D@2@@std@@XZ 0000000180002320 f   envplugin.obj
 0001:00001660       ?initStaticInfo@EnvPlugin@environment@common@plugins@monitoring@ibmras@@CAXXZ 0000000180002660 f   envplugin.obj
 0001:00001a10       ??1?$basic_string@DU?$char_traits@D@std@@V?$allocator@D@2@@std@@QEAA@XZ 0000000180002a10 f i envplugin.obj
 0001:00001a70       ??4?$basic_string@DU?$char_traits@D@std@@V?$allocator@D@2@@std@@QEAAAEAV01@$$QEAV01@@Z 0000000180002a70 f i envplugin.obj
 0001:00001b00       ??0?$basic_string@DU?$char_traits@D@std@@V?$allocator@D@2@@std@@QEAA@AEBV01@@Z 0000000180002b00 f i envplugin.obj
 0001:00001be0       ?seekpos@?$basic_stringbuf@DU?$char_traits@D@std@@V?$allocator@D@2@@std@@MEAA?AV?$fpos@U_Mbstatet@@@2@V32@H@Z 0000000180002be0 f i envplugin.obj
 0001:00001cd0       ?seekoff@?$basic_stringbuf@DU?$char_traits@D@std@@V?$allocator@D@2@@std@@MEAA?AV?$fpos@U_Mbstatet@@@2@_JHH@Z 0000000180002cd0 f i envplugin.obj
 0001:00001e20       ?underflow@?$basic_stringbuf@DU?$char_traits@D@std@@V?$allocator@D@2@@std@@MEAAHXZ 0000000180002e20 f i envplugin.obj
 0001:00001e90       ?pbackfail@?$basic_stringbuf@DU?$char_traits@D@std@@V?$allocator@D@2@@std@@MEAAHH@Z 0000000180002e90 f i envplugin.obj
 0001:00001ef0       ?overflow@?$basic_stringbuf@DU?$char_traits@D@std@@V?$allocator@D@2@@std@@MEAAHH@Z 0000000180002ef0 f i envplugin.obj
 0001:000020f0       ??1?$basic_stringbuf@DU?$char_traits@D@std@@V?$allocator@D@2@@std@@UEAA@XZ 00000001800030f0 f i envplugin.obj
 0001:000021b0       ??_E?$basic_stringstream@DU?$char_traits@D@std@@V?$allocator@D@2@@std@@UEAAPEAXI@Z 00000001800031b0 f i * CIL library *:* CIL module *
 0001:000021b0       ??_G?$basic_stringstream@DU?$char_traits@D@std@@V?$allocator@D@2@@std@@UEAAPEAXI@Z 00000001800031b0 f i envplugin.obj
 0001:00002250       ??_E?$basic_stringbuf@DU?$char_traits@D@std@@V?$allocator@D@2@@std@@UEAAPEAXI@Z 0000000180003250 f i * CIL library *:* CIL module *
 0001:00002250       ??_G?$basic_stringbuf@DU?$char_traits@D@std@@V?$allocator@D@2@@std@@UEAAPEAXI@Z 0000000180003250 f i envplugin.obj
 0001:00002290       ?assign@?$basic_string@DU?$char_traits@D@std@@V?$allocator@D@2@@std@@QEAAAEAV12@QEBD_K@Z 0000000180003290 f i envplugin.obj
 0001:000023e0       ??$?6U?$char_traits@D@std@@@std@@YAAEAV?$basic_ostream@DU?$char_traits@D@std@@@0@AEAV10@PEBD@Z 00000001800033e0 f i envplugin.obj
 0001:000025b0       ??$?6U?$char_traits@D@std@@@std@@YAAEAV?$basic_ostream@DU?$char_traits@D@std@@@0@AEAV10@D@Z 00000001800035b0 f i envplugin.obj
 0001:00002730       ??$_Reallocate_grow_by@V<lambda_65e615be2a453ca0576c979606f46740>@@PEBD_K@?$basic_string@DU?$char_traits@D@std@@V?$allocator@D@2@@std@@QEAAAEAV01@_KV<lambda_65e615be2a453ca0576c979606f46740>@@PEBD_K@Z 0000000180003730 f i envplugin.obj
 0001:000028b0       ??1sentry@?$basic_ostream@DU?$char_traits@D@std@@@std@@QEAA@XZ 00000001800038b0 f i envplugin.obj
 0001:000028f0       ?_Xlen@?$basic_string@DU?$char_traits@D@std@@V?$allocator@D@2@@std@@SAXXZ 00000001800038f0 f i envplugin.obj
 0001:00002910       ??1_Sentry_base@?$basic_ostream@DU?$char_traits@D@std@@@std@@QEAA@XZ 0000000180003910 f i envplugin.obj
 0001:00002940       ??$_Insert_string@DU?$char_traits@D@std@@_K@std@@YAAEAV?$basic_ostream@DU?$char_traits@D@std@@@0@AEAV10@QEBD_K@Z 0000000180003940 f i envplugin.obj
 0001:00002af0       ??_E?$basic_stringstream@DU?$char_traits@D@std@@V?$allocator@D@2@@std@@$4PPPPPPPM@A@EAAPEAXI@Z 0000000180003af0 f i envplugin.obj
 0001:00002afc       ?_Lock@?$basic_streambuf@DU?$char_traits@D@std@@@std@@UEAAXXZ 0000000180003afc f   msvcprt:MSVCP140.dll
 0001:00002b02       ?_Unlock@?$basic_streambuf@DU?$char_traits@D@std@@@std@@UEAAXXZ 0000000180003b02 f   msvcprt:MSVCP140.dll
 0001:00002b08       ?showmanyc@?$basic_streambuf@DU?$char_traits@D@std@@@std@@MEAA_JXZ 0000000180003b08 f   msvcprt:MSVCP140.dll
 0001:00002b0e       ?uflow@?$basic_streambuf@DU?$char_traits@D@std@@@std@@MEAAHXZ 0000000180003b0e f   msvcprt:MSVCP140.dll
 0001:00002b14       ?xsgetn@?$basic_streambuf@DU?$char_traits@D@std@@@std@@MEAA_JPEAD_J@Z 0000000180003b14 f   msvcprt:MSVCP140.dll
 0001:00002b1a       ?xsputn@?$basic_streambuf@DU?$char_traits@D@std@@@std@@MEAA_JPEBD_J@Z 0000000180003b1a f   msvcprt:MSVCP140.dll
 0001:00002b20       ?setbuf@?$basic_streambuf@DU?$char_traits@D@std@@@std@@MEAAPEAV12@PEAD_J@Z 0000000180003b20 f   msvcprt:MSVCP140.dll
 0001:00002b26       ?sync@?$basic_streambuf@DU?$char_traits@D@std@@@std@@MEAAHXZ 0000000180003b26 f   msvcprt:MSVCP140.dll
 0001:00002b2c       ?imbue@?$basic_streambuf@DU?$char_traits@D@std@@@std@@MEAAXAEBVlocale@2@@Z 0000000180003b2c f   msvcprt:MSVCP140.dll
 0001:00002b50       __security_check_cookie    0000000180003b50 f   MSVCRT:amdsecgs.obj
 0001:00002b74       ??_V@YAXPEAX@Z             0000000180003b74 f   MSVCRT:delete_array.obj
 0001:00002b74       ??3@YAXPEAX_K@Z            0000000180003b74 f   MSVCRT:delete_scalar_size.obj
 0001:00002d04       _Init_thread_abort         0000000180003d04 f   MSVCRT:thread_safe_statics.obj
 0001:00002d34       _Init_thread_footer        0000000180003d34 f   MSVCRT:thread_safe_statics.obj
 0001:00002d94       _Init_thread_header        0000000180003d94 f   MSVCRT:thread_safe_statics.obj
 0001:00002dfc       _Init_thread_notify        0000000180003dfc f   MSVCRT:thread_safe_statics.obj
 0001:00002e4c       _Init_thread_wait          0000000180003e4c f   MSVCRT:thread_safe_statics.obj
 0001:00002ec4       ??2@YAPEAX_K@Z             0000000180003ec4 f   MSVCRT:new_scalar.obj
 0001:00002f00       __scrt_acquire_startup_lock 0000000180003f00 f   MSVCRT:utility.obj
 0001:00002f3c       __scrt_dllmain_after_initialize_c 0000000180003f3c f   MSVCRT:utility.obj
 0001:00002f70       __scrt_dllmain_before_initialize_c 0000000180003f70 f   MSVCRT:utility.obj
 0001:00002f88       __scrt_dllmain_crt_thread_attach 0000000180003f88 f   MSVCRT:utility.obj
 0001:00002fb0       __scrt_dllmain_crt_thread_detach 0000000180003fb0 f   MSVCRT:utility.obj
 0001:00002fc8       __scrt_dllmain_exception_filter 0000000180003fc8 f   MSVCRT:utility.obj
 0001:00003028       __scrt_dllmain_uninitialize_c 0000000180004028 f   MSVCRT:utility.obj
 0001:00003058       __scrt_dllmain_uninitialize_critical 0000000180004058 f   MSVCRT:utility.obj
 0001:0000306c       __scrt_initialize_crt      000000018000406c f   MSVCRT:utility.obj
 0001:000030b8       __scrt_initialize_onexit_tables 00000001800040b8 f   MSVCRT:utility.obj
 0001:00003190       __scrt_is_nonwritable_in_current_image 0000000180004190 f   MSVCRT:utility.obj
 0001:0000322c       __scrt_release_startup_lock 000000018000422c f   MSVCRT:utility.obj
 0001:00003250       __scrt_uninitialize_crt    0000000180004250 f   MSVCRT:utility.obj
 0001:0000327c       _onexit                    000000018000427c f   MSVCRT:utility.obj
 0001:000032cc       atexit                     00000001800042cc f   MSVCRT:utility.obj
 0001:000032e4       ??_U@YAPEAX_K@Z            00000001800042e4 f   MSVCRT:new_array.obj
 0001:0000361c       _DllMainCRTStartup         000000018000461c f   MSVCRT:dll_dllmain.obj
 0001:0000365c       __raise_securityfailure    000000018000465c f   MSVCRT:gs_report.obj
 0001:00003690       __report_gsfailure         0000000180004690 f   MSVCRT:gs_report.obj
 0001:000037d8       ??3@YAXPEAX@Z              00000001800047d8 f   MSVCRT:delete_scalar.obj
 0001:000037e0       __crt_debugger_hook        00000001800047e0 f   MSVCRT:utility_desktop.obj
 0001:000037e8       __scrt_fastfail            00000001800047e8 f   MSVCRT:utility_desktop.obj
 0001:00003934       _guard_check_icall_nop     0000000180004934 f i MSVCRT:guard_support.obj
 0001:00003938       ??0bad_alloc@std@@QEAA@AEBV01@@Z 0000000180004938 f i MSVCRT:throw_bad_alloc.obj
 0001:00003978       ??0bad_alloc@std@@QEAA@XZ  0000000180004978 f i MSVCRT:throw_bad_alloc.obj
 0001:00003998       ??0bad_array_new_length@std@@QEAA@AEBV01@@Z 0000000180004998 f i MSVCRT:throw_bad_alloc.obj
 0001:000039d8       ??0bad_array_new_length@std@@QEAA@XZ 00000001800049d8 f i MSVCRT:throw_bad_alloc.obj
 0001:000039f8       ??0exception@std@@QEAA@AEBV01@@Z 00000001800049f8 f i MSVCRT:throw_bad_alloc.obj
 0001:00003a30       ??1bad_alloc@std@@UEAA@XZ  0000000180004a30 f i MSVCRT:throw_bad_alloc.obj
 0001:00003a30       ??1bad_array_new_length@std@@UEAA@XZ 0000000180004a30 f i MSVCRT:throw_bad_alloc.obj
 0001:00003a44       ??_Eexception@std@@UEAAPEAXI@Z 0000000180004a44 f i MSVCRT:throw_bad_alloc.obj
 0001:00003a44       ??_Gexception@std@@UEAAPEAXI@Z 0000000180004a44 f i MSVCRT:throw_bad_alloc.obj
 0001:00003a44       ??_Gbad_alloc@std@@UEAAPEAXI@Z 0000000180004a44 f i MSVCRT:throw_bad_alloc.obj
 0001:00003a44       ??_Ebad_array_new_length@std@@UEAAPEAXI@Z 0000000180004a44 f i MSVCRT:throw_bad_alloc.obj
 0001:00003a44       ??_Ebad_alloc@std@@UEAAPEAXI@Z 0000000180004a44 f i MSVCRT:throw_bad_alloc.obj
 0001:00003a44       ??_Gbad_array_new_length@std@@UEAAPEAXI@Z 0000000180004a44 f i MSVCRT:throw_bad_alloc.obj
 0001:00003a88       ?__scrt_throw_std_bad_alloc@@YAXXZ 0000000180004a88 f   MSVCRT:throw_bad_alloc.obj
 0001:00003aa8       ?__scrt_throw_std_bad_array_new_length@@YAXXZ 0000000180004aa8 f   MSVCRT:throw_bad_alloc.obj
 0001:00003ac8       ?what@exception@std@@UEBAPEBDXZ 0000000180004ac8 f i MSVCRT:throw_bad_alloc.obj
 0001:00003adc       __isa_available_init       0000000180004adc f   MSVCRT:cpu_disp.obj
 0001:00003c98       _get_startup_argv_mode     0000000180004c98 f   MSVCRT:argv_mode.obj
 0001:00003ca0       __scrt_is_ucrt_dll_in_use  0000000180004ca0 f   MSVCRT:ucrt_detection.obj
 0001:00003cac       __security_init_cookie     0000000180004cac f   MSVCRT:gs_support.obj
 0001:00003d58       DllMain                    0000000180004d58 f   MSVCRT:dll_dllmain_stub.obj
 0001:00003d7c       ?__scrt_initialize_type_info@@YAXXZ 0000000180004d7c f   MSVCRT:tncleanup.obj
 0001:00003d8c       ?__scrt_uninitialize_type_info@@YAXXZ 0000000180004d8c f   MSVCRT:tncleanup.obj
 0001:00003d98       __local_stdio_scanf_options 0000000180004d98 f i MSVCRT:default_local_stdio_options.obj
 0001:00003da0       __scrt_initialize_default_local_stdio_options 0000000180004da0 f   MSVCRT:default_local_stdio_options.obj
 0001:00003dbc       __scrt_get_dyn_tls_init_callback 0000000180004dbc f   MSVCRT:dyn_tls_init.obj
 0001:00003dc4       _RTC_Initialize            0000000180004dc4 f   MSVCRT:initsect.obj
 0001:00003e00       _RTC_Terminate             0000000180004e00 f   MSVCRT:initsect.obj
 0001:00003e40       ??_Gtype_info@@UEAAPEAXI@Z 0000000180004e40 f i MSVCRT:std_type_info_static.obj
 0001:00003e40       ??_Etype_info@@UEAAPEAXI@Z 0000000180004e40 f i MSVCRT:std_type_info_static.obj
 0001:00003e6b       __CxxFrameHandler3         0000000180004e6b f   vcruntime:VCRUNTIME140.dll
 0001:00003e71       __std_terminate            0000000180004e71 f   vcruntime:VCRUNTIME140.dll
 0001:00003e77       __C_specific_handler       0000000180004e77 f   vcruntime:VCRUNTIME140.dll
 0001:00003e7d       memset                     0000000180004e7d f   vcruntime:VCRUNTIME140.dll
 0001:00003e83       __std_exception_copy       0000000180004e83 f   vcruntime:VCRUNTIME140.dll
 0001:00003e89       __std_exception_destroy    0000000180004e89 f   vcruntime:VCRUNTIME140.dll
 0001:00003e8f       _CxxThrowException         0000000180004e8f f   vcruntime:VCRUNTIME140.dll
 0001:00003e95       __std_type_info_destroy_list 0000000180004e95 f   vcruntime:VCRUNTIME140.dll
 0001:00003e9b       _callnewh                  0000000180004e9b f   ucrt:api-ms-win-crt-heap-l1-1-0.dll
 0001:00003ea1       malloc                     0000000180004ea1 f   ucrt:api-ms-win-crt-heap-l1-1-0.dll
 0001:00003ea7       _seh_filter_dll            0000000180004ea7 f   ucrt:api-ms-win-crt-runtime-l1-1-0.dll
 0001:00003ead       _configure_narrow_argv     0000000180004ead f   ucrt:api-ms-win-crt-runtime-l1-1-0.dll
 0001:00003eb3       _initialize_narrow_environment 0000000180004eb3 f   ucrt:api-ms-win-crt-runtime-l1-1-0.dll
 0001:00003eb9       _initialize_onexit_table   0000000180004eb9 f   ucrt:api-ms-win-crt-runtime-l1-1-0.dll
 0001:00003ebf       _register_onexit_function  0000000180004ebf f   ucrt:api-ms-win-crt-runtime-l1-1-0.dll
 0001:00003ec5       _execute_onexit_table      0000000180004ec5 f   ucrt:api-ms-win-crt-runtime-l1-1-0.dll
 0001:00003ecb       _crt_atexit                0000000180004ecb f   ucrt:api-ms-win-crt-runtime-l1-1-0.dll
 0001:00003ed1       _cexit                     0000000180004ed1 f   ucrt:api-ms-win-crt-runtime-l1-1-0.dll
 0001:00003ed7       _initterm                  0000000180004ed7 f   ucrt:api-ms-win-crt-runtime-l1-1-0.dll
 0001:00003edd       _initterm_e                0000000180004edd f   ucrt:api-ms-win-crt-runtime-l1-1-0.dll
 0001:00003ee3       free                       0000000180004ee3 f   ucrt:api-ms-win-crt-heap-l1-1-0.dll
 0001:00003ee9       IsProcessorFeaturePresent  0000000180004ee9 f   kernel32:KERNEL32.dll
 0001:00003ef0       __vcrt_thread_attach       0000000180004ef0 f   MSVCRT:ucrt_stubs.obj
 0001:00003ef0       __scrt_stub_for_acrt_thread_detach 0000000180004ef0 f   MSVCRT:ucrt_stubs.obj
 0001:00003ef0       __acrt_initialize          0000000180004ef0 f   MSVCRT:ucrt_stubs.obj
 0001:00003ef0       __scrt_stub_for_acrt_uninitialize 0000000180004ef0 f   MSVCRT:ucrt_stubs.obj
 0001:00003ef0       __acrt_thread_detach       0000000180004ef0 f   MSVCRT:ucrt_stubs.obj
 0001:00003ef0       __vcrt_initialize          0000000180004ef0 f   MSVCRT:ucrt_stubs.obj
 0001:00003ef0       __vcrt_uninitialize        0000000180004ef0 f   MSVCRT:ucrt_stubs.obj
 0001:00003ef0       __acrt_uninitialize_critical 0000000180004ef0 f   MSVCRT:ucrt_stubs.obj
 0001:00003ef0       __scrt_stub_for_acrt_thread_attach 0000000180004ef0 f   MSVCRT:ucrt_stubs.obj
 0001:00003ef0       __scrt_stub_for_acrt_uninitialize_critical 0000000180004ef0 f   MSVCRT:ucrt_stubs.obj
 0001:00003ef0       __acrt_thread_attach       0000000180004ef0 f   MSVCRT:ucrt_stubs.obj
 0001:00003ef0       __scrt_stub_for_acrt_initialize 0000000180004ef0 f   MSVCRT:ucrt_stubs.obj
 0001:00003ef0       __acrt_uninitialize        0000000180004ef0 f   MSVCRT:ucrt_stubs.obj
 0001:00003ef0       __vcrt_thread_detach       0000000180004ef0 f   MSVCRT:ucrt_stubs.obj
 0001:00003ef0       __vcrt_uninitialize_critical 0000000180004ef0 f   MSVCRT:ucrt_stubs.obj
 0001:00003ef4       __GSHandlerCheck           0000000180004ef4 f   MSVCRT:gshandler.obj
 0001:00003f14       __GSHandlerCheckCommon     0000000180004f14 f   MSVCRT:gshandler.obj
 0001:00003f70       __GSHandlerCheck_EH        0000000180004f70 f   MSVCRT:gshandlereh.obj
 0001:00003fef       memcpy                     0000000180004fef f   vcruntime:VCRUNTIME140.dll
 0001:00003ff5       memmove                    0000000180004ff5 f   vcruntime:VCRUNTIME140.dll
 0001:00004010       _guard_dispatch_icall_nop  0000000180005010 f   MSVCRT:guard_dispatch.obj
 0002:00000000       __imp_CloseHandle          0000000180006000     kernel32:KERNEL32.dll
 0002:00000008       __imp_EnterCriticalSection 0000000180006008     kernel32:KERNEL32.dll
 0002:00000010       __imp_GetVersionExW        0000000180006010     kernel32:KERNEL32.dll
 0002:00000018       __imp_GetCommandLineA      0000000180006018     kernel32:KERNEL32.dll
 0002:00000020       __imp_GetVersionExA        0000000180006020     kernel32:KERNEL32.dll
 0002:00000028       __imp_GetSystemInfo        0000000180006028     kernel32:KERNEL32.dll
 0002:00000030       __imp_GetCurrentProcessId  0000000180006030     kernel32:KERNEL32.dll
 0002:00000038       __imp_WideCharToMultiByte  0000000180006038     kernel32:KERNEL32.dll
 0002:00000040       __imp_RtlLookupFunctionEntry 0000000180006040     kernel32:KERNEL32.dll
 0002:00000048       __imp_InitializeSListHead  0000000180006048     kernel32:KERNEL32.dll
 0002:00000050       __imp_DisableThreadLibraryCalls 0000000180006050     kernel32:KERNEL32.dll
 0002:00000058       __imp_GetSystemTimeAsFileTime 0000000180006058     kernel32:KERNEL32.dll
 0002:00000060       __imp_GetCurrentThreadId   0000000180006060     kernel32:KERNEL32.dll
 0002:00000068       __imp_QueryPerformanceCounter 0000000180006068     kernel32:KERNEL32.dll
 0002:00000070       __imp_IsDebuggerPresent    0000000180006070     kernel32:KERNEL32.dll
 0002:00000078       __imp_IsProcessorFeaturePresent 0000000180006078     kernel32:KERNEL32.dll
 0002:00000080       __imp_TerminateProcess     0000000180006080     kernel32:KERNEL32.dll
 0002:00000088       __imp_RtlVirtualUnwind     0000000180006088     kernel32:KERNEL32.dll
 0002:00000090       __imp_UnhandledExceptionFilter 0000000180006090     kernel32:KERNEL32.dll
 0002:00000098       __imp_SetUnhandledExceptionFilter 0000000180006098     kernel32:KERNEL32.dll
 0002:000000a0       __imp_GetCurrentProcess    00000001800060a0     kernel32:KERNEL32.dll
 0002:000000a8       __imp_GetProcAddress       00000001800060a8     kernel32:KERNEL32.dll
 0002:000000b0       __imp_GetModuleHandleW     00000001800060b0     kernel32:KERNEL32.dll
 0002:000000b8       __imp_CreateEventW         00000001800060b8     kernel32:KERNEL32.dll
 0002:000000c0       __imp_WaitForSingleObjectEx 00000001800060c0     kernel32:KERNEL32.dll
 0002:000000c8       __imp_ResetEvent           00000001800060c8     kernel32:KERNEL32.dll
 0002:000000d0       __imp_SetEvent             00000001800060d0     kernel32:KERNEL32.dll
 0002:000000d8       __imp_DeleteCriticalSection 00000001800060d8     kernel32:KERNEL32.dll
 0002:000000e0       __imp_InitializeCriticalSectionAndSpinCount 00000001800060e0     kernel32:KERNEL32.dll
 0002:000000e8       __imp_LeaveCriticalSection 00000001800060e8     kernel32:KERNEL32.dll
 0002:000000f0       __imp_RtlCaptureContext    00000001800060f0     kernel32:KERNEL32.dll
 0002:000000f8       \177KERNEL32_NULL_THUNK_DATA 00000001800060f8     kernel32:KERNEL32.dll
 0002:00000100       __imp_??0?$basic_iostream@DU?$char_traits@D@std@@@std@@QEAA@PEAV?$basic_streambuf@DU?$char_traits@D@std@@@1@@Z 0000000180006100     msvcprt:MSVCP140.dll
 0002:00000108       __imp_??1?$basic_streambuf@DU?$char_traits@D@std@@@std@@UEAA@XZ 0000000180006108     msvcprt:MSVCP140.dll
 0002:00000110       __imp_?_Lock@?$basic_streambuf@DU?$char_traits@D@std@@@std@@UEAAXXZ 0000000180006110     msvcprt:MSVCP140.dll
 0002:00000118       __imp_?_Unlock@?$basic_streambuf@DU?$char_traits@D@std@@@std@@UEAAXXZ 0000000180006118     msvcprt:MSVCP140.dll
 0002:00000120       __imp_?showmanyc@?$basic_streambuf@DU?$char_traits@D@std@@@std@@MEAA_JXZ 0000000180006120     msvcprt:MSVCP140.dll
 0002:00000128       __imp_?uflow@?$basic_streambuf@DU?$char_traits@D@std@@@std@@MEAAHXZ 0000000180006128     msvcprt:MSVCP140.dll
 0002:00000130       __imp_?xsgetn@?$basic_streambuf@DU?$char_traits@D@std@@@std@@MEAA_JPEAD_J@Z 0000000180006130     msvcprt:MSVCP140.dll
 0002:00000138       __imp_?xsputn@?$basic_streambuf@DU?$char_traits@D@std@@@std@@MEAA_JPEBD_J@Z 0000000180006138     msvcprt:MSVCP140.dll
 0002:00000140       __imp_?setbuf@?$basic_streambuf@DU?$char_traits@D@std@@@std@@MEAAPEAV12@PEAD_J@Z 0000000180006140     msvcprt:MSVCP140.dll
 0002:00000148       __imp_?sync@?$basic_streambuf@DU?$char_traits@D@std@@@std@@MEAAHXZ 0000000180006148     msvcprt:MSVCP140.dll
 0002:00000150       __imp_?imbue@?$basic_streambuf@DU?$char_traits@D@std@@@std@@MEAAXAEBVlocale@2@@Z 0000000180006150     msvcprt:MSVCP140.dll
 0002:00000158       __imp_??1?$basic_iostream@DU?$char_traits@D@std@@@std@@UEAA@XZ 0000000180006158     msvcprt:MSVCP140.dll
 0002:00000160       __imp_??0?$basic_streambuf@DU?$char_traits@D@std@@@std@@IEAA@XZ 0000000180006160     msvcprt:MSVCP140.dll
 0002:00000168       __imp_?sputc@?$basic_streambuf@DU?$char_traits@D@std@@@std@@QEAAHD@Z 0000000180006168     msvcprt:MSVCP140.dll
 0002:00000170       __imp_?sputn@?$basic_streambuf@DU?$char_traits@D@std@@@std@@QEAA_JPEBD_J@Z 0000000180006170     msvcprt:MSVCP140.dll
 0002:00000178       __imp_?_Xlength_error@std@@YAXPEBD@Z 0000000180006178     msvcprt:MSVCP140.dll
 0002:00000180       __imp_?_Pninc@?$basic_streambuf@DU?$char_traits@D@std@@@std@@IEAAPEADXZ 0000000180006180     msvcprt:MSVCP140.dll
 0002:00000188       \177MSVCP140_NULL_THUNK_DATA 0000000180006188     msvcprt:MSVCP140.dll
 0002:00000190       __imp__CxxThrowException   0000000180006190     vcruntime:VCRUNTIME140.dll
 0002:00000198       __imp_memmove              0000000180006198     vcruntime:VCRUNTIME140.dll
 0002:000001a0       __imp___std_exception_copy 00000001800061a0     vcruntime:VCRUNTIME140.dll
 0002:000001a8       __imp_memset               00000001800061a8     vcruntime:VCRUNTIME140.dll
 0002:000001b0       __imp___C_specific_handler 00000001800061b0     vcruntime:VCRUNTIME140.dll
 0002:000001b8       __imp___std_terminate      00000001800061b8     vcruntime:VCRUNTIME140.dll
 0002:000001c0       __imp___CxxFrameHandler3   00000001800061c0     vcruntime:VCRUNTIME140.dll
 0002:000001c8       __imp___std_type_info_destroy_list 00000001800061c8     vcruntime:VCRUNTIME140.dll
 0002:000001d0       __imp_memcpy               00000001800061d0     vcruntime:VCRUNTIME140.dll
 0002:000001d8       __imp___std_exception_destroy 00000001800061d8     vcruntime:VCRUNTIME140.dll
 0002:000001e0       \177VCRUNTIME140_NULL_THUNK_DATA 00000001800061e0     vcruntime:VCRUNTIME140.dll
 0002:000001e8       __imp_gethostname          00000001800061e8     Ws2_32:WS2_32.dll
 0002:000001f0       \177WS2_32_NULL_THUNK_DATA 00000001800061f0     Ws2_32:WS2_32.dll
 0002:000001f8       __imp___p__environ         00000001800061f8     ucrt:api-ms-win-crt-environment-l1-1-0.dll
 0002:00000200       \177api-ms-win-crt-environment-l1-1-0_NULL_THUNK_DATA 0000000180006200     ucrt:api-ms-win-crt-environment-l1-1-0.dll
 0002:00000208       __imp_free                 0000000180006208     ucrt:api-ms-win-crt-heap-l1-1-0.dll
 0002:00000210       __imp__callnewh            0000000180006210     ucrt:api-ms-win-crt-heap-l1-1-0.dll
 0002:00000218       __imp_malloc               0000000180006218     ucrt:api-ms-win-crt-heap-l1-1-0.dll
 0002:00000220       \177api-ms-win-crt-heap-l1-1-0_NULL_THUNK_DATA 0000000180006220     ucrt:api-ms-win-crt-heap-l1-1-0.dll
 0002:00000228       __imp__cexit               0000000180006228     ucrt:api-ms-win-crt-runtime-l1-1-0.dll
 0002:00000230       __imp__crt_atexit          0000000180006230     ucrt:api-ms-win-crt-runtime-l1-1-0.dll
 0002:00000238       __imp__execute_onexit_table 0000000180006238     ucrt:api-ms-win-crt-runtime-l1-1-0.dll
 0002:00000240       __imp__register_onexit_function 0000000180006240     ucrt:api-ms-win-crt-runtime-l1-1-0.dll
 0002:00000248       __imp__initialize_onexit_table 0000000180006248     ucrt:api-ms-win-crt-runtime-l1-1-0.dll
 0002:00000250       __imp__initialize_narrow_environment 0000000180006250     ucrt:api-ms-win-crt-runtime-l1-1-0.dll
 0002:00000258       __imp__configure_narrow_argv 0000000180006258     ucrt:api-ms-win-crt-runtime-l1-1-0.dll
 0002:00000260       __imp__seh_filter_dll      0000000180006260     ucrt:api-ms-win-crt-runtime-l1-1-0.dll
 0002:00000268       __imp__initterm            0000000180006268     ucrt:api-ms-win-crt-runtime-l1-1-0.dll
 0002:00000270       __imp__invalid_parameter_noinfo_noreturn 0000000180006270     ucrt:api-ms-win-crt-runtime-l1-1-0.dll
 0002:00000278       __imp__initterm_e          0000000180006278     ucrt:api-ms-win-crt-runtime-l1-1-0.dll
 0002:00000280       \177api-ms-win-crt-runtime-l1-1-0_NULL_THUNK_DATA 0000000180006280     ucrt:api-ms-win-crt-runtime-l1-1-0.dll
 0002:00000288       __imp___stdio_common_vsprintf 0000000180006288     ucrt:api-ms-win-crt-stdio-l1-1-0.dll
 0002:00000290       \177api-ms-win-crt-stdio-l1-1-0_NULL_THUNK_DATA 0000000180006290     ucrt:api-ms-win-crt-stdio-l1-1-0.dll
 0002:00000298       __imp_strncmp              0000000180006298     ucrt:api-ms-win-crt-string-l1-1-0.dll
 0002:000002a0       \177api-ms-win-crt-string-l1-1-0_NULL_THUNK_DATA 00000001800062a0     ucrt:api-ms-win-crt-string-l1-1-0.dll
 0002:000002a8       __imp_?setstate@?$basic_ios@DU?$char_traits@D@std@@@std@@QEAAXH_N@Z 00000001800062a8     node:node.exe
 0002:000002b0       __imp_??0?$basic_ios@DU?$char_traits@D@std@@@std@@IEAA@XZ 00000001800062b0     node:node.exe
 0002:000002b8       __imp_??1?$basic_ios@DU?$char_traits@D@std@@@std@@UEAA@XZ 00000001800062b8     node:node.exe
 0002:000002c0       __imp_?flush@?$basic_ostream@DU?$char_traits@D@std@@@std@@QEAAAEAV12@XZ 00000001800062c0     node:node.exe
 0002:000002c8       __imp_?_Osfx@?$basic_ostream@DU?$char_traits@D@std@@@std@@QEAAXXZ 00000001800062c8     node:node.exe
 0002:000002d0       \177node_NULL_THUNK_DATA   00000001800062d0     node:node.exe
 0002:000002d8       __guard_check_icall_fptr   00000001800062d8     MSVCRT:guard_support.obj
 0002:000002e0       __guard_dispatch_icall_fptr 00000001800062e0     MSVCRT:guard_support.obj
 0002:000002e8       __xc_a                     00000001800062e8     MSVCRT:initializers.obj
 0002:000002f0       __xc_z                     00000001800062f0     MSVCRT:initializers.obj
 0002:000002f8       __xi_a                     00000001800062f8     MSVCRT:initializers.obj
 0002:00000308       __xi_z                     0000000180006308     MSVCRT:initializers.obj
 0002:00000310       __xl_a                     0000000180006310     MSVCRT:tlssup.obj
 0002:00000318       __xl_z                     0000000180006318     MSVCRT:tlssup.obj
 0002:00000320       __xp_a                     0000000180006320     MSVCRT:initializers.obj
 0002:00000328       __xp_z                     0000000180006328     MSVCRT:initializers.obj
 0002:00000330       __xt_a                     0000000180006330     MSVCRT:initializers.obj
 0002:00000338       __xt_z                     0000000180006338     MSVCRT:initializers.obj
 0002:00000370       ??_C@_1EC@JIJBPKFM@?$AAa?$AAp?$AAi?$AA?9?$AAm?$AAs?$AA?9?$AAw?$AAi?$AAn?$AA?9?$AAc?$AAo?$AAr?$AAe@ 0000000180006370     MSVCRT:thread_safe_statics.obj
 0002:000003b8       ??_C@_1BK@MGMFAEKH@?$AAk?$AAe?$AAr?$AAn?$AAe?$AAl?$AA3?$AA2?$AA?4?$AAd?$AAl?$AAl@ 00000001800063b8     MSVCRT:thread_safe_statics.obj
 0002:000003d8       ??_C@_0BM@HLJJNPAH@InitializeConditionVariable@ 00000001800063d8     MSVCRT:thread_safe_statics.obj
 0002:000003f8       ??_C@_0BJ@JEBJOJFJ@SleepConditionVariableCS@ 00000001800063f8     MSVCRT:thread_safe_statics.obj
 0002:00000418       ??_C@_0BJ@PGPPEPCC@WakeAllConditionVariable@ 0000000180006418     MSVCRT:thread_safe_statics.obj
 0002:00000438       _pDefaultRawDllMain        0000000180006438     MSVCRT:dll_dllmain.obj
 0002:00000438       _pRawDllMain               0000000180006438     MSVCRT:dll_dllmain.obj
 0002:00000458       ??_7exception@std@@6B@     0000000180006458     MSVCRT:throw_bad_alloc.obj
 0002:00000468       ??_C@_0BC@EOODALEL@Unknown?5exception@ 0000000180006468     MSVCRT:throw_bad_alloc.obj
 0002:00000488       ??_7bad_alloc@std@@6B@     0000000180006488     MSVCRT:throw_bad_alloc.obj
 0002:00000498       ??_C@_0P@GHFPNOJB@bad?5allocation@ 0000000180006498     MSVCRT:throw_bad_alloc.obj
 0002:000004b0       ??_7bad_array_new_length@std@@6B@ 00000001800064b0     MSVCRT:throw_bad_alloc.obj
 0002:000004c0       ??_C@_0BF@KINCDENJ@bad?5array?5new?5length@ 00000001800064c0     MSVCRT:throw_bad_alloc.obj
 0002:000004e0       ??_7type_info@@6B@         00000001800064e0     MSVCRT:std_type_info_static.obj
 0002:000004e8       ??_C@_07CIFAGBMG@unknown@  00000001800064e8     envplugin.obj
 0002:000004f0       ??_C@_00CNPNBAHC@@         00000001800064f0     envplugin.obj
 0002:000004f8       ??_C@_0BG@FCIHIHNE@?$DO?$DO?$DOEnvPlugin?3?3start?$CI?$CJ@ 00000001800064f8     envplugin.obj
 0002:00000510       ??_C@_0BG@FCNNDJKF@?$DM?$DM?$DMEnvPlugin?3?3start?$CI?$CJ@ 0000000180006510     envplugin.obj
 0002:00000528       ??_C@_0BF@MEFDOKKA@?$DO?$DO?$DOEnvPlugin?3?3stop?$CI?$CJ@ 0000000180006528     envplugin.obj
 0002:00000540       ??_C@_0BF@JOONJLKA@?$DM?$DM?$DMEnvPlugin?3?3stop?$CI?$CJ@ 0000000180006540     envplugin.obj
 0002:00000558       ??_C@_0CB@HDKGGHID@?$FLenv_os?$FN?5Registering?5pull?5sourc@ 0000000180006558     envplugin.obj
 0002:00000580       ??_C@_0L@FJPHAHBJ@common_env@ 0000000180006580     envplugin.obj
 0002:00000590       ??_C@_0N@HDPIBLPJ@environment?4@ 0000000180006590     envplugin.obj
 0002:000005a0       ??_C@_09LJAGLIBK@HOSTNAME?$DN@ 00000001800065a0     envplugin.obj
 0002:000005b0       ??_C@_0BG@GENAHMPO@environment?4HOSTNAME?$DN@ 00000001800065b0     envplugin.obj
 0002:000005c8       ??_C@_08GCHEJEAN@os?4arch?$DN@ 00000001800065c8     envplugin.obj
 0002:000005d8       ??_C@_08FMGFCPOK@os?4name?$DN@ 00000001800065d8     envplugin.obj
 0002:000005e8       ??_C@_0M@NKINDLGI@os?4version?$DN@ 00000001800065e8     envplugin.obj
 0002:000005f4       ??_C@_04KDBHHLOG@pid?$DN@  00000001800065f4     envplugin.obj
 0002:00000600       ??_C@_0BF@FJCEBIKB@native?4library?4date?$DN@ 0000000180006600     envplugin.obj
 0002:00000618       ??_C@_0N@LCDPALCD@jar?4version?$DN@ 0000000180006618     envplugin.obj
 0002:00000628       ??_C@_0BG@LLDDOOBH@number?4of?4processors?$DN@ 0000000180006628     envplugin.obj
 0002:00000640       ??_C@_0O@KPHIFHNI@command?4line?$DN@ 0000000180006640     envplugin.obj
 0002:00000650       ??_C@_0BM@CJBMKNBN@?$DO?$DO?$DOEnvPlugin?3?3OnRequestData@ 0000000180006650     envplugin.obj
 0002:00000670       ??_C@_0BE@HJPCBBAI@?$CDEnvironmentSource?6@ 0000000180006670     envplugin.obj
 0002:00000688       ??_C@_0BM@OCCFCKMK@?$DM?$DM?$DMEnvPlugin?3?3OnRequestData@ 0000000180006688     envplugin.obj
 0002:000006a8       ??_C@_0BM@JJKMHHFJ@EnvPlugin?3?3createPullSource@ 00000001800066a8     envplugin.obj
 0002:000006c8       ??_C@_0BB@EAOAKEMK@Description?5for?5@ 00000001800066c8     envplugin.obj
 0002:000006e0       ??_C@_0CI@HKGCNKLE@?$DO?$DO?$DOibmras_monitoring_registerPu@ 00000001800066e0     envplugin.obj
 0002:00000708       ??_C@_0O@POCGFBKJ@agent?4version@ 0000000180006708     envplugin.obj
 0002:00000718       ??_C@_0BI@LCHJKIEK@agent?4native?4build?4date@ 0000000180006718     envplugin.obj
 0002:00000730       ??_C@_0CI@KCOIBCKM@?$DM?$DM?$DMibmras_monitoring_registerPu@ 0000000180006730     envplugin.obj
 0002:00000758       ??_C@_0BK@MKLEJJPE@?$FLenvironment_os?$FN?5Starting@ 0000000180006758     envplugin.obj
 0002:00000778       ??_C@_0BK@CCMDOFGC@?$FLenvironment_os?$FN?5Stopping@ 0000000180006778     envplugin.obj
 0002:00000794       ??_C@_03HLLJOCDO@1?40@     0000000180006794     envplugin.obj
 0002:00000798       ??_C@_07LDLFNPGN@Windows@  0000000180006798     envplugin.obj
 0002:000007a0       ??_C@_0M@FDJCPBAL@Windows?53?41@ 00000001800067a0     envplugin.obj
 0002:000007b0       ??_C@_0L@NEBNHFIE@Windows?595@ 00000001800067b0     envplugin.obj
 0002:000007c0       ??_C@_0L@DNFOOIFM@Windows?5Me@ 00000001800067c0     envplugin.obj
 0002:000007d0       ??_C@_0L@GBLDALMJ@Windows?598@ 00000001800067d0     envplugin.obj
 0002:000007e0       ??_C@_0L@PJEFFBLH@Windows?5NT@ 00000001800067e0     envplugin.obj
 0002:000007f0       ??_C@_0N@MEKDBOKB@Windows?52000@ 00000001800067f0     envplugin.obj
 0002:00000800       ??_C@_0L@IFICELHB@Windows?5XP@ 0000000180006800     envplugin.obj
 0002:00000810       ??_C@_0BE@IEOLCCDL@Windows?5Server?52003@ 0000000180006810     envplugin.obj
 0002:00000828       ??_C@_0O@IFKHFILP@Windows?5Vista@ 0000000180006828     envplugin.obj
 0002:00000838       ??_C@_09GOHFIPMO@Windows?57@ 0000000180006838     envplugin.obj
 0002:00000848       ??_C@_09OJONJDAB@Windows?58@ 0000000180006848     envplugin.obj
 0002:00000858       ??_C@_0BE@GHBPPLPA@Windows?5Server?52008@ 0000000180006858     envplugin.obj
 0002:00000870       ??_C@_0BH@ONPOEHKF@Windows?5Server?52008?5R2@ 0000000180006870     envplugin.obj
 0002:00000888       ??_C@_0BE@JMDCHJEN@Windows?5Server?52012@ 0000000180006888     envplugin.obj
 0002:000008a0       ??_C@_0P@GEOPNFCC@?$CFd?4?$CFd?5build?5?$CFd@ 00000001800068a0     envplugin.obj
 0002:000008b0       ??_C@_06HDPOADAK@x86_64@   00000001800068b0     envplugin.obj
 0002:000008b8       ??_C@_03NKAHBJFB@arm@      00000001800068b8     envplugin.obj
 0002:000008c0       ??_C@_07GMLDHNDF@itanium@  00000001800068c0     envplugin.obj
 0002:000008c8       ??_C@_03NDFEINMN@x86@      00000001800068c8     envplugin.obj
 0002:000008d0       ??_C@_0BA@JFNIOLAK@string?5too?5long@ 00000001800068d0     envplugin.obj
 0002:000008e0       ??_8?$basic_stringstream@DU?$char_traits@D@std@@V?$allocator@D@2@@std@@7B?$basic_ostream@DU?$char_traits@D@std@@@1@@ 00000001800068e0     envplugin.obj
 0002:000008e8       ??_7EnvPlugin@environment@common@plugins@monitoring@ibmras@@6B@ 00000001800068e8     envplugin.obj
 0002:000008f0       ??_7?$basic_stringbuf@DU?$char_traits@D@std@@V?$allocator@D@2@@std@@6B@ 00000001800068f0     envplugin.obj
 0002:00000968       ??_7?$basic_stringstream@DU?$char_traits@D@std@@V?$allocator@D@2@@std@@6B@ 0000000180006968     envplugin.obj
 0002:00000970       ??_8?$basic_stringstream@DU?$char_traits@D@std@@V?$allocator@D@2@@std@@7B?$basic_istream@DU?$char_traits@D@std@@@1@@ 0000000180006970     envplugin.obj
 0002:00000b10       __xmm@000000000000000f0000000000000000 0000000180006b10     envplugin.obj
 0002:00000b90       _load_config_used          0000000180006b90     MSVCRT:loadcfg.obj
 0002:00000c90       _tls_used                  0000000180006c90     MSVCRT:tlssup.obj
 0002:00000cb8       ??_R4exception@std@@6B@    0000000180006cb8     MSVCRT:throw_bad_alloc.obj
 0002:00000ce0       ??_R3exception@std@@8      0000000180006ce0     MSVCRT:throw_bad_alloc.obj
 0002:00000cf8       ??_R2exception@std@@8      0000000180006cf8     MSVCRT:throw_bad_alloc.obj
 0002:00000d08       ??_R1A@?0A@EA@exception@std@@8 0000000180006d08     MSVCRT:throw_bad_alloc.obj
 0002:00000d30       ??_R4bad_alloc@std@@6B@    0000000180006d30     MSVCRT:throw_bad_alloc.obj
 0002:00000d58       ??_R3bad_alloc@std@@8      0000000180006d58     MSVCRT:throw_bad_alloc.obj
 0002:00000d70       ??_R2bad_alloc@std@@8      0000000180006d70     MSVCRT:throw_bad_alloc.obj
 0002:00000d88       ??_R1A@?0A@EA@bad_alloc@std@@8 0000000180006d88     MSVCRT:throw_bad_alloc.obj
 0002:00000db0       ??_R4bad_array_new_length@std@@6B@ 0000000180006db0     MSVCRT:throw_bad_alloc.obj
 0002:00000dd8       ??_R3bad_array_new_length@std@@8 0000000180006dd8     MSVCRT:throw_bad_alloc.obj
 0002:00000df0       ??_R2bad_array_new_length@std@@8 0000000180006df0     MSVCRT:throw_bad_alloc.obj
 0002:00000e10       ??_R1A@?0A@EA@bad_array_new_length@std@@8 0000000180006e10     MSVCRT:throw_bad_alloc.obj
 0002:00000e38       ??_R4type_info@@6B@        0000000180006e38     MSVCRT:std_type_info_static.obj
 0002:00000e60       ??_R3type_info@@8          0000000180006e60     MSVCRT:std_type_info_static.obj
 0002:00000e78       ??_R2type_info@@8          0000000180006e78     MSVCRT:std_type_info_static.obj
 0002:00000e88       ??_R1A@?0A@EA@type_info@@8 0000000180006e88     MSVCRT:std_type_info_static.obj
 0002:00001248       __rtc_iaa                  0000000180007248     MSVCRT:initsect.obj
 0002:00001250       __rtc_izz                  0000000180007250     MSVCRT:initsect.obj
 0002:00001258       __rtc_taa                  0000000180007258     MSVCRT:initsect.obj
 0002:00001260       __rtc_tzz                  0000000180007260     MSVCRT:initsect.obj
 0002:00001268       _tls_start                 0000000180007268     MSVCRT:tlssup.obj
 0002:0000126c       _Init_thread_epoch         000000018000726c     MSVCRT:thread_safe_statics.obj
 0002:00001270       _tls_end                   0000000180007270     MSVCRT:tlssup.obj
 0002:00001840       _TI2?AVbad_alloc@std@@     0000000180007840     MSVCRT:throw_bad_alloc.obj
 0002:00001860       _CTA2?AVbad_alloc@std@@    0000000180007860     MSVCRT:throw_bad_alloc.obj
 0002:00001878       _CT??_R0?AVbad_alloc@std@@@8??0bad_alloc@std@@QEAA@AEBV01@@Z24 0000000180007878     MSVCRT:throw_bad_alloc.obj
 0002:000018a0       _CT??_R0?AVexception@std@@@8??0exception@std@@QEAA@AEBV01@@Z24 00000001800078a0     MSVCRT:throw_bad_alloc.obj
 0002:000018c8       _TI3?AVbad_array_new_length@std@@ 00000001800078c8     MSVCRT:throw_bad_alloc.obj
 0002:000018e8       _CTA3?AVbad_array_new_length@std@@ 00000001800078e8     MSVCRT:throw_bad_alloc.obj
 0002:00001908       _CT??_R0?AVbad_array_new_length@std@@@8??0bad_array_new_length@std@@QEAA@AEBV01@@Z24 0000000180007908     MSVCRT:throw_bad_alloc.obj
 0002:00001a38       __IMPORT_DESCRIPTOR_WS2_32 0000000180007a38     Ws2_32:WS2_32.dll
 0002:00001a4c       __IMPORT_DESCRIPTOR_KERNEL32 0000000180007a4c     kernel32:KERNEL32.dll
 0002:00001a60       __IMPORT_DESCRIPTOR_node   0000000180007a60     node:node.exe
 0002:00001a74       __IMPORT_DESCRIPTOR_MSVCP140 0000000180007a74     msvcprt:MSVCP140.dll
 0002:00001a88       __IMPORT_DESCRIPTOR_VCRUNTIME140 0000000180007a88     vcruntime:VCRUNTIME140.dll
 0002:00001a9c       __IMPORT_DESCRIPTOR_api-ms-win-crt-string-l1-1-0 0000000180007a9c     ucrt:api-ms-win-crt-string-l1-1-0.dll
 0002:00001ab0       __IMPORT_DESCRIPTOR_api-ms-win-crt-stdio-l1-1-0 0000000180007ab0     ucrt:api-ms-win-crt-stdio-l1-1-0.dll
 0002:00001ac4       __IMPORT_DESCRIPTOR_api-ms-win-crt-environment-l1-1-0 0000000180007ac4     ucrt:api-ms-win-crt-environment-l1-1-0.dll
 0002:00001ad8       __IMPORT_DESCRIPTOR_api-ms-win-crt-runtime-l1-1-0 0000000180007ad8     ucrt:api-ms-win-crt-runtime-l1-1-0.dll
 0002:00001aec       __IMPORT_DESCRIPTOR_api-ms-win-crt-heap-l1-1-0 0000000180007aec     ucrt:api-ms-win-crt-heap-l1-1-0.dll
 0002:00001b00       __NULL_IMPORT_DESCRIPTOR   0000000180007b00     Ws2_32:WS2_32.dll
 0003:00000000       _Init_global_epoch         0000000180009000     MSVCRT:thread_safe_statics.obj
 0003:00000004       __scrt_native_dllmain_reason 0000000180009004     MSVCRT:utility.obj
 0003:00000008       __security_cookie_complement 0000000180009008     MSVCRT:gs_cookie.obj
 0003:00000010       __security_cookie          0000000180009010     MSVCRT:gs_cookie.obj
 0003:00000018       __isa_available            0000000180009018     MSVCRT:cpu_disp.obj
 0003:0000001c       __isa_enabled              000000018000901c     MSVCRT:cpu_disp.obj
 0003:00000020       __memcpy_nt_iters          0000000180009020     MSVCRT:cpu_disp.obj
 0003:00000030       __scrt_ucrt_dll_is_in_use  0000000180009030     MSVCRT:ucrt_stubs.obj
 0003:00000038       ??_R0?AVbad_alloc@std@@@8  0000000180009038     MSVCRT:throw_bad_alloc.obj
 0003:00000060       ??_R0?AVexception@std@@@8  0000000180009060     MSVCRT:throw_bad_alloc.obj
 0003:00000088       ??_R0?AVbad_array_new_length@std@@@8 0000000180009088     MSVCRT:throw_bad_alloc.obj
 0003:000000b8       ??_R0?AVtype_info@@@8      00000001800090b8     MSVCRT:std_type_info_static.obj
 0003:00000128       __scrt_current_native_startup_state 0000000180009128     MSVCRT:utility.obj
 0003:00000130       __scrt_native_startup_lock 0000000180009130     MSVCRT:utility.obj
 0003:000006f0       __scrt_debugger_hook_flag  00000001800096f0     MSVCRT:utility_desktop.obj
 0003:000006f4       _tls_index                 00000001800096f4     MSVCRT:tlssup.obj
 0003:000006f8       __favor                    00000001800096f8     MSVCRT:cpu_disp.obj
 0003:00000700       ?__type_info_root_node@@3U__type_info_node@@A 0000000180009700     MSVCRT:tncleanup.obj
 0003:00000710       ?_OptionsStorage@?1??__local_stdio_scanf_options@@9@4_KA 0000000180009710     MSVCRT:default_local_stdio_options.obj
 0003:00000718       ?instance@EnvPlugin@environment@common@plugins@monitoring@ibmras@@0PEAV123456@EA 0000000180009718     envplugin.obj
 0003:00000720       ?aCF@EnvPlugin@environment@common@plugins@monitoring@ibmras@@2UagentCoreFunctions@@A 0000000180009720     envplugin.obj
 0003:00000748       ?_OptionsStorage@?1??__local_stdio_printf_options@@9@4_KA 0000000180009748     envplugin.obj
 0003:00000798       __dyn_tls_init_callback    0000000180009798     <common>

 entry point at        0001:0000361c

 Static symbols

 0000:ffff3000       .debug$S                   0000000180000000     ucrt:api-ms-win-crt-heap-l1-1-0.dll
 0000:ffff3000       .debug$S                   0000000180000000     vcruntime:VCRUNTIME140.dll
 0000:ffff3000       .debug$S                   0000000180000000     vcruntime:VCRUNTIME140.dll
 0000:ffff3000       .debug$S                   0000000180000000     kernel32:KERNEL32.dll
 0000:ffff3000       .debug$S                   0000000180000000     kernel32:KERNEL32.dll
 0000:ffff3000       .debug$S                   0000000180000000     kernel32:KERNEL32.dll
 0000:ffff3000       .debug$S                   0000000180000000     kernel32:KERNEL32.dll
 0000:ffff3000       .debug$S                   0000000180000000     kernel32:KERNEL32.dll
 0000:ffff3000       .debug$S                   0000000180000000     kernel32:KERNEL32.dll
 0000:ffff3000       .debug$S                   0000000180000000     node:node.exe
 0000:ffff3000       .debug$S                   0000000180000000     node:node.exe
 0000:ffff3000       .debug$S                   0000000180000000     node:node.exe
 0000:ffff3000       .debug$S                   0000000180000000     node:node.exe
 0000:ffff3000       .debug$S                   0000000180000000     node:node.exe
 0000:ffff3000       .debug$S                   0000000180000000     node:node.exe
 0000:ffff3000       .debug$S                   0000000180000000     node:node.exe
 0000:ffff3000       .debug$S                   0000000180000000     node:node.exe
 0000:ffff3000       .debug$S                   0000000180000000     msvcprt:MSVCP140.dll
 0000:ffff3000       .debug$S                   0000000180000000     msvcprt:MSVCP140.dll
 0000:ffff3000       .debug$S                   0000000180000000     msvcprt:MSVCP140.dll
 0000:ffff3000       .debug$S                   0000000180000000     msvcprt:MSVCP140.dll
 0000:ffff3000       .debug$S                   0000000180000000     msvcprt:MSVCP140.dll
 0000:ffff3000       .debug$S                   0000000180000000     msvcprt:MSVCP140.dll
 0000:ffff3000       .debug$S                   0000000180000000     msvcprt:MSVCP140.dll
 0000:ffff3000       .debug$S                   0000000180000000     msvcprt:MSVCP140.dll
 0000:ffff3000       .debug$S                   0000000180000000     msvcprt:MSVCP140.dll
 0000:ffff3000       .debug$S                   0000000180000000     msvcprt:MSVCP140.dll
 0000:ffff3000       .debug$S                   0000000180000000     msvcprt:MSVCP140.dll
 0000:ffff3000       .debug$S                   0000000180000000     msvcprt:MSVCP140.dll
 0000:ffff3000       .debug$S                   0000000180000000     msvcprt:MSVCP140.dll
 0000:ffff3000       .debug$S                   0000000180000000     msvcprt:MSVCP140.dll
 0000:ffff3000       .debug$S                   0000000180000000     msvcprt:MSVCP140.dll
 0000:ffff3000       .debug$S                   0000000180000000     msvcprt:MSVCP140.dll
 0000:ffff3000       .debug$S                   0000000180000000     msvcprt:MSVCP140.dll
 0000:ffff3000       .debug$S                   0000000180000000     msvcprt:MSVCP140.dll
 0000:ffff3000       .debug$S                   0000000180000000     msvcprt:MSVCP140.dll
 0000:ffff3000       .debug$S                   0000000180000000     msvcprt:MSVCP140.dll
 0000:ffff3000       .debug$S                   0000000180000000     msvcprt:MSVCP140.dll
 0000:ffff3000       .debug$S                   0000000180000000     msvcprt:MSVCP140.dll
 0000:ffff3000       .debug$S                   0000000180000000     msvcprt:MSVCP140.dll
 0000:ffff3000       .debug$S                   0000000180000000     msvcprt:MSVCP140.dll
 0000:ffff3000       .debug$S                   0000000180000000     msvcprt:MSVCP140.dll
 0000:ffff3000       .debug$S                   0000000180000000     msvcprt:MSVCP140.dll
 0000:ffff3000       .debug$S                   0000000180000000     msvcprt:MSVCP140.dll
 0000:ffff3000       .debug$S                   0000000180000000     msvcprt:MSVCP140.dll
 0000:ffff3000       .debug$S                   0000000180000000     msvcprt:MSVCP140.dll
 0000:ffff3000       .debug$S                   0000000180000000     msvcprt:MSVCP140.dll
 0000:ffff3000       .debug$S                   0000000180000000     msvcprt:MSVCP140.dll
 0000:ffff3000       .debug$S                   0000000180000000     msvcprt:MSVCP140.dll
 0000:ffff3000       .debug$S                   0000000180000000     vcruntime:VCRUNTIME140.dll
 0000:ffff3000       .debug$S                   0000000180000000     vcruntime:VCRUNTIME140.dll
 0000:ffff3000       .debug$S                   0000000180000000     vcruntime:VCRUNTIME140.dll
 0000:ffff3000       .debug$S                   0000000180000000     vcruntime:VCRUNTIME140.dll
 0000:ffff3000       .debug$S                   0000000180000000     vcruntime:VCRUNTIME140.dll
 0000:ffff3000       .debug$S                   0000000180000000     vcruntime:VCRUNTIME140.dll
 0000:ffff3000       .debug$S                   0000000180000000     vcruntime:VCRUNTIME140.dll
 0000:ffff3000       .debug$S                   0000000180000000     vcruntime:VCRUNTIME140.dll
 0000:ffff3000       .debug$S                   0000000180000000     ucrt:api-ms-win-crt-string-l1-1-0.dll
 0000:ffff3000       .debug$S                   0000000180000000     ucrt:api-ms-win-crt-stdio-l1-1-0.dll
 0000:ffff3000       .debug$S                   0000000180000000     ucrt:api-ms-win-crt-environment-l1-1-0.dll
 0000:ffff3000       .debug$S                   0000000180000000     ucrt:api-ms-win-crt-runtime-l1-1-0.dll
 0000:ffff3000       .debug$S                   0000000180000000     Ws2_32:WS2_32.dll
 0000:ffff3000       .debug$S                   0000000180000000     ucrt:api-ms-win-crt-heap-l1-1-0.dll
 0000:ffff3000       .debug$S                   0000000180000000     ucrt:api-ms-win-crt-runtime-l1-1-0.dll
 0000:ffff3000       .debug$S                   0000000180000000     ucrt:api-ms-win-crt-runtime-l1-1-0.dll
 0000:ffff3000       .debug$S                   0000000180000000     ucrt:api-ms-win-crt-runtime-l1-1-0.dll
 0000:ffff3000       .debug$S                   0000000180000000     ucrt:api-ms-win-crt-runtime-l1-1-0.dll
 0000:ffff3000       .debug$S                   0000000180000000     ucrt:api-ms-win-crt-runtime-l1-1-0.dll
 0000:ffff3000       .debug$S                   0000000180000000     ucrt:api-ms-win-crt-runtime-l1-1-0.dll
 0000:ffff3000       .debug$S                   0000000180000000     ucrt:api-ms-win-crt-runtime-l1-1-0.dll
 0000:ffff3000       .debug$S                   0000000180000000     ucrt:api-ms-win-crt-runtime-l1-1-0.dll
 0000:ffff3000       .debug$S                   0000000180000000     ucrt:api-ms-win-crt-runtime-l1-1-0.dll
 0000:ffff3000       .debug$S                   0000000180000000     ucrt:api-ms-win-crt-runtime-l1-1-0.dll
 0000:ffff3000       .debug$S                   0000000180000000     ucrt:api-ms-win-crt-runtime-l1-1-0.dll
 0000:ffff3000       .debug$S                   0000000180000000     ucrt:api-ms-win-crt-heap-l1-1-0.dll
 0000:ffff3000       .debug$S                   0000000180000000     ucrt:api-ms-win-crt-runtime-l1-1-0.dll
 0000:ffff3000       .debug$S                   0000000180000000     kernel32:KERNEL32.dll
 0000:ffff3000       .debug$S                   0000000180000000     kernel32:KERNEL32.dll
 0000:ffff3000       .debug$S                   0000000180000000     kernel32:KERNEL32.dll
 0000:ffff3000       .debug$S                   0000000180000000     kernel32:KERNEL32.dll
 0000:ffff3000       .debug$S                   0000000180000000     kernel32:KERNEL32.dll
 0000:ffff3000       .debug$S                   0000000180000000     kernel32:KERNEL32.dll
 0000:ffff3000       .debug$S                   0000000180000000     kernel32:KERNEL32.dll
 0000:ffff3000       .debug$S                   0000000180000000     kernel32:KERNEL32.dll
 0000:ffff3000       .debug$S                   0000000180000000     kernel32:KERNEL32.dll
 0000:ffff3000       .debug$S                   0000000180000000     kernel32:KERNEL32.dll
 0000:ffff3000       .debug$S                   0000000180000000     kernel32:KERNEL32.dll
 0000:ffff3000       .debug$S                   0000000180000000     kernel32:KERNEL32.dll
 0000:ffff3000       .debug$S                   0000000180000000     kernel32:KERNEL32.dll
 0000:ffff3000       .debug$S                   0000000180000000     kernel32:KERNEL32.dll
 0000:ffff3000       .debug$S                   0000000180000000     kernel32:KERNEL32.dll
 0000:ffff3000       .debug$S                   0000000180000000     kernel32:KERNEL32.dll
 0000:ffff3000       .debug$S                   0000000180000000     kernel32:KERNEL32.dll
 0000:ffff3000       .debug$S                   0000000180000000     kernel32:KERNEL32.dll
 0000:ffff3000       .debug$S                   0000000180000000     kernel32:KERNEL32.dll
 0000:ffff3000       .debug$S                   0000000180000000     kernel32:KERNEL32.dll
 0000:ffff3000       .debug$S                   0000000180000000     kernel32:KERNEL32.dll
 0000:ffff3000       .debug$S                   0000000180000000     kernel32:KERNEL32.dll
 0000:ffff3000       .debug$S                   0000000180000000     kernel32:KERNEL32.dll
 0000:ffff3000       .debug$S                   0000000180000000     kernel32:KERNEL32.dll
 0000:ffff3000       .debug$S                   0000000180000000     kernel32:KERNEL32.dll
 0000:ffff3000       .debug$S                   0000000180000000     kernel32:KERNEL32.dll
 0000:ffff3000       .debug$S                   0000000180000000     envplugin.exp
 0001:00002b40       $$000000                   0000000180003b40     MSVCRT:amdsecgs.obj
 0001:00002b7c       ?__scrt_initialize_thread_safe_statics@@YAHXZ 0000000180003b7c f   MSVCRT:thread_safe_statics.obj
 0001:00002cdc       ?__scrt_uninitialize_thread_safe_statics@@YAXXZ 0000000180003cdc f   MSVCRT:thread_safe_statics.obj
 0001:000032ec       ?dllmain_crt_dispatch@@YAHQEAUHINSTANCE__@@KQEAX@Z 00000001800042ec f   MSVCRT:dll_dllmain.obj
 0001:0000333c       ?dllmain_crt_process_attach@@YAHQEAUHINSTANCE__@@QEAX@Z 000000018000433c f   MSVCRT:dll_dllmain.obj
 0001:00003458       ?dllmain_crt_process_detach@@YAH_N@Z 0000000180004458 f   MSVCRT:dll_dllmain.obj
 0001:000034e8       ?dllmain_dispatch@@YAHQEAUHINSTANCE__@@KQEAX@Z 00000001800044e8 f   MSVCRT:dll_dllmain.obj
 0001:00003764       capture_previous_context   0000000180004764 f   MSVCRT:gs_report.obj
 0001:00004000       $$000000                   0000000180005000     MSVCRT:guard_dispatch.obj
 0001:00004020       ?dtor$9@?0??createSource@EnvPlugin@environment@common@plugins@monitoring@ibmras@@SAPEAUpullsource@@UagentCoreFunctions@@I@Z@4HA 0000000180005020 f   envplugin.obj
 0001:00004030       ?dtor$2@?0??OnRequestData@EnvPlugin@environment@common@plugins@monitoring@ibmras@@QEAAPEAUmonitordata@@XZ@4HA 0000000180005030 f   envplugin.obj
 0001:0000405e       ?dtor$3@?0??OnRequestData@EnvPlugin@environment@common@plugins@monitoring@ibmras@@QEAAPEAUmonitordata@@XZ@4HA 000000018000505e f   envplugin.obj
 0001:00004070       ?dtor$0@?0??OnRequestData@EnvPlugin@environment@common@plugins@monitoring@ibmras@@QEAAPEAUmonitordata@@XZ@4HA 0000000180005070 f   envplugin.obj
 0001:0000407c       ?dtor$7@?0??OnRequestData@EnvPlugin@environment@common@plugins@monitoring@ibmras@@QEAAPEAUmonitordata@@XZ@4HA 000000018000507c f   envplugin.obj
 0001:000040a5       ?dtor$1@?0??OnRequestData@EnvPlugin@environment@common@plugins@monitoring@ibmras@@QEAAPEAUmonitordata@@XZ@4HA 00000001800050a5 f   envplugin.obj
 0001:000040c0       ?dtor$0@?0??GetWindowsMajorVersion@EnvPlugin@environment@common@plugins@monitoring@ibmras@@CA?BV?$basic_string@DU?$char_traits@D@std@@V?$allocator@D@2@@std@@XZ@4HA 00000001800050c0 f   envplugin.obj
 0001:000040d0       ?dtor$0@?0??GetWindowsBuild@EnvPlugin@environment@common@plugins@monitoring@ibmras@@CA?BV?$basic_string@DU?$char_traits@D@std@@V?$allocator@D@2@@std@@XZ@4HA 00000001800050d0 f   envplugin.obj
 0001:000040e0       ?dtor$0@?0??initStaticInfo@EnvPlugin@environment@common@plugins@monitoring@ibmras@@CAXXZ@4HA 00000001800050e0 f   envplugin.obj
 0001:000040ec       ?dtor$1@?0??initStaticInfo@EnvPlugin@environment@common@plugins@monitoring@ibmras@@CAXXZ@4HA 00000001800050ec f   envplugin.obj
 0001:00004100       ?dtor$1@?0???$?6U?$char_traits@D@std@@@std@@YAAEAV?$basic_ostream@DU?$char_traits@D@std@@@0@AEAV10@PEBD@Z@4HA 0000000180005100 f   envplugin.obj
 0001:00004100       ?dtor$1@?0???$?6U?$char_traits@D@std@@@std@@YAAEAV?$basic_ostream@DU?$char_traits@D@std@@@0@AEAV10@D@Z@4HA 0000000180005100 f   envplugin.obj
 0001:00004100       ?dtor$1@?0???$_Insert_string@DU?$char_traits@D@std@@_K@std@@YAAEAV?$basic_ostream@DU?$char_traits@D@std@@@0@AEAV10@QEBD_K@Z@4HA 0000000180005100 f   envplugin.obj
 0001:0000410c       ?dtor$0@?0???$_Insert_string@DU?$char_traits@D@std@@_K@std@@YAAEAV?$basic_ostream@DU?$char_traits@D@std@@@0@AEAV10@QEBD_K@Z@4HA 000000018000510c f   envplugin.obj
 0001:0000410c       ?dtor$0@?0???$?6U?$char_traits@D@std@@@std@@YAAEAV?$basic_ostream@DU?$char_traits@D@std@@@0@AEAV10@D@Z@4HA 000000018000510c f   envplugin.obj
 0001:0000410c       ?dtor$0@?0???$?6U?$char_traits@D@std@@@std@@YAAEAV?$basic_ostream@DU?$char_traits@D@std@@@0@AEAV10@PEBD@Z@4HA 000000018000510c f   envplugin.obj
 0001:00004118       __scrt_is_nonwritable_in_current_image$filt$0 0000000180005118 f   MSVCRT:utility.obj
 0001:00004130       ?fin$0@?0??dllmain_crt_process_attach@@YAHQEAUHINSTANCE__@@QEAX@Z@4HA 0000000180005130 f   MSVCRT:dll_dllmain.obj
 0001:00004147       ?fin$0@?0??dllmain_crt_process_detach@@YAH_N@Z@4HA 0000000180005147 f   MSVCRT:dll_dllmain.obj
 0001:00004163       ?filt$0@?0??dllmain_dispatch@@YAHQEAUHINSTANCE__@@KQEAX@Z@4HA 0000000180005163 f   MSVCRT:dll_dllmain.obj
 0001:000041a0       ??__FdefaultVersion@?1??GetWindowsMajorVersion@EnvPlugin@environment@common@plugins@monitoring@ibmras@@CA?BV?$basic_string@DU?$char_traits@D@std@@V?$allocator@D@2@@std@@XZ@YAXXZ 00000001800051a0 f   envplugin.obj
 0001:00004210       ??__FdefaultBuild@?1??GetWindowsBuild@EnvPlugin@environment@common@plugins@monitoring@ibmras@@CA?BV?$basic_string@DU?$char_traits@D@std@@V?$allocator@D@2@@std@@XZ@YAXXZ 0000000180005210 f   envplugin.obj
 0002:00000300       ?__scrt_initialize_tss_var@@3P6AHXZEA 0000000180006300     MSVCRT:thread_safe_statics.obj
 0002:00000340       $cppxdata$?__scrt_initialize_thread_safe_statics@@YAHXZ 0000000180006340     MSVCRT:thread_safe_statics.obj
 0002:00000440       GS_ExceptionPointers       0000000180006440     MSVCRT:gs_report.obj
 0002:00000978       $cppxdata$??$_Insert_string@DU?$char_traits@D@std@@_K@std@@YAAEAV?$basic_ostream@DU?$char_traits@D@std@@@0@AEAV10@QEBD_K@Z 0000000180006978     envplugin.obj
 0002:000009a0       $cppxdata$??1_Sentry_base@?$basic_ostream@DU?$char_traits@D@std@@@std@@QEAA@XZ 00000001800069a0     envplugin.obj
 0002:000009c8       $cppxdata$??1sentry@?$basic_ostream@DU?$char_traits@D@std@@@std@@QEAA@XZ 00000001800069c8     envplugin.obj
 0002:000009f0       $cppxdata$??$?6U?$char_traits@D@std@@@std@@YAAEAV?$basic_ostream@DU?$char_traits@D@std@@@0@AEAV10@D@Z 00000001800069f0     envplugin.obj
 0002:00000a18       $cppxdata$??$?6U?$char_traits@D@std@@@std@@YAAEAV?$basic_ostream@DU?$char_traits@D@std@@@0@AEAV10@PEBD@Z 0000000180006a18     envplugin.obj
 0002:00000a40       $cppxdata$?initStaticInfo@EnvPlugin@environment@common@plugins@monitoring@ibmras@@CAXXZ 0000000180006a40     envplugin.obj
 0002:00000a68       $cppxdata$?GetWindowsBuild@EnvPlugin@environment@common@plugins@monitoring@ibmras@@CA?BV?$basic_string@DU?$char_traits@D@std@@V?$allocator@D@2@@std@@XZ 0000000180006a68     envplugin.obj
 0002:00000a90       $cppxdata$?GetWindowsMajorVersion@EnvPlugin@environment@common@plugins@monitoring@ibmras@@CA?BV?$basic_string@DU?$char_traits@D@std@@V?$allocator@D@2@@std@@XZ 0000000180006a90     envplugin.obj
 0002:00000ab8       $cppxdata$?OnRequestData@EnvPlugin@environment@common@plugins@monitoring@ibmras@@QEAAPEAUmonitordata@@XZ 0000000180006ab8     envplugin.obj
 0002:00000ae0       $cppxdata$?createSource@EnvPlugin@environment@common@plugins@monitoring@ibmras@@SAPEAUpullsource@@UagentCoreFunctions@@I@Z 0000000180006ae0     envplugin.obj
 0002:00001280       $unwind$sprintf            0000000180007280     envplugin.obj
 0002:0000128c       $unwind$??_G?$basic_stringbuf@DU?$char_traits@D@std@@V?$allocator@D@2@@std@@UEAAPEAXI@Z 000000018000728c     envplugin.obj
 0002:0000128c       $unwind$_RTC_Initialize    000000018000728c     MSVCRT:initsect.obj
 0002:0000128c       $unwind$_RTC_Terminate     000000018000728c     MSVCRT:initsect.obj
 0002:0000128c       $unwind$??4?$basic_string@DU?$char_traits@D@std@@V?$allocator@D@2@@std@@QEAAAEAV01@$$QEAV01@@Z 000000018000728c     envplugin.obj
 0002:0000128c       $unwind$??_Gbad_array_new_length@std@@UEAAPEAXI@Z 000000018000728c     MSVCRT:throw_bad_alloc.obj
 0002:0000128c       $unwind$??1EnvPlugin@environment@common@plugins@monitoring@ibmras@@UEAA@XZ 000000018000728c     envplugin.obj
 0002:0000128c       $unwind$??_Gexception@std@@UEAAPEAXI@Z 000000018000728c     MSVCRT:throw_bad_alloc.obj
 0002:0000128c       $unwind$??_GEnvPlugin@environment@common@plugins@monitoring@ibmras@@UEAAPEAXI@Z 000000018000728c     envplugin.obj
 0002:0000128c       $unwind$??_Gbad_alloc@std@@UEAAPEAXI@Z 000000018000728c     MSVCRT:throw_bad_alloc.obj
 0002:0000128c       $unwind$?AppendSystemInfo@EnvPlugin@environment@common@plugins@monitoring@ibmras@@AEAAXAEAV?$basic_stringstream@DU?$char_traits@D@std@@V?$allocator@D@2@@std@@@Z 000000018000728c     envplugin.obj
 0002:00001298       $unwind$?createSource@EnvPlugin@environment@common@plugins@monitoring@ibmras@@SAPEAUpullsource@@UagentCoreFunctions@@I@Z 0000000180007298     envplugin.obj
 0002:000012b8       $stateUnwindMap$?createSource@EnvPlugin@environment@common@plugins@monitoring@ibmras@@SAPEAUpullsource@@UagentCoreFunctions@@I@Z 00000001800072b8     envplugin.obj
 0002:000012c0       $ip2state$?createSource@EnvPlugin@environment@common@plugins@monitoring@ibmras@@SAPEAUpullsource@@UagentCoreFunctions@@I@Z 00000001800072c0     envplugin.obj
 0002:000012d8       $unwind$?OnRequestData@EnvPlugin@environment@common@plugins@monitoring@ibmras@@QEAAPEAUmonitordata@@XZ 00000001800072d8     envplugin.obj
 0002:00001304       $stateUnwindMap$?OnRequestData@EnvPlugin@environment@common@plugins@monitoring@ibmras@@QEAAPEAUmonitordata@@XZ 0000000180007304     envplugin.obj
 0002:00001330       $ip2state$?OnRequestData@EnvPlugin@environment@common@plugins@monitoring@ibmras@@QEAAPEAUmonitordata@@XZ 0000000180007330     envplugin.obj
 0002:00001370       $unwind$?fin$0@?0??dllmain_crt_process_detach@@YAH_N@Z@4HA 0000000180007370     MSVCRT:dll_dllmain.obj
 0002:00001370       $unwind$?fin$0@?0??dllmain_crt_process_attach@@YAHQEAUHINSTANCE__@@QEAX@Z@4HA 0000000180007370     MSVCRT:dll_dllmain.obj
 0002:00001370       $unwind$?dtor$2@?0??OnRequestData@EnvPlugin@environment@common@plugins@monitoring@ibmras@@QEAAPEAUmonitordata@@XZ@4HA 0000000180007370     envplugin.obj
 0002:00001370       $unwind$?dtor$7@?0??OnRequestData@EnvPlugin@environment@common@plugins@monitoring@ibmras@@QEAAPEAUmonitordata@@XZ@4HA 0000000180007370     envplugin.obj
 0002:00001378       $unwind$_onexit            0000000180007378     MSVCRT:utility.obj
 0002:00001378       $unwind$??0bad_alloc@std@@QEAA@AEBV01@@Z 0000000180007378     MSVCRT:throw_bad_alloc.obj
 0002:00001378       $unwind$??2@YAPEAX_K@Z     0000000180007378     MSVCRT:new_scalar.obj
 0002:00001378       $unwind$__scrt_release_startup_lock 0000000180007378     MSVCRT:utility.obj
 0002:00001378       $unwind$_Init_thread_wait  0000000180007378     MSVCRT:thread_safe_statics.obj
 0002:00001378       $unwind$_Init_thread_footer 0000000180007378     MSVCRT:thread_safe_statics.obj
 0002:00001378       $unwind$_Init_thread_abort 0000000180007378     MSVCRT:thread_safe_statics.obj
 0002:00001378       $unwind$_Init_thread_header 0000000180007378     MSVCRT:thread_safe_statics.obj
 0002:00001378       $unwind$??_D?$basic_stringstream@DU?$char_traits@D@std@@V?$allocator@D@2@@std@@QEAAXXZ 0000000180007378     envplugin.obj
 0002:00001378       $unwind$??1?$basic_stringbuf@DU?$char_traits@D@std@@V?$allocator@D@2@@std@@UEAA@XZ 0000000180007378     envplugin.obj
 0002:00001378       $unwind$??0exception@std@@QEAA@AEBV01@@Z 0000000180007378     MSVCRT:throw_bad_alloc.obj
 0002:00001378       $unwind$__raise_securityfailure 0000000180007378     MSVCRT:gs_report.obj
 0002:00001378       $unwind$??_Gtype_info@@UEAAPEAXI@Z 0000000180007378     MSVCRT:std_type_info_static.obj
 0002:00001378       $unwind$__scrt_initialize_crt 0000000180007378     MSVCRT:utility.obj
 0002:00001378       $unwind$__scrt_uninitialize_crt 0000000180007378     MSVCRT:utility.obj
 0002:00001378       $unwind$??1?$basic_string@DU?$char_traits@D@std@@V?$allocator@D@2@@std@@QEAA@XZ 0000000180007378     envplugin.obj
 0002:00001378       $unwind$??0bad_array_new_length@std@@QEAA@AEBV01@@Z 0000000180007378     MSVCRT:throw_bad_alloc.obj
 0002:00001380       $unwind$?pullCompleteWrapper@environment@common@plugins@monitoring@ibmras@@YAXPEAUmonitordata@@@Z 0000000180007380     envplugin.obj
 0002:00001388       $unwind$ibmras_monitoring_registerPullSource 0000000180007388     envplugin.obj
 0002:000013a4       $unwind$__scrt_acquire_startup_lock 00000001800073a4     MSVCRT:utility.obj
 0002:000013a4       $unwind$__scrt_dllmain_crt_thread_detach 00000001800073a4     MSVCRT:utility.obj
 0002:000013a4       $unwind$__scrt_dllmain_crt_thread_attach 00000001800073a4     MSVCRT:utility.obj
 0002:000013a4       $unwind$??__FdefaultVersion@?1??GetWindowsMajorVersion@EnvPlugin@environment@common@plugins@monitoring@ibmras@@CA?BV?$basic_string@DU?$char_traits@D@std@@V?$allocator@D@2@@std@@XZ@YAXXZ 00000001800073a4     envplugin.obj
 0002:000013a4       $unwind$__scrt_dllmain_uninitialize_critical 00000001800073a4     MSVCRT:utility.obj
 0002:000013a4       $unwind$DllMain            00000001800073a4     MSVCRT:dll_dllmain_stub.obj
 0002:000013a4       $unwind$atexit             00000001800073a4     MSVCRT:utility.obj
 0002:000013a4       $unwind$?_Xlen@?$basic_string@DU?$char_traits@D@std@@V?$allocator@D@2@@std@@SAXXZ 00000001800073a4     envplugin.obj
 0002:000013a4       $unwind$__scrt_dllmain_uninitialize_c 00000001800073a4     MSVCRT:utility.obj
 0002:000013a4       $unwind$_Init_thread_notify 00000001800073a4     MSVCRT:thread_safe_statics.obj
 0002:000013a4       $unwind$__scrt_dllmain_after_initialize_c 00000001800073a4     MSVCRT:utility.obj
 0002:000013a4       $unwind$__scrt_initialize_default_local_stdio_options 00000001800073a4     MSVCRT:default_local_stdio_options.obj
 0002:000013a4       $unwind$ibmras_monitoring_plugin_start 00000001800073a4     envplugin.obj
 0002:000013a4       $unwind$ibmras_monitoring_plugin_stop 00000001800073a4     envplugin.obj
 0002:000013a4       $unwind$??__FdefaultBuild@?1??GetWindowsBuild@EnvPlugin@environment@common@plugins@monitoring@ibmras@@CA?BV?$basic_string@DU?$char_traits@D@std@@V?$allocator@D@2@@std@@XZ@YAXXZ 00000001800073a4     envplugin.obj
 0002:000013a4       $unwind$?dllmain_crt_dispatch@@YAHQEAUHINSTANCE__@@KQEAX@Z 00000001800073a4     MSVCRT:dll_dllmain.obj
 0002:000013a4       $unwind$__GSHandlerCheck   00000001800073a4     MSVCRT:gshandler.obj
 0002:000013a4       $unwind$?__scrt_uninitialize_thread_safe_statics@@YAXXZ 00000001800073a4     MSVCRT:thread_safe_statics.obj
 0002:000013a4       $unwind$__scrt_dllmain_before_initialize_c 00000001800073a4     MSVCRT:utility.obj
 0002:000013ac       $unwind$?GetWindowsMajorVersion@EnvPlugin@environment@common@plugins@monitoring@ibmras@@CA?BV?$basic_string@DU?$char_traits@D@std@@V?$allocator@D@2@@std@@XZ 00000001800073ac     envplugin.obj
 0002:000013d0       $stateUnwindMap$?GetWindowsMajorVersion@EnvPlugin@environment@common@plugins@monitoring@ibmras@@CA?BV?$basic_string@DU?$char_traits@D@std@@V?$allocator@D@2@@std@@XZ 00000001800073d0     envplugin.obj
 0002:000013d8       $ip2state$?GetWindowsMajorVersion@EnvPlugin@environment@common@plugins@monitoring@ibmras@@CA?BV?$basic_string@DU?$char_traits@D@std@@V?$allocator@D@2@@std@@XZ 00000001800073d8     envplugin.obj
 0002:000013e8       $unwind$?GetWindowsBuild@EnvPlugin@environment@common@plugins@monitoring@ibmras@@CA?BV?$basic_string@DU?$char_traits@D@std@@V?$allocator@D@2@@std@@XZ 00000001800073e8     envplugin.obj
 0002:00001410       $stateUnwindMap$?GetWindowsBuild@EnvPlugin@environment@common@plugins@monitoring@ibmras@@CA?BV?$basic_string@DU?$char_traits@D@std@@V?$allocator@D@2@@std@@XZ 0000000180007410     envplugin.obj
 0002:00001418       $ip2state$?GetWindowsBuild@EnvPlugin@environment@common@plugins@monitoring@ibmras@@CA?BV?$basic_string@DU?$char_traits@D@std@@V?$allocator@D@2@@std@@XZ 0000000180007418     envplugin.obj
 0002:00001428       $unwind$?initStaticInfo@EnvPlugin@environment@common@plugins@monitoring@ibmras@@CAXXZ 0000000180007428     envplugin.obj
 0002:00001440       $stateUnwindMap$?initStaticInfo@EnvPlugin@environment@common@plugins@monitoring@ibmras@@CAXXZ 0000000180007440     envplugin.obj
 0002:00001450       $ip2state$?initStaticInfo@EnvPlugin@environment@common@plugins@monitoring@ibmras@@CAXXZ 0000000180007450     envplugin.obj
 0002:00001478       $unwind$??0?$basic_string@DU?$char_traits@D@std@@V?$allocator@D@2@@std@@QEAA@AEBV01@@Z 0000000180007478     envplugin.obj
 0002:0000148c       $unwind$?seekpos@?$basic_stringbuf@DU?$char_traits@D@std@@V?$allocator@D@2@@std@@MEAA?AV?$fpos@U_Mbstatet@@@2@V32@H@Z 000000018000748c     envplugin.obj
 0002:000014a0       $unwind$?seekoff@?$basic_stringbuf@DU?$char_traits@D@std@@V?$allocator@D@2@@std@@MEAA?AV?$fpos@U_Mbstatet@@@2@_JHH@Z 00000001800074a0     envplugin.obj
 0002:000014b8       $unwind$?overflow@?$basic_stringbuf@DU?$char_traits@D@std@@V?$allocator@D@2@@std@@MEAAHH@Z 00000001800074b8     envplugin.obj
 0002:000014d4       $unwind$_DllMainCRTStartup 00000001800074d4     MSVCRT:dll_dllmain.obj
 0002:000014d4       $unwind$??_G?$basic_stringstream@DU?$char_traits@D@std@@V?$allocator@D@2@@std@@UEAAPEAXI@Z 00000001800074d4     envplugin.obj
 0002:000014e4       $unwind$?assign@?$basic_string@DU?$char_traits@D@std@@V?$allocator@D@2@@std@@QEAAAEAV12@QEBD_K@Z 00000001800074e4     envplugin.obj
 0002:000014f8       $chain$0$?assign@?$basic_string@DU?$char_traits@D@std@@V?$allocator@D@2@@std@@QEAAAEAV12@QEBD_K@Z 00000001800074f8     envplugin.obj
 0002:0000150c       $chain$1$?assign@?$basic_string@DU?$char_traits@D@std@@V?$allocator@D@2@@std@@QEAAAEAV12@QEBD_K@Z 000000018000750c     envplugin.obj
 0002:0000150c       $chain$3$?assign@?$basic_string@DU?$char_traits@D@std@@V?$allocator@D@2@@std@@QEAAAEAV12@QEBD_K@Z 000000018000750c     envplugin.obj
 0002:0000151c       $chain$2$?assign@?$basic_string@DU?$char_traits@D@std@@V?$allocator@D@2@@std@@QEAAAEAV12@QEBD_K@Z 000000018000751c     envplugin.obj
 0002:00001530       $unwind$??$?6U?$char_traits@D@std@@@std@@YAAEAV?$basic_ostream@DU?$char_traits@D@std@@@0@AEAV10@PEBD@Z 0000000180007530     envplugin.obj
 0002:00001550       $stateUnwindMap$??$?6U?$char_traits@D@std@@@std@@YAAEAV?$basic_ostream@DU?$char_traits@D@std@@@0@AEAV10@PEBD@Z 0000000180007550     envplugin.obj
 0002:00001550       $stateUnwindMap$??$_Insert_string@DU?$char_traits@D@std@@_K@std@@YAAEAV?$basic_ostream@DU?$char_traits@D@std@@@0@AEAV10@QEBD_K@Z 0000000180007550     envplugin.obj
 0002:00001550       $stateUnwindMap$??$?6U?$char_traits@D@std@@@std@@YAAEAV?$basic_ostream@DU?$char_traits@D@std@@@0@AEAV10@D@Z 0000000180007550     envplugin.obj
 0002:00001570       $ip2state$??$?6U?$char_traits@D@std@@@std@@YAAEAV?$basic_ostream@DU?$char_traits@D@std@@@0@AEAV10@PEBD@Z 0000000180007570     envplugin.obj
 0002:000015a0       $unwind$??$?6U?$char_traits@D@std@@@std@@YAAEAV?$basic_ostream@DU?$char_traits@D@std@@@0@AEAV10@D@Z 00000001800075a0     envplugin.obj
 0002:000015b8       $ip2state$??$?6U?$char_traits@D@std@@@std@@YAAEAV?$basic_ostream@DU?$char_traits@D@std@@@0@AEAV10@D@Z 00000001800075b8     envplugin.obj
 0002:000015e8       $unwind$??$_Reallocate_grow_by@V<lambda_65e615be2a453ca0576c979606f46740>@@PEBD_K@?$basic_string@DU?$char_traits@D@std@@V?$allocator@D@2@@std@@QEAAAEAV01@_KV<lambda_65e615be2a453ca0576c979606f46740>@@PEBD_K@Z 00000001800075e8     envplugin.obj
 0002:000015f4       $chain$3$??$_Reallocate_grow_by@V<lambda_65e615be2a453ca0576c979606f46740>@@PEBD_K@?$basic_string@DU?$char_traits@D@std@@V?$allocator@D@2@@std@@QEAAAEAV01@_KV<lambda_65e615be2a453ca0576c979606f46740>@@PEBD_K@Z 00000001800075f4     envplugin.obj
 0002:00001614       $chain$4$??$_Reallocate_grow_by@V<lambda_65e615be2a453ca0576c979606f46740>@@PEBD_K@?$basic_string@DU?$char_traits@D@std@@V?$allocator@D@2@@std@@QEAAAEAV01@_KV<lambda_65e615be2a453ca0576c979606f46740>@@PEBD_K@Z 0000000180007614     envplugin.obj
 0002:00001624       $unwind$??1sentry@?$basic_ostream@DU?$char_traits@D@std@@@std@@QEAA@XZ 0000000180007624     envplugin.obj
 0002:00001634       $stateUnwindMap$??1sentry@?$basic_ostream@DU?$char_traits@D@std@@@std@@QEAA@XZ 0000000180007634     envplugin.obj
 0002:00001634       $stateUnwindMap$?__scrt_initialize_thread_safe_statics@@YAHXZ 0000000180007634     MSVCRT:thread_safe_statics.obj
 0002:00001640       $ip2state$??1sentry@?$basic_ostream@DU?$char_traits@D@std@@@std@@QEAA@XZ 0000000180007640     envplugin.obj
 0002:00001650       $unwind$??1_Sentry_base@?$basic_ostream@DU?$char_traits@D@std@@@std@@QEAA@XZ 0000000180007650     envplugin.obj
 0002:00001660       $ip2state$??1_Sentry_base@?$basic_ostream@DU?$char_traits@D@std@@@std@@QEAA@XZ 0000000180007660     envplugin.obj
 0002:00001668       $unwind$??$_Insert_string@DU?$char_traits@D@std@@_K@std@@YAAEAV?$basic_ostream@DU?$char_traits@D@std@@@0@AEAV10@QEBD_K@Z 0000000180007668     envplugin.obj
 0002:00001688       $ip2state$??$_Insert_string@DU?$char_traits@D@std@@_K@std@@YAAEAV?$basic_ostream@DU?$char_traits@D@std@@@0@AEAV10@QEBD_K@Z 0000000180007688     envplugin.obj
 0002:000016b8       $xdatasym                  00000001800076b8     MSVCRT:amdsecgs.obj
 0002:000016bc       $unwind$?__scrt_initialize_thread_safe_statics@@YAHXZ 00000001800076bc     MSVCRT:thread_safe_statics.obj
 0002:000016d8       $ip2state$?__scrt_initialize_thread_safe_statics@@YAHXZ 00000001800076d8     MSVCRT:thread_safe_statics.obj
 0002:000016e0       $unwind$__scrt_is_nonwritable_in_current_image 00000001800076e0     MSVCRT:utility.obj
 0002:00001700       $unwind$__scrt_is_nonwritable_in_current_image$filt$0 0000000180007700     MSVCRT:utility.obj
 0002:00001708       $unwind$__scrt_initialize_onexit_tables 0000000180007708     MSVCRT:utility.obj
 0002:00001710       $unwind$__scrt_dllmain_exception_filter 0000000180007710     MSVCRT:utility.obj
 0002:00001724       $unwind$?dllmain_crt_process_attach@@YAHQEAUHINSTANCE__@@QEAX@Z 0000000180007724     MSVCRT:dll_dllmain.obj
 0002:00001760       $unwind$?dllmain_crt_process_detach@@YAH_N@Z 0000000180007760     MSVCRT:dll_dllmain.obj
 0002:00001798       $unwind$?dllmain_dispatch@@YAHQEAUHINSTANCE__@@KQEAX@Z 0000000180007798     MSVCRT:dll_dllmain.obj
 0002:000017c0       $unwind$?filt$0@?0??dllmain_dispatch@@YAHQEAUHINSTANCE__@@KQEAX@Z@4HA 00000001800077c0     MSVCRT:dll_dllmain.obj
 0002:000017c8       $unwind$__report_gsfailure 00000001800077c8     MSVCRT:gs_report.obj
 0002:000017d0       $unwind$capture_previous_context 00000001800077d0     MSVCRT:gs_report.obj
 0002:000017dc       $unwind$__scrt_fastfail    00000001800077dc     MSVCRT:utility_desktop.obj
 0002:000017ec       $unwind$?__scrt_throw_std_bad_array_new_length@@YAXXZ 00000001800077ec     MSVCRT:throw_bad_alloc.obj
 0002:000017ec       $unwind$?__scrt_throw_std_bad_alloc@@YAXXZ 00000001800077ec     MSVCRT:throw_bad_alloc.obj
 0002:000017f4       $unwind$__isa_available_init 00000001800077f4     MSVCRT:cpu_disp.obj
 0002:00001808       $unwind$__security_init_cookie 0000000180007808     MSVCRT:gs_support.obj
 0002:00001818       $xdatasym                  0000000180007818     MSVCRT:guard_dispatch.obj
 0002:0000181c       $unwind$__GSHandlerCheckCommon 000000018000781c     MSVCRT:gshandler.obj
 0002:00001824       $unwind$__GSHandlerCheck_EH 0000000180007824     MSVCRT:gshandlereh.obj
 0002:00001930       .edata                     0000000180007930     envplugin.exp
 0002:00001958       rgpv                       0000000180007958     envplugin.exp
 0002:0000196c       rgszName                   000000018000796c     envplugin.exp
 0002:00001980       rgwOrd                     0000000180007980     envplugin.exp
 0002:0000198a       szName                     000000018000798a     envplugin.exp
 0002:00001998       $N00001                    0000000180007998     envplugin.exp
 0002:000019b5       $N00002                    00000001800079b5     envplugin.exp
 0002:000019d3       $N00003                    00000001800079d3     envplugin.exp
 0002:000019f2       $N00004                    00000001800079f2     envplugin.exp
 0002:00001a10       $N00005                    0000000180007a10     envplugin.exp
 0002:00001df0       .idata$6                   0000000180007df0     Ws2_32:WS2_32.dll
 0002:00001e6a       .idata$6                   0000000180007e6a     kernel32:KERNEL32.dll
 0002:00001fa6       .idata$6                   0000000180007fa6     node:node.exe
 0002:00002434       .idata$6                   0000000180008434     msvcprt:MSVCP140.dll
 0002:000024f4       .idata$6                   00000001800084f4     vcruntime:VCRUNTIME140.dll
 0002:0000264e       .idata$6                   000000018000864e     ucrt:api-ms-win-crt-string-l1-1-0.dll
 0002:00002670       .idata$6                   0000000180008670     ucrt:api-ms-win-crt-stdio-l1-1-0.dll
 0002:00002690       .idata$6                   0000000180008690     ucrt:api-ms-win-crt-environment-l1-1-0.dll
 0002:000026b6       .idata$6                   00000001800086b6     ucrt:api-ms-win-crt-runtime-l1-1-0.dll
 0002:000026d8       .idata$6                   00000001800086d8     ucrt:api-ms-win-crt-heap-l1-1-0.dll
 0003:000000e0       ?_Tss_mutex@@3U_RTL_CRITICAL_SECTION@@A 00000001800090e0     MSVCRT:thread_safe_statics.obj
 0003:00000108       ?_Tss_cv@@3U_RTL_CONDITION_VARIABLE@@A 0000000180009108     MSVCRT:thread_safe_statics.obj
 0003:00000110       ?_Tss_event@@3PEAXEA       0000000180009110     MSVCRT:thread_safe_statics.obj
 0003:00000118       ?encoded_sleep_condition_variable_cs@@3P6AHPEAU_RTL_CONDITION_VARIABLE@@PEAU_RTL_CRITICAL_SECTION@@K@ZEA 0000000180009118     MSVCRT:thread_safe_statics.obj
 0003:00000120       ?encoded_wake_all_condition_variable@@3P6AXPEAU_RTL_CONDITION_VARIABLE@@@ZEA 0000000180009120     MSVCRT:thread_safe_statics.obj
 0003:00000138       ?is_initialized_as_dll@@3_NA 0000000180009138     MSVCRT:utility.obj
 0003:00000139       ?module_local_atexit_table_initialized@@3_NA 0000000180009139     MSVCRT:utility.obj
 0003:00000140       ?module_local_atexit_table@@3U_onexit_table_t@@A 0000000180009140     MSVCRT:utility.obj
 0003:00000158       ?module_local_at_quick_exit_table@@3U_onexit_table_t@@A 0000000180009158     MSVCRT:utility.obj
 0003:00000170       ?__proc_attached@@3HA      0000000180009170     MSVCRT:dll_dllmain.obj
 0003:00000180       GS_ExceptionRecord         0000000180009180     MSVCRT:gs_report.obj
 0003:00000220       GS_ContextRecord           0000000180009220     MSVCRT:gs_report.obj
 0003:00000740       ?$TSS0@?1??GetWindowsMajorVersion@EnvPlugin@environment@common@plugins@monitoring@ibmras@@CA?BV?$basic_string@DU?$char_traits@D@std@@V?$allocator@D@2@@std@@XZ@4HA 0000000180009740     envplugin.obj
 0003:00000750       ?defaultVersion@?1??GetWindowsMajorVersion@EnvPlugin@environment@common@plugins@monitoring@ibmras@@CA?BV?$basic_string@DU?$char_traits@D@std@@V?$allocator@D@2@@std@@XZ@4V89@B 0000000180009750     envplugin.obj
 0003:00000770       ?$TSS0@?1??GetWindowsBuild@EnvPlugin@environment@common@plugins@monitoring@ibmras@@CA?BV?$basic_string@DU?$char_traits@D@std@@V?$allocator@D@2@@std@@XZ@4HA 0000000180009770     envplugin.obj
 0003:00000778       ?defaultBuild@?1??GetWindowsBuild@EnvPlugin@environment@common@plugins@monitoring@ibmras@@CA?BV?$basic_string@DU?$char_traits@D@std@@V?$allocator@D@2@@std@@XZ@4V89@B 0000000180009778     envplugin.obj
 0004:00000000       $pdata$sprintf             000000018000a000     envplugin.obj
 0004:0000000c       $pdata$??_GEnvPlugin@environment@common@plugins@monitoring@ibmras@@UEAAPEAXI@Z 000000018000a00c     envplugin.obj
 0004:00000018       $pdata$??1EnvPlugin@environment@common@plugins@monitoring@ibmras@@UEAA@XZ 000000018000a018     envplugin.obj
 0004:00000024       $pdata$?createSource@EnvPlugin@environment@common@plugins@monitoring@ibmras@@SAPEAUpullsource@@UagentCoreFunctions@@I@Z 000000018000a024     envplugin.obj
 0004:00000030       $pdata$?AppendSystemInfo@EnvPlugin@environment@common@plugins@monitoring@ibmras@@AEAAXAEAV?$basic_stringstream@DU?$char_traits@D@std@@V?$allocator@D@2@@std@@@Z 000000018000a030     envplugin.obj
 0004:0000003c       $pdata$?OnRequestData@EnvPlugin@environment@common@plugins@monitoring@ibmras@@QEAAPEAUmonitordata@@XZ 000000018000a03c     envplugin.obj
 0004:00000048       $pdata$??_D?$basic_stringstream@DU?$char_traits@D@std@@V?$allocator@D@2@@std@@QEAAXXZ 000000018000a048     envplugin.obj
 0004:00000054       $pdata$?pullCompleteWrapper@environment@common@plugins@monitoring@ibmras@@YAXPEAUmonitordata@@@Z 000000018000a054     envplugin.obj
 0004:00000060       $pdata$ibmras_monitoring_registerPullSource 000000018000a060     envplugin.obj
 0004:0000006c       $pdata$ibmras_monitoring_plugin_start 000000018000a06c     envplugin.obj
 0004:00000078       $pdata$ibmras_monitoring_plugin_stop 000000018000a078     envplugin.obj
 0004:00000084       $pdata$?GetWindowsMajorVersion@EnvPlugin@environment@common@plugins@monitoring@ibmras@@CA?BV?$basic_string@DU?$char_traits@D@std@@V?$allocator@D@2@@std@@XZ 000000018000a084     envplugin.obj
 0004:00000090       $pdata$?GetWindowsBuild@EnvPlugin@environment@common@plugins@monitoring@ibmras@@CA?BV?$basic_string@DU?$char_traits@D@std@@V?$allocator@D@2@@std@@XZ 000000018000a090     envplugin.obj
 0004:0000009c       $pdata$?initStaticInfo@EnvPlugin@environment@common@plugins@monitoring@ibmras@@CAXXZ 000000018000a09c     envplugin.obj
 0004:000000a8       $pdata$??1?$basic_string@DU?$char_traits@D@std@@V?$allocator@D@2@@std@@QEAA@XZ 000000018000a0a8     envplugin.obj
 0004:000000b4       $pdata$??4?$basic_string@DU?$char_traits@D@std@@V?$allocator@D@2@@std@@QEAAAEAV01@$$QEAV01@@Z 000000018000a0b4     envplugin.obj
 0004:000000c0       $pdata$??0?$basic_string@DU?$char_traits@D@std@@V?$allocator@D@2@@std@@QEAA@AEBV01@@Z 000000018000a0c0     envplugin.obj
 0004:000000cc       $pdata$?seekpos@?$basic_stringbuf@DU?$char_traits@D@std@@V?$allocator@D@2@@std@@MEAA?AV?$fpos@U_Mbstatet@@@2@V32@H@Z 000000018000a0cc     envplugin.obj
 0004:000000d8       $pdata$?seekoff@?$basic_stringbuf@DU?$char_traits@D@std@@V?$allocator@D@2@@std@@MEAA?AV?$fpos@U_Mbstatet@@@2@_JHH@Z 000000018000a0d8     envplugin.obj
 0004:000000e4       $pdata$?overflow@?$basic_stringbuf@DU?$char_traits@D@std@@V?$allocator@D@2@@std@@MEAAHH@Z 000000018000a0e4     envplugin.obj
 0004:000000f0       $pdata$??1?$basic_stringbuf@DU?$char_traits@D@std@@V?$allocator@D@2@@std@@UEAA@XZ 000000018000a0f0     envplugin.obj
 0004:000000fc       $pdata$??_G?$basic_stringstream@DU?$char_traits@D@std@@V?$allocator@D@2@@std@@UEAAPEAXI@Z 000000018000a0fc     envplugin.obj
 0004:00000108       $pdata$??_G?$basic_stringbuf@DU?$char_traits@D@std@@V?$allocator@D@2@@std@@UEAAPEAXI@Z 000000018000a108     envplugin.obj
 0004:00000114       $pdata$?assign@?$basic_string@DU?$char_traits@D@std@@V?$allocator@D@2@@std@@QEAAAEAV12@QEBD_K@Z 000000018000a114     envplugin.obj
 0004:00000120       $pdata$0$?assign@?$basic_string@DU?$char_traits@D@std@@V?$allocator@D@2@@std@@QEAAAEAV12@QEBD_K@Z 000000018000a120     envplugin.obj
 0004:0000012c       $pdata$1$?assign@?$basic_string@DU?$char_traits@D@std@@V?$allocator@D@2@@std@@QEAAAEAV12@QEBD_K@Z 000000018000a12c     envplugin.obj
 0004:00000138       $pdata$2$?assign@?$basic_string@DU?$char_traits@D@std@@V?$allocator@D@2@@std@@QEAAAEAV12@QEBD_K@Z 000000018000a138     envplugin.obj
 0004:00000144       $pdata$3$?assign@?$basic_string@DU?$char_traits@D@std@@V?$allocator@D@2@@std@@QEAAAEAV12@QEBD_K@Z 000000018000a144     envplugin.obj
 0004:00000150       $pdata$??$?6U?$char_traits@D@std@@@std@@YAAEAV?$basic_ostream@DU?$char_traits@D@std@@@0@AEAV10@PEBD@Z 000000018000a150     envplugin.obj
 0004:0000015c       $pdata$??$?6U?$char_traits@D@std@@@std@@YAAEAV?$basic_ostream@DU?$char_traits@D@std@@@0@AEAV10@D@Z 000000018000a15c     envplugin.obj
 0004:00000168       $pdata$??$_Reallocate_grow_by@V<lambda_65e615be2a453ca0576c979606f46740>@@PEBD_K@?$basic_string@DU?$char_traits@D@std@@V?$allocator@D@2@@std@@QEAAAEAV01@_KV<lambda_65e615be2a453ca0576c979606f46740>@@PEBD_K@Z 000000018000a168     envplugin.obj
 0004:00000174       $pdata$3$??$_Reallocate_grow_by@V<lambda_65e615be2a453ca0576c979606f46740>@@PEBD_K@?$basic_string@DU?$char_traits@D@std@@V?$allocator@D@2@@std@@QEAAAEAV01@_KV<lambda_65e615be2a453ca0576c979606f46740>@@PEBD_K@Z 000000018000a174     envplugin.obj
 0004:00000180       $pdata$4$??$_Reallocate_grow_by@V<lambda_65e615be2a453ca0576c979606f46740>@@PEBD_K@?$basic_string@DU?$char_traits@D@std@@V?$allocator@D@2@@std@@QEAAAEAV01@_KV<lambda_65e615be2a453ca0576c979606f46740>@@PEBD_K@Z 000000018000a180     envplugin.obj
 0004:0000018c       $pdata$??1sentry@?$basic_ostream@DU?$char_traits@D@std@@@std@@QEAA@XZ 000000018000a18c     envplugin.obj
 0004:00000198       $pdata$?_Xlen@?$basic_string@DU?$char_traits@D@std@@V?$allocator@D@2@@std@@SAXXZ 000000018000a198     envplugin.obj
 0004:000001a4       $pdata$??1_Sentry_base@?$basic_ostream@DU?$char_traits@D@std@@@std@@QEAA@XZ 000000018000a1a4     envplugin.obj
 0004:000001b0       $pdata$??$_Insert_string@DU?$char_traits@D@std@@_K@std@@YAAEAV?$basic_ostream@DU?$char_traits@D@std@@@0@AEAV10@QEBD_K@Z 000000018000a1b0     envplugin.obj
 0004:000001c8       $pdata$?__scrt_initialize_thread_safe_statics@@YAHXZ 000000018000a1c8     MSVCRT:thread_safe_statics.obj
 0004:000001d4       $pdata$?__scrt_uninitialize_thread_safe_statics@@YAXXZ 000000018000a1d4     MSVCRT:thread_safe_statics.obj
 0004:000001e0       $pdata$_Init_thread_abort  000000018000a1e0     MSVCRT:thread_safe_statics.obj
 0004:000001ec       $pdata$_Init_thread_footer 000000018000a1ec     MSVCRT:thread_safe_statics.obj
 0004:000001f8       $pdata$_Init_thread_header 000000018000a1f8     MSVCRT:thread_safe_statics.obj
 0004:00000204       $pdata$_Init_thread_notify 000000018000a204     MSVCRT:thread_safe_statics.obj
 0004:00000210       $pdata$_Init_thread_wait   000000018000a210     MSVCRT:thread_safe_statics.obj
 0004:0000021c       $pdata$??2@YAPEAX_K@Z      000000018000a21c     MSVCRT:new_scalar.obj
 0004:00000228       $pdata$__scrt_acquire_startup_lock 000000018000a228     MSVCRT:utility.obj
 0004:00000234       $pdata$__scrt_dllmain_after_initialize_c 000000018000a234     MSVCRT:utility.obj
 0004:00000240       $pdata$__scrt_dllmain_before_initialize_c 000000018000a240     MSVCRT:utility.obj
 0004:0000024c       $pdata$__scrt_dllmain_crt_thread_attach 000000018000a24c     MSVCRT:utility.obj
 0004:00000258       $pdata$__scrt_dllmain_crt_thread_detach 000000018000a258     MSVCRT:utility.obj
 0004:00000264       $pdata$__scrt_dllmain_exception_filter 000000018000a264     MSVCRT:utility.obj
 0004:00000270       $pdata$__scrt_dllmain_uninitialize_c 000000018000a270     MSVCRT:utility.obj
 0004:0000027c       $pdata$__scrt_dllmain_uninitialize_critical 000000018000a27c     MSVCRT:utility.obj
 0004:00000288       $pdata$__scrt_initialize_crt 000000018000a288     MSVCRT:utility.obj
 0004:00000294       $pdata$__scrt_initialize_onexit_tables 000000018000a294     MSVCRT:utility.obj
 0004:000002a0       $pdata$__scrt_is_nonwritable_in_current_image 000000018000a2a0     MSVCRT:utility.obj
 0004:000002ac       $pdata$__scrt_release_startup_lock 000000018000a2ac     MSVCRT:utility.obj
 0004:000002b8       $pdata$__scrt_uninitialize_crt 000000018000a2b8     MSVCRT:utility.obj
 0004:000002c4       $pdata$_onexit             000000018000a2c4     MSVCRT:utility.obj
 0004:000002d0       $pdata$atexit              000000018000a2d0     MSVCRT:utility.obj
 0004:000002dc       $pdata$?dllmain_crt_dispatch@@YAHQEAUHINSTANCE__@@KQEAX@Z 000000018000a2dc     MSVCRT:dll_dllmain.obj
 0004:000002e8       $pdata$?dllmain_crt_process_attach@@YAHQEAUHINSTANCE__@@QEAX@Z 000000018000a2e8     MSVCRT:dll_dllmain.obj
 0004:000002f4       $pdata$?dllmain_crt_process_detach@@YAH_N@Z 000000018000a2f4     MSVCRT:dll_dllmain.obj
 0004:00000300       $pdata$?dllmain_dispatch@@YAHQEAUHINSTANCE__@@KQEAX@Z 000000018000a300     MSVCRT:dll_dllmain.obj
 0004:0000030c       $pdata$_DllMainCRTStartup  000000018000a30c     MSVCRT:dll_dllmain.obj
 0004:00000318       $pdata$__raise_securityfailure 000000018000a318     MSVCRT:gs_report.obj
 0004:00000324       $pdata$__report_gsfailure  000000018000a324     MSVCRT:gs_report.obj
 0004:00000330       $pdata$capture_previous_context 000000018000a330     MSVCRT:gs_report.obj
 0004:0000033c       $pdata$__scrt_fastfail     000000018000a33c     MSVCRT:utility_desktop.obj
 0004:00000348       $pdata$??0bad_alloc@std@@QEAA@AEBV01@@Z 000000018000a348     MSVCRT:throw_bad_alloc.obj
 0004:00000354       $pdata$??0bad_array_new_length@std@@QEAA@AEBV01@@Z 000000018000a354     MSVCRT:throw_bad_alloc.obj
 0004:00000360       $pdata$??0exception@std@@QEAA@AEBV01@@Z 000000018000a360     MSVCRT:throw_bad_alloc.obj
 0004:0000036c       $pdata$??_Gbad_alloc@std@@UEAAPEAXI@Z 000000018000a36c     MSVCRT:throw_bad_alloc.obj
 0004:0000036c       $pdata$??_Gbad_array_new_length@std@@UEAAPEAXI@Z 000000018000a36c     MSVCRT:throw_bad_alloc.obj
 0004:0000036c       $pdata$??_Gexception@std@@UEAAPEAXI@Z 000000018000a36c     MSVCRT:throw_bad_alloc.obj
 0004:00000378       $pdata$?__scrt_throw_std_bad_alloc@@YAXXZ 000000018000a378     MSVCRT:throw_bad_alloc.obj
 0004:00000384       $pdata$?__scrt_throw_std_bad_array_new_length@@YAXXZ 000000018000a384     MSVCRT:throw_bad_alloc.obj
 0004:00000390       $pdata$__isa_available_init 000000018000a390     MSVCRT:cpu_disp.obj
 0004:0000039c       $pdata$__security_init_cookie 000000018000a39c     MSVCRT:gs_support.obj
 0004:000003a8       $pdata$DllMain             000000018000a3a8     MSVCRT:dll_dllmain_stub.obj
 0004:000003b4       $pdata$__scrt_initialize_default_local_stdio_options 000000018000a3b4     MSVCRT:default_local_stdio_options.obj
 0004:000003c0       $pdata$_RTC_Initialize     000000018000a3c0     MSVCRT:initsect.obj
 0004:000003cc       $pdata$_RTC_Terminate      000000018000a3cc     MSVCRT:initsect.obj
 0004:000003d8       $pdata$??_Gtype_info@@UEAAPEAXI@Z 000000018000a3d8     MSVCRT:std_type_info_static.obj
 0004:000003e4       $pdata$__GSHandlerCheck    000000018000a3e4     MSVCRT:gshandler.obj
 0004:000003f0       $pdata$__GSHandlerCheckCommon 000000018000a3f0     MSVCRT:gshandler.obj
 0004:000003fc       $pdata$__GSHandlerCheck_EH 000000018000a3fc     MSVCRT:gshandlereh.obj
 0004:00000414       $pdata$?dtor$2@?0??OnRequestData@EnvPlugin@environment@common@plugins@monitoring@ibmras@@QEAAPEAUmonitordata@@XZ@4HA 000000018000a414     envplugin.obj
 0004:00000420       $pdata$?dtor$7@?0??OnRequestData@EnvPlugin@environment@common@plugins@monitoring@ibmras@@QEAAPEAUmonitordata@@XZ@4HA 000000018000a420     envplugin.obj
 0004:0000042c       $pdata$__scrt_is_nonwritable_in_current_image$filt$0 000000018000a42c     MSVCRT:utility.obj
 0004:00000438       $pdata$?fin$0@?0??dllmain_crt_process_attach@@YAHQEAUHINSTANCE__@@QEAX@Z@4HA 000000018000a438     MSVCRT:dll_dllmain.obj
 0004:00000444       $pdata$?fin$0@?0??dllmain_crt_process_detach@@YAH_N@Z@4HA 000000018000a444     MSVCRT:dll_dllmain.obj
 0004:00000450       $pdata$?filt$0@?0??dllmain_dispatch@@YAHQEAUHINSTANCE__@@KQEAX@Z@4HA 000000018000a450     MSVCRT:dll_dllmain.obj
 0004:0000045c       $pdata$??__FdefaultVersion@?1??GetWindowsMajorVersion@EnvPlugin@environment@common@plugins@monitoring@ibmras@@CA?BV?$basic_string@DU?$char_traits@D@std@@V?$allocator@D@2@@std@@XZ@YAXXZ 000000018000a45c     envplugin.obj
 0004:00000468       $pdata$??__FdefaultBuild@?1??GetWindowsBuild@EnvPlugin@environment@common@plugins@monitoring@ibmras@@CA?BV?$basic_string@DU?$char_traits@D@std@@V?$allocator@D@2@@std@@XZ@YAXXZ 000000018000a468     envplugin.obj
 0005:00000060       $R000000                   000000018000b060     * linker generated manifest res *

 Exports

  ordinal    name

        1    ibmras_monitoring_getVersion
        2    ibmras_monitoring_plugin_init
        3    ibmras_monitoring_plugin_start
        4    ibmras_monitoring_plugin_stop
        5    ibmras_monitoring_registerPullSource
