 hcapiplugin

 Timestamp is 5ce29756 (Mon May 20 17:32:30 2019)

 Preferred load address is 0000000180000000

 Start         Length     Name                   Class
 0001:00000000 00001820H .text$mn                CODE
 0001:00001820 00000020H .text$mn$00             CODE
 0001:00001840 00000081H .text$x                 CODE
 0002:00000000 00000168H .idata$5                DATA
 0002:00000168 00000010H .00cfg                  DATA
 0002:00000178 00000008H .CRT$XCA                DATA
 0002:00000180 00000008H .CRT$XCZ                DATA
 0002:00000188 00000008H .CRT$XIA                DATA
 0002:00000190 00000008H .CRT$XIZ                DATA
 0002:00000198 00000008H .CRT$XPA                DATA
 0002:000001a0 00000008H .CRT$XPZ                DATA
 0002:000001a8 00000008H .CRT$XTA                DATA
 0002:000001b0 00000010H .CRT$XTZ                DATA
 0002:000001b8 00000000H .gfids$y                DATA
 0002:000001c0 00000310H .rdata                  DATA
 0002:000004d0 000001f4H .rdata$r                DATA
 0002:000006c4 00000304H .rdata$zzzdbg           DATA
 0002:000009c8 00000008H .rtc$IAA                DATA
 0002:000009d0 00000008H .rtc$IZZ                DATA
 0002:000009d8 00000008H .rtc$TAA                DATA
 0002:000009e0 00000008H .rtc$TZZ                DATA
 0002:000009e8 00000278H .xdata                  DATA
 0002:00000c60 000000f0H .xdata$x                DATA
 0002:00000d50 0000016cH .edata                  DATA
 0002:00000ebc 00000078H .idata$2                DATA
 0002:00000f34 00000014H .idata$3                DATA
 0002:00000f48 00000168H .idata$4                DATA
 0002:000010b0 00000432H .idata$6                DATA
 0003:00000000 00000038H .data                   DATA
 0003:00000038 000000a8H .data$r                 DATA
 0003:000000e0 00000630H .bss                    DATA
 0004:00000000 000002f4H .pdata                  DATA
 0005:00000000 00000060H .rsrc$01                DATA
 0005:00000060 00000180H .rsrc$02                DATA

  Address         Publics by Value              Rva+Base               Lib:Object

 0000:00000000       __hybrid_code_map          0000000000000000     <absolute>
 0000:00000000       __guard_iat_table          0000000000000000     <absolute>
 0000:00000000       __dynamic_value_reloc_table 0000000000000000     <absolute>
 0000:00000000       __guard_fids_count         0000000000000000     <absolute>
 0000:00000000       __hybrid_code_map_count    0000000000000000     <absolute>
 0000:00000000       __guard_longjmp_count      0000000000000000     <absolute>
 0000:00000000       __guard_iat_count          0000000000000000     <absolute>
 0000:00000000       __volatile_metadata        0000000000000000     <absolute>
 0000:00000000       __guard_longjmp_table      0000000000000000     <absolute>
 0000:00000000       __hybrid_auxiliary_iat     0000000000000000     <absolute>
 0000:00000000       __enclave_config           0000000000000000     <absolute>
 0000:00000000       ___safe_se_handler_table   0000000000000000     <absolute>
 0000:00000000       __guard_fids_table         0000000000000000     <absolute>
 0000:00000000       ___safe_se_handler_count   0000000000000000     <absolute>
 0000:00000100       __guard_flags              0000000000000100     <absolute>
 0000:00000000       __ImageBase                0000000180000000     <linker-defined>
 0001:00000000       ?getID@Connector@connector@monitoring@ibmras@@UEAA?AV?$basic_string@DU?$char_traits@D@std@@V?$allocator@D@2@@std@@XZ 0000000180001000 f i APIConnector.obj
 0001:00000040       ibmras_monitoring_plugin_stop 0000000180001040 f i APIConnector.obj
 0001:00000040       ?stop@APIConnector@1@UEAAHXZ 0000000180001040 f i APIConnector.obj
 0001:00000040       ?start@APIConnector@1@UEAAHXZ 0000000180001040 f i APIConnector.obj
 0001:00000040       ?start@Connector@connector@monitoring@ibmras@@UEAAHXZ 0000000180001040 f i APIConnector.obj
 0001:00000040       _is_c_termination_complete 0000000180001040 f i MSVCRT:ucrt_stubs.obj
 0001:00000040       __scrt_stub_for_is_c_termination_complete 0000000180001040 f i MSVCRT:ucrt_stubs.obj
 0001:00000040       ?stop@Connector@connector@monitoring@ibmras@@UEAAHXZ 0000000180001040 f i APIConnector.obj
 0001:00000040       ?sendMessage@Connector@connector@monitoring@ibmras@@UEAAHAEBV?$basic_string@DU?$char_traits@D@std@@V?$allocator@D@2@@std@@IPEAX@Z 0000000180001040 f i APIConnector.obj
 0001:00000040       ibmras_monitoring_plugin_start 0000000180001040 f i APIConnector.obj
 0001:00000050       ?registerReceiver@Connector@connector@monitoring@ibmras@@UEAAXPEAVReceiver@234@@Z 0000000180001050 f i APIConnector.obj
 0001:00000050       _guard_check_icall_nop     0000000180001050 f i MSVCRT:guard_support.obj
 0001:00000060       ??_GConnector@connector@monitoring@ibmras@@UEAAPEAXI@Z 0000000180001060 f i APIConnector.obj
 0001:00000060       ??_GAPIConnector@0@UEAAPEAXI@Z 0000000180001060 f i APIConnector.obj
 0001:00000060       ??_EConnector@connector@monitoring@ibmras@@UEAAPEAXI@Z 0000000180001060 f i * CIL library *:* CIL module *
 0001:00000060       ??_EAPIConnector@0@UEAAPEAXI@Z 0000000180001060 f i * CIL library *:* CIL module *
 0001:00000090       ?getID@APIConnector@1@UEAA?AV?$basic_string@DU?$char_traits@D@std@@V?$allocator@D@2@@std@@XZ 0000000180001090 f i APIConnector.obj
 0001:000000d0       ?sendMessage@APIConnector@1@UEAAHAEBV?$basic_string@DU?$char_traits@D@std@@V?$allocator@D@2@@std@@IPEAX@Z 00000001800010d0 f   APIConnector.obj
 0001:00000130       registerListener           0000000180001130 f   APIConnector.obj
 0001:00000140       deregisterListener         0000000180001140 f   APIConnector.obj
 0001:00000150       apiPushData                0000000180001150 f   APIConnector.obj
 0001:000001a0       sendControl                00000001800011a0 f   APIConnector.obj
 0001:00000290       ?registerReceiver@APIConnector@1@UEAAXPEAVReceiver@connector@monitoring@ibmras@@@Z 0000000180001290 f   APIConnector.obj
 0001:000002a0       ibmras_monitoring_registerPushSource 00000001800012a0 f   APIConnector.obj
 0001:00000460       ibmras_monitoring_getConnector 0000000180001460 f   APIConnector.obj
 0001:00000490       ibmras_monitoring_getVersion 0000000180001490 f   APIConnector.obj
 0001:000004a0       ?assign@?$basic_string@DU?$char_traits@D@std@@V?$allocator@D@2@@std@@QEAAAEAV12@QEBD@Z 00000001800014a0 f i APIConnector.obj
 0001:00000600       ??$_Reallocate_grow_by@V<lambda_65e615be2a453ca0576c979606f46740>@@PEBD_K@?$basic_string@DU?$char_traits@D@std@@V?$allocator@D@2@@std@@QEAAAEAV01@_KV<lambda_65e615be2a453ca0576c979606f46740>@@PEBD_K@Z 0000000180001600 f i APIConnector.obj
 0001:00000780       ?_Xlen@?$basic_string@DU?$char_traits@D@std@@V?$allocator@D@2@@std@@SAXXZ 0000000180001780 f i APIConnector.obj
 0001:000007b0       __security_check_cookie    00000001800017b0 f   MSVCRT:amdsecgs.obj
 0001:000007d4       ??2@YAPEAX_K@Z             00000001800017d4 f   MSVCRT:new_scalar.obj
 0001:00000810       ??3@YAXPEAX_K@Z            0000000180001810 f   MSVCRT:delete_scalar_size.obj
 0001:00000818       ??_U@YAPEAX_K@Z            0000000180001818 f   MSVCRT:new_array.obj
 0001:00000b50       _DllMainCRTStartup         0000000180001b50 f   MSVCRT:dll_dllmain.obj
 0001:00000b90       __raise_securityfailure    0000000180001b90 f   MSVCRT:gs_report.obj
 0001:00000bc4       __report_gsfailure         0000000180001bc4 f   MSVCRT:gs_report.obj
 0001:00000d0c       ??0bad_alloc@std@@QEAA@AEBV01@@Z 0000000180001d0c f i MSVCRT:throw_bad_alloc.obj
 0001:00000d4c       ??0bad_alloc@std@@QEAA@XZ  0000000180001d4c f i MSVCRT:throw_bad_alloc.obj
 0001:00000d6c       ??0bad_array_new_length@std@@QEAA@AEBV01@@Z 0000000180001d6c f i MSVCRT:throw_bad_alloc.obj
 0001:00000dac       ??0bad_array_new_length@std@@QEAA@XZ 0000000180001dac f i MSVCRT:throw_bad_alloc.obj
 0001:00000dcc       ??0exception@std@@QEAA@AEBV01@@Z 0000000180001dcc f i MSVCRT:throw_bad_alloc.obj
 0001:00000e04       ??1bad_alloc@std@@UEAA@XZ  0000000180001e04 f i MSVCRT:throw_bad_alloc.obj
 0001:00000e04       ??1bad_array_new_length@std@@UEAA@XZ 0000000180001e04 f i MSVCRT:throw_bad_alloc.obj
 0001:00000e18       ??_Ebad_array_new_length@std@@UEAAPEAXI@Z 0000000180001e18 f i MSVCRT:throw_bad_alloc.obj
 0001:00000e18       ??_Gexception@std@@UEAAPEAXI@Z 0000000180001e18 f i MSVCRT:throw_bad_alloc.obj
 0001:00000e18       ??_Eexception@std@@UEAAPEAXI@Z 0000000180001e18 f i MSVCRT:throw_bad_alloc.obj
 0001:00000e18       ??_Gbad_array_new_length@std@@UEAAPEAXI@Z 0000000180001e18 f i MSVCRT:throw_bad_alloc.obj
 0001:00000e18       ??_Ebad_alloc@std@@UEAAPEAXI@Z 0000000180001e18 f i MSVCRT:throw_bad_alloc.obj
 0001:00000e18       ??_Gbad_alloc@std@@UEAAPEAXI@Z 0000000180001e18 f i MSVCRT:throw_bad_alloc.obj
 0001:00000e5c       ?__scrt_throw_std_bad_alloc@@YAXXZ 0000000180001e5c f   MSVCRT:throw_bad_alloc.obj
 0001:00000e7c       ?__scrt_throw_std_bad_array_new_length@@YAXXZ 0000000180001e7c f   MSVCRT:throw_bad_alloc.obj
 0001:00000e9c       ?what@exception@std@@UEBAPEBDXZ 0000000180001e9c f i MSVCRT:throw_bad_alloc.obj
 0001:00000eb0       ??3@YAXPEAX@Z              0000000180001eb0 f   MSVCRT:delete_scalar.obj
 0001:00000eb8       __security_init_cookie     0000000180001eb8 f   MSVCRT:gs_support.obj
 0001:00000f64       DllMain                    0000000180001f64 f   MSVCRT:dll_dllmain_stub.obj
 0001:00000f88       ?__scrt_initialize_type_info@@YAXXZ 0000000180001f88 f   MSVCRT:tncleanup.obj
 0001:00000f98       ?__scrt_uninitialize_type_info@@YAXXZ 0000000180001f98 f   MSVCRT:tncleanup.obj
 0001:00000fa4       __local_stdio_printf_options 0000000180001fa4 f i MSVCRT:default_local_stdio_options.obj
 0001:00000fac       __local_stdio_scanf_options 0000000180001fac f i MSVCRT:default_local_stdio_options.obj
 0001:00000fb4       __scrt_initialize_default_local_stdio_options 0000000180001fb4 f   MSVCRT:default_local_stdio_options.obj
 0001:00000fd0       __scrt_acquire_startup_lock 0000000180001fd0 f   MSVCRT:utility.obj
 0001:0000100c       __scrt_dllmain_after_initialize_c 000000018000200c f   MSVCRT:utility.obj
 0001:00001040       __scrt_dllmain_before_initialize_c 0000000180002040 f   MSVCRT:utility.obj
 0001:00001058       __scrt_dllmain_crt_thread_attach 0000000180002058 f   MSVCRT:utility.obj
 0001:00001080       __scrt_dllmain_crt_thread_detach 0000000180002080 f   MSVCRT:utility.obj
 0001:00001098       __scrt_dllmain_exception_filter 0000000180002098 f   MSVCRT:utility.obj
 0001:000010f8       __scrt_dllmain_uninitialize_c 00000001800020f8 f   MSVCRT:utility.obj
 0001:00001128       __scrt_dllmain_uninitialize_critical 0000000180002128 f   MSVCRT:utility.obj
 0001:0000113c       __scrt_initialize_crt      000000018000213c f   MSVCRT:utility.obj
 0001:00001188       __scrt_initialize_onexit_tables 0000000180002188 f   MSVCRT:utility.obj
 0001:00001260       __scrt_is_nonwritable_in_current_image 0000000180002260 f   MSVCRT:utility.obj
 0001:000012fc       __scrt_release_startup_lock 00000001800022fc f   MSVCRT:utility.obj
 0001:00001320       __scrt_uninitialize_crt    0000000180002320 f   MSVCRT:utility.obj
 0001:0000134c       __scrt_get_dyn_tls_init_callback 000000018000234c f   MSVCRT:dyn_tls_init.obj
 0001:00001354       __crt_debugger_hook        0000000180002354 f   MSVCRT:utility_desktop.obj
 0001:0000135c       __scrt_fastfail            000000018000235c f   MSVCRT:utility_desktop.obj
 0001:000014a8       _RTC_Initialize            00000001800024a8 f   MSVCRT:initsect.obj
 0001:000014e4       _RTC_Terminate             00000001800024e4 f   MSVCRT:initsect.obj
 0001:00001520       ??_Etype_info@@UEAAPEAXI@Z 0000000180002520 f i MSVCRT:std_type_info_static.obj
 0001:00001520       ??_Gtype_info@@UEAAPEAXI@Z 0000000180002520 f i MSVCRT:std_type_info_static.obj
 0001:0000154c       __isa_available_init       000000018000254c f   MSVCRT:cpu_disp.obj
 0001:00001708       _get_startup_argv_mode     0000000180002708 f   MSVCRT:argv_mode.obj
 0001:00001710       __scrt_is_ucrt_dll_in_use  0000000180002710 f   MSVCRT:ucrt_detection.obj
 0001:00001720       __C_specific_handler       0000000180002720 f   vcruntime:VCRUNTIME140.dll
 0001:00001726       __std_exception_copy       0000000180002726 f   vcruntime:VCRUNTIME140.dll
 0001:0000172c       __std_exception_destroy    000000018000272c f   vcruntime:VCRUNTIME140.dll
 0001:00001732       _CxxThrowException         0000000180002732 f   vcruntime:VCRUNTIME140.dll
 0001:00001738       __std_type_info_destroy_list 0000000180002738 f   vcruntime:VCRUNTIME140.dll
 0001:0000173e       memset                     000000018000273e f   vcruntime:VCRUNTIME140.dll
 0001:00001744       _callnewh                  0000000180002744 f   ucrt:api-ms-win-crt-heap-l1-1-0.dll
 0001:0000174a       malloc                     000000018000274a f   ucrt:api-ms-win-crt-heap-l1-1-0.dll
 0001:00001750       _initterm                  0000000180002750 f   ucrt:api-ms-win-crt-runtime-l1-1-0.dll
 0001:00001756       _initterm_e                0000000180002756 f   ucrt:api-ms-win-crt-runtime-l1-1-0.dll
 0001:0000175c       free                       000000018000275c f   ucrt:api-ms-win-crt-heap-l1-1-0.dll
 0001:00001762       _seh_filter_dll            0000000180002762 f   ucrt:api-ms-win-crt-runtime-l1-1-0.dll
 0001:00001768       _configure_narrow_argv     0000000180002768 f   ucrt:api-ms-win-crt-runtime-l1-1-0.dll
 0001:0000176e       _initialize_narrow_environment 000000018000276e f   ucrt:api-ms-win-crt-runtime-l1-1-0.dll
 0001:00001774       _initialize_onexit_table   0000000180002774 f   ucrt:api-ms-win-crt-runtime-l1-1-0.dll
 0001:0000177a       _execute_onexit_table      000000018000277a f   ucrt:api-ms-win-crt-runtime-l1-1-0.dll
 0001:00001780       _cexit                     0000000180002780 f   ucrt:api-ms-win-crt-runtime-l1-1-0.dll
 0001:00001786       IsProcessorFeaturePresent  0000000180002786 f   kernel32:KERNEL32.dll
 0001:0000178c       __vcrt_uninitialize        000000018000278c f   MSVCRT:ucrt_stubs.obj
 0001:0000178c       __scrt_stub_for_acrt_thread_detach 000000018000278c f   MSVCRT:ucrt_stubs.obj
 0001:0000178c       __acrt_uninitialize        000000018000278c f   MSVCRT:ucrt_stubs.obj
 0001:0000178c       __vcrt_thread_attach       000000018000278c f   MSVCRT:ucrt_stubs.obj
 0001:0000178c       __scrt_stub_for_acrt_thread_attach 000000018000278c f   MSVCRT:ucrt_stubs.obj
 0001:0000178c       __vcrt_uninitialize_critical 000000018000278c f   MSVCRT:ucrt_stubs.obj
 0001:0000178c       __scrt_stub_for_acrt_uninitialize_critical 000000018000278c f   MSVCRT:ucrt_stubs.obj
 0001:0000178c       __acrt_thread_attach       000000018000278c f   MSVCRT:ucrt_stubs.obj
 0001:0000178c       __acrt_uninitialize_critical 000000018000278c f   MSVCRT:ucrt_stubs.obj
 0001:0000178c       __vcrt_initialize          000000018000278c f   MSVCRT:ucrt_stubs.obj
 0001:0000178c       __acrt_thread_detach       000000018000278c f   MSVCRT:ucrt_stubs.obj
 0001:0000178c       __scrt_stub_for_acrt_uninitialize 000000018000278c f   MSVCRT:ucrt_stubs.obj
 0001:0000178c       __vcrt_thread_detach       000000018000278c f   MSVCRT:ucrt_stubs.obj
 0001:0000178c       __acrt_initialize          000000018000278c f   MSVCRT:ucrt_stubs.obj
 0001:0000178c       __scrt_stub_for_acrt_initialize 000000018000278c f   MSVCRT:ucrt_stubs.obj
 0001:00001790       __GSHandlerCheck           0000000180002790 f   MSVCRT:gshandler.obj
 0001:000017b0       __GSHandlerCheckCommon     00000001800027b0 f   MSVCRT:gshandler.obj
 0001:0000180b       memcpy                     000000018000280b f   vcruntime:VCRUNTIME140.dll
 0001:00001811       memmove                    0000000180002811 f   vcruntime:VCRUNTIME140.dll
 0001:00001830       _guard_dispatch_icall_nop  0000000180002830 f   MSVCRT:guard_dispatch.obj
 0002:00000000       __imp_RtlLookupFunctionEntry 0000000180003000     kernel32:KERNEL32.dll
 0002:00000008       __imp_RtlVirtualUnwind     0000000180003008     kernel32:KERNEL32.dll
 0002:00000010       __imp_UnhandledExceptionFilter 0000000180003010     kernel32:KERNEL32.dll
 0002:00000018       __imp_SetUnhandledExceptionFilter 0000000180003018     kernel32:KERNEL32.dll
 0002:00000020       __imp_GetCurrentProcess    0000000180003020     kernel32:KERNEL32.dll
 0002:00000028       __imp_TerminateProcess     0000000180003028     kernel32:KERNEL32.dll
 0002:00000030       __imp_IsProcessorFeaturePresent 0000000180003030     kernel32:KERNEL32.dll
 0002:00000038       __imp_QueryPerformanceCounter 0000000180003038     kernel32:KERNEL32.dll
 0002:00000040       __imp_GetCurrentProcessId  0000000180003040     kernel32:KERNEL32.dll
 0002:00000048       __imp_GetCurrentThreadId   0000000180003048     kernel32:KERNEL32.dll
 0002:00000050       __imp_GetSystemTimeAsFileTime 0000000180003050     kernel32:KERNEL32.dll
 0002:00000058       __imp_DisableThreadLibraryCalls 0000000180003058     kernel32:KERNEL32.dll
 0002:00000060       __imp_InitializeSListHead  0000000180003060     kernel32:KERNEL32.dll
 0002:00000068       __imp_IsDebuggerPresent    0000000180003068     kernel32:KERNEL32.dll
 0002:00000070       __imp_RtlCaptureContext    0000000180003070     kernel32:KERNEL32.dll
 0002:00000078       \177KERNEL32_NULL_THUNK_DATA 0000000180003078     kernel32:KERNEL32.dll
 0002:00000080       __imp_?_Xlength_error@std@@YAXPEBD@Z 0000000180003080     msvcprt:MSVCP140.dll
 0002:00000088       \177MSVCP140_NULL_THUNK_DATA 0000000180003088     msvcprt:MSVCP140.dll
 0002:00000090       __imp___std_type_info_destroy_list 0000000180003090     vcruntime:VCRUNTIME140.dll
 0002:00000098       __imp__CxxThrowException   0000000180003098     vcruntime:VCRUNTIME140.dll
 0002:000000a0       __imp___std_exception_destroy 00000001800030a0     vcruntime:VCRUNTIME140.dll
 0002:000000a8       __imp_memset               00000001800030a8     vcruntime:VCRUNTIME140.dll
 0002:000000b0       __imp___C_specific_handler 00000001800030b0     vcruntime:VCRUNTIME140.dll
 0002:000000b8       __imp_memcpy               00000001800030b8     vcruntime:VCRUNTIME140.dll
 0002:000000c0       __imp___std_exception_copy 00000001800030c0     vcruntime:VCRUNTIME140.dll
 0002:000000c8       __imp_memmove              00000001800030c8     vcruntime:VCRUNTIME140.dll
 0002:000000d0       \177VCRUNTIME140_NULL_THUNK_DATA 00000001800030d0     vcruntime:VCRUNTIME140.dll
 0002:000000d8       __imp_?createNativeString@util@common@ibmras@@YAPEADPEBD_N@Z 00000001800030d8     agentcore:agentcore.dll
 0002:000000e0       __imp_?createAsciiString@util@common@ibmras@@YAPEADPEBD_N@Z 00000001800030e0     agentcore:agentcore.dll
 0002:000000e8       __imp_?deallocate@memory@common@ibmras@@YAXPEAPEAE@Z 00000001800030e8     agentcore:agentcore.dll
 0002:000000f0       \177agentcore_NULL_THUNK_DATA 00000001800030f0     agentcore:agentcore.dll
 0002:000000f8       __imp_malloc               00000001800030f8     ucrt:api-ms-win-crt-heap-l1-1-0.dll
 0002:00000100       __imp_free                 0000000180003100     ucrt:api-ms-win-crt-heap-l1-1-0.dll
 0002:00000108       __imp__callnewh            0000000180003108     ucrt:api-ms-win-crt-heap-l1-1-0.dll
 0002:00000110       \177api-ms-win-crt-heap-l1-1-0_NULL_THUNK_DATA 0000000180003110     ucrt:api-ms-win-crt-heap-l1-1-0.dll
 0002:00000118       __imp__initialize_onexit_table 0000000180003118     ucrt:api-ms-win-crt-runtime-l1-1-0.dll
 0002:00000120       __imp__configure_narrow_argv 0000000180003120     ucrt:api-ms-win-crt-runtime-l1-1-0.dll
 0002:00000128       __imp__seh_filter_dll      0000000180003128     ucrt:api-ms-win-crt-runtime-l1-1-0.dll
 0002:00000130       __imp__cexit               0000000180003130     ucrt:api-ms-win-crt-runtime-l1-1-0.dll
 0002:00000138       __imp__initterm_e          0000000180003138     ucrt:api-ms-win-crt-runtime-l1-1-0.dll
 0002:00000140       __imp__initterm            0000000180003140     ucrt:api-ms-win-crt-runtime-l1-1-0.dll
 0002:00000148       __imp__initialize_narrow_environment 0000000180003148     ucrt:api-ms-win-crt-runtime-l1-1-0.dll
 0002:00000150       __imp__invalid_parameter_noinfo_noreturn 0000000180003150     ucrt:api-ms-win-crt-runtime-l1-1-0.dll
 0002:00000158       __imp__execute_onexit_table 0000000180003158     ucrt:api-ms-win-crt-runtime-l1-1-0.dll
 0002:00000160       \177api-ms-win-crt-runtime-l1-1-0_NULL_THUNK_DATA 0000000180003160     ucrt:api-ms-win-crt-runtime-l1-1-0.dll
 0002:00000168       __guard_check_icall_fptr   0000000180003168     MSVCRT:guard_support.obj
 0002:00000170       __guard_dispatch_icall_fptr 0000000180003170     MSVCRT:guard_support.obj
 0002:00000178       __xc_a                     0000000180003178     MSVCRT:initializers.obj
 0002:00000180       __xc_z                     0000000180003180     MSVCRT:initializers.obj
 0002:00000188       __xi_a                     0000000180003188     MSVCRT:initializers.obj
 0002:00000190       __xi_z                     0000000180003190     MSVCRT:initializers.obj
 0002:00000198       __xp_a                     0000000180003198     MSVCRT:initializers.obj
 0002:000001a0       __xp_z                     00000001800031a0     MSVCRT:initializers.obj
 0002:000001a8       __xt_a                     00000001800031a8     MSVCRT:initializers.obj
 0002:000001b0       __xt_z                     00000001800031b0     MSVCRT:initializers.obj
 0002:000001c0       _pRawDllMain               00000001800031c0     MSVCRT:dll_dllmain.obj
 0002:000001c0       _pDefaultRawDllMain        00000001800031c0     MSVCRT:dll_dllmain.obj
 0002:000001e0       ??_7exception@std@@6B@     00000001800031e0     MSVCRT:throw_bad_alloc.obj
 0002:000001f0       ??_C@_0BC@EOODALEL@Unknown?5exception@ 00000001800031f0     MSVCRT:throw_bad_alloc.obj
 0002:00000210       ??_7bad_alloc@std@@6B@     0000000180003210     MSVCRT:throw_bad_alloc.obj
 0002:00000220       ??_C@_0P@GHFPNOJB@bad?5allocation@ 0000000180003220     MSVCRT:throw_bad_alloc.obj
 0002:00000238       ??_7bad_array_new_length@std@@6B@ 0000000180003238     MSVCRT:throw_bad_alloc.obj
 0002:00000248       ??_C@_0BF@KINCDENJ@bad?5array?5new?5length@ 0000000180003248     MSVCRT:throw_bad_alloc.obj
 0002:00000268       ??_7type_info@@6B@         0000000180003268     MSVCRT:std_type_info_static.obj
 0002:00000270       ??_C@_09MILONDLI@Connector@ 0000000180003270     APIConnector.obj
 0002:00000280       ??_C@_0N@NFCFMIAE@APIConnector@ 0000000180003280     APIConnector.obj
 0002:00000290       ??_C@_03HLLJOCDO@1?40@     0000000180003290     APIConnector.obj
 0002:00000298       ??_C@_0BB@EAOAKEMK@Description?5for?5@ 0000000180003298     APIConnector.obj
 0002:000002b0       ??_C@_0CE@EJBKEIPO@?$FLapi_push?$FN?5Registering?5push?5sou@ 00000001800032b0     APIConnector.obj
 0002:000002d4       ??_C@_03LNOPAIDL@api@      00000001800032d4     APIConnector.obj
 0002:000002d8       ??_C@_0BA@JFNIOLAK@string?5too?5long@ 00000001800032d8     APIConnector.obj
 0002:000002e8       ?apiConnVersion@APIConnector@@3PEBDEB 00000001800032e8     APIConnector.obj
 0002:000002f0       ??_7APIConnector@0@6B@     00000001800032f0     APIConnector.obj
 0002:00000320       ??_7Connector@connector@monitoring@ibmras@@6B@ 0000000180003320     APIConnector.obj
 0002:00000350       __xmm@000000000000000f0000000000000000 0000000180003350     APIConnector.obj
 0002:000003d0       _load_config_used          00000001800033d0     MSVCRT:loadcfg.obj
 0002:000004d0       ??_R4exception@std@@6B@    00000001800034d0     MSVCRT:throw_bad_alloc.obj
 0002:000004f8       ??_R3exception@std@@8      00000001800034f8     MSVCRT:throw_bad_alloc.obj
 0002:00000510       ??_R2exception@std@@8      0000000180003510     MSVCRT:throw_bad_alloc.obj
 0002:00000520       ??_R1A@?0A@EA@exception@std@@8 0000000180003520     MSVCRT:throw_bad_alloc.obj
 0002:00000548       ??_R4bad_alloc@std@@6B@    0000000180003548     MSVCRT:throw_bad_alloc.obj
 0002:00000570       ??_R3bad_alloc@std@@8      0000000180003570     MSVCRT:throw_bad_alloc.obj
 0002:00000588       ??_R2bad_alloc@std@@8      0000000180003588     MSVCRT:throw_bad_alloc.obj
 0002:000005a0       ??_R1A@?0A@EA@bad_alloc@std@@8 00000001800035a0     MSVCRT:throw_bad_alloc.obj
 0002:000005c8       ??_R4bad_array_new_length@std@@6B@ 00000001800035c8     MSVCRT:throw_bad_alloc.obj
 0002:000005f0       ??_R3bad_array_new_length@std@@8 00000001800035f0     MSVCRT:throw_bad_alloc.obj
 0002:00000608       ??_R2bad_array_new_length@std@@8 0000000180003608     MSVCRT:throw_bad_alloc.obj
 0002:00000628       ??_R1A@?0A@EA@bad_array_new_length@std@@8 0000000180003628     MSVCRT:throw_bad_alloc.obj
 0002:00000650       ??_R4type_info@@6B@        0000000180003650     MSVCRT:std_type_info_static.obj
 0002:00000678       ??_R3type_info@@8          0000000180003678     MSVCRT:std_type_info_static.obj
 0002:00000690       ??_R2type_info@@8          0000000180003690     MSVCRT:std_type_info_static.obj
 0002:000006a0       ??_R1A@?0A@EA@type_info@@8 00000001800036a0     MSVCRT:std_type_info_static.obj
 0002:000009c8       __rtc_iaa                  00000001800039c8     MSVCRT:initsect.obj
 0002:000009d0       __rtc_izz                  00000001800039d0     MSVCRT:initsect.obj
 0002:000009d8       __rtc_taa                  00000001800039d8     MSVCRT:initsect.obj
 0002:000009e0       __rtc_tzz                  00000001800039e0     MSVCRT:initsect.obj
 0002:00000c60       _TI2?AVbad_alloc@std@@     0000000180003c60     MSVCRT:throw_bad_alloc.obj
 0002:00000c80       _CTA2?AVbad_alloc@std@@    0000000180003c80     MSVCRT:throw_bad_alloc.obj
 0002:00000c98       _CT??_R0?AVbad_alloc@std@@@8??0bad_alloc@std@@QEAA@AEBV01@@Z24 0000000180003c98     MSVCRT:throw_bad_alloc.obj
 0002:00000cc0       _CT??_R0?AVexception@std@@@8??0exception@std@@QEAA@AEBV01@@Z24 0000000180003cc0     MSVCRT:throw_bad_alloc.obj
 0002:00000ce8       _TI3?AVbad_array_new_length@std@@ 0000000180003ce8     MSVCRT:throw_bad_alloc.obj
 0002:00000d08       _CTA3?AVbad_array_new_length@std@@ 0000000180003d08     MSVCRT:throw_bad_alloc.obj
 0002:00000d28       _CT??_R0?AVbad_array_new_length@std@@@8??0bad_array_new_length@std@@QEAA@AEBV01@@Z24 0000000180003d28     MSVCRT:throw_bad_alloc.obj
 0002:00000ebc       __IMPORT_DESCRIPTOR_agentcore 0000000180003ebc     agentcore:agentcore.dll
 0002:00000ed0       __IMPORT_DESCRIPTOR_MSVCP140 0000000180003ed0     msvcprt:MSVCP140.dll
 0002:00000ee4       __IMPORT_DESCRIPTOR_VCRUNTIME140 0000000180003ee4     vcruntime:VCRUNTIME140.dll
 0002:00000ef8       __IMPORT_DESCRIPTOR_api-ms-win-crt-runtime-l1-1-0 0000000180003ef8     ucrt:api-ms-win-crt-runtime-l1-1-0.dll
 0002:00000f0c       __IMPORT_DESCRIPTOR_api-ms-win-crt-heap-l1-1-0 0000000180003f0c     ucrt:api-ms-win-crt-heap-l1-1-0.dll
 0002:00000f20       __IMPORT_DESCRIPTOR_KERNEL32 0000000180003f20     kernel32:KERNEL32.dll
 0002:00000f34       __NULL_IMPORT_DESCRIPTOR   0000000180003f34     agentcore:agentcore.dll
 0003:00000000       __security_cookie_complement 0000000180005000     MSVCRT:gs_cookie.obj
 0003:00000008       __security_cookie          0000000180005008     MSVCRT:gs_cookie.obj
 0003:00000010       __scrt_native_dllmain_reason 0000000180005010     MSVCRT:utility.obj
 0003:00000018       __isa_available            0000000180005018     MSVCRT:cpu_disp.obj
 0003:0000001c       __isa_enabled              000000018000501c     MSVCRT:cpu_disp.obj
 0003:00000020       __memcpy_nt_iters          0000000180005020     MSVCRT:cpu_disp.obj
 0003:00000030       __scrt_ucrt_dll_is_in_use  0000000180005030     MSVCRT:ucrt_stubs.obj
 0003:00000038       ??_R0?AVbad_alloc@std@@@8  0000000180005038     MSVCRT:throw_bad_alloc.obj
 0003:00000060       ??_R0?AVexception@std@@@8  0000000180005060     MSVCRT:throw_bad_alloc.obj
 0003:00000088       ??_R0?AVbad_array_new_length@std@@@8 0000000180005088     MSVCRT:throw_bad_alloc.obj
 0003:000000b8       ??_R0?AVtype_info@@@8      00000001800050b8     MSVCRT:std_type_info_static.obj
 0003:00000660       ?__type_info_root_node@@3U__type_info_node@@A 0000000180005660     MSVCRT:tncleanup.obj
 0003:00000670       ?_OptionsStorage@?1??__local_stdio_printf_options@@9@4_KA 0000000180005670     MSVCRT:default_local_stdio_options.obj
 0003:00000678       ?_OptionsStorage@?1??__local_stdio_scanf_options@@9@4_KA 0000000180005678     MSVCRT:default_local_stdio_options.obj
 0003:00000680       __scrt_current_native_startup_state 0000000180005680     MSVCRT:utility.obj
 0003:00000688       __scrt_native_startup_lock 0000000180005688     MSVCRT:utility.obj
 0003:000006c8       __scrt_debugger_hook_flag  00000001800056c8     MSVCRT:utility_desktop.obj
 0003:000006cc       __favor                    00000001800056cc     MSVCRT:cpu_disp.obj
 0003:000006d0       ?api@plugin@APIConnector@@3UagentCoreFunctions@@A 00000001800056d0     APIConnector.obj
 0003:000006f0       ?receiver@plugin@APIConnector@@3PEAVReceiver@connector@monitoring@ibmras@@EA 00000001800056f0     APIConnector.obj
 0003:000006f8       ?provid@plugin@APIConnector@@3IA 00000001800056f8     APIConnector.obj
 0003:00000700       ?listener@APIConnector@@3P6AXPEBDIPEAX@ZEA 0000000180005700     APIConnector.obj
 0003:00000708       __dyn_tls_init_callback    0000000180005708     <common>

 entry point at        0001:00000b50

 Static symbols

 0000:ffff7000       .debug$S                   0000000180000000     agentcore:agentcore.dll
 0000:ffff7000       .debug$S                   0000000180000000     vcruntime:VCRUNTIME140.dll
 0000:ffff7000       .debug$S                   0000000180000000     vcruntime:VCRUNTIME140.dll
 0000:ffff7000       .debug$S                   0000000180000000     agentcore:agentcore.dll
 0000:ffff7000       .debug$S                   0000000180000000     msvcprt:MSVCP140.dll
 0000:ffff7000       .debug$S                   0000000180000000     agentcore:agentcore.dll
 0000:ffff7000       .debug$S                   0000000180000000     vcruntime:VCRUNTIME140.dll
 0000:ffff7000       .debug$S                   0000000180000000     vcruntime:VCRUNTIME140.dll
 0000:ffff7000       .debug$S                   0000000180000000     vcruntime:VCRUNTIME140.dll
 0000:ffff7000       .debug$S                   0000000180000000     vcruntime:VCRUNTIME140.dll
 0000:ffff7000       .debug$S                   0000000180000000     vcruntime:VCRUNTIME140.dll
 0000:ffff7000       .debug$S                   0000000180000000     vcruntime:VCRUNTIME140.dll
 0000:ffff7000       .debug$S                   0000000180000000     vcruntime:VCRUNTIME140.dll
 0000:ffff7000       .debug$S                   0000000180000000     vcruntime:VCRUNTIME140.dll
 0000:ffff7000       .debug$S                   0000000180000000     ucrt:api-ms-win-crt-runtime-l1-1-0.dll
 0000:ffff7000       .debug$S                   0000000180000000     ucrt:api-ms-win-crt-heap-l1-1-0.dll
 0000:ffff7000       .debug$S                   0000000180000000     ucrt:api-ms-win-crt-heap-l1-1-0.dll
 0000:ffff7000       .debug$S                   0000000180000000     ucrt:api-ms-win-crt-runtime-l1-1-0.dll
 0000:ffff7000       .debug$S                   0000000180000000     ucrt:api-ms-win-crt-runtime-l1-1-0.dll
 0000:ffff7000       .debug$S                   0000000180000000     ucrt:api-ms-win-crt-heap-l1-1-0.dll
 0000:ffff7000       .debug$S                   0000000180000000     ucrt:api-ms-win-crt-runtime-l1-1-0.dll
 0000:ffff7000       .debug$S                   0000000180000000     ucrt:api-ms-win-crt-runtime-l1-1-0.dll
 0000:ffff7000       .debug$S                   0000000180000000     ucrt:api-ms-win-crt-runtime-l1-1-0.dll
 0000:ffff7000       .debug$S                   0000000180000000     ucrt:api-ms-win-crt-runtime-l1-1-0.dll
 0000:ffff7000       .debug$S                   0000000180000000     ucrt:api-ms-win-crt-runtime-l1-1-0.dll
 0000:ffff7000       .debug$S                   0000000180000000     ucrt:api-ms-win-crt-runtime-l1-1-0.dll
 0000:ffff7000       .debug$S                   0000000180000000     ucrt:api-ms-win-crt-runtime-l1-1-0.dll
 0000:ffff7000       .debug$S                   0000000180000000     ucrt:api-ms-win-crt-runtime-l1-1-0.dll
 0000:ffff7000       .debug$S                   0000000180000000     ucrt:api-ms-win-crt-runtime-l1-1-0.dll
 0000:ffff7000       .debug$S                   0000000180000000     ucrt:api-ms-win-crt-runtime-l1-1-0.dll
 0000:ffff7000       .debug$S                   0000000180000000     kernel32:KERNEL32.dll
 0000:ffff7000       .debug$S                   0000000180000000     kernel32:KERNEL32.dll
 0000:ffff7000       .debug$S                   0000000180000000     kernel32:KERNEL32.dll
 0000:ffff7000       .debug$S                   0000000180000000     kernel32:KERNEL32.dll
 0000:ffff7000       .debug$S                   0000000180000000     kernel32:KERNEL32.dll
 0000:ffff7000       .debug$S                   0000000180000000     kernel32:KERNEL32.dll
 0000:ffff7000       .debug$S                   0000000180000000     kernel32:KERNEL32.dll
 0000:ffff7000       .debug$S                   0000000180000000     kernel32:KERNEL32.dll
 0000:ffff7000       .debug$S                   0000000180000000     kernel32:KERNEL32.dll
 0000:ffff7000       .debug$S                   0000000180000000     kernel32:KERNEL32.dll
 0000:ffff7000       .debug$S                   0000000180000000     kernel32:KERNEL32.dll
 0000:ffff7000       .debug$S                   0000000180000000     kernel32:KERNEL32.dll
 0000:ffff7000       .debug$S                   0000000180000000     kernel32:KERNEL32.dll
 0000:ffff7000       .debug$S                   0000000180000000     kernel32:KERNEL32.dll
 0000:ffff7000       .debug$S                   0000000180000000     kernel32:KERNEL32.dll
 0000:ffff7000       .debug$S                   0000000180000000     kernel32:KERNEL32.dll
 0000:ffff7000       .debug$S                   0000000180000000     kernel32:KERNEL32.dll
 0000:ffff7000       .debug$S                   0000000180000000     hcapiplugin.exp
 0001:000007a0       $$000000                   00000001800017a0     MSVCRT:amdsecgs.obj
 0001:00000820       ?dllmain_crt_dispatch@@YAHQEAUHINSTANCE__@@KQEAX@Z 0000000180001820 f   MSVCRT:dll_dllmain.obj
 0001:00000870       ?dllmain_crt_process_attach@@YAHQEAUHINSTANCE__@@QEAX@Z 0000000180001870 f   MSVCRT:dll_dllmain.obj
 0001:0000098c       ?dllmain_crt_process_detach@@YAH_N@Z 000000018000198c f   MSVCRT:dll_dllmain.obj
 0001:00000a1c       ?dllmain_dispatch@@YAHQEAUHINSTANCE__@@KQEAX@Z 0000000180001a1c f   MSVCRT:dll_dllmain.obj
 0001:00000c98       capture_previous_context   0000000180001c98 f   MSVCRT:gs_report.obj
 0001:00001820       $$000000                   0000000180002820     MSVCRT:guard_dispatch.obj
 0001:00001840       ?fin$0@?0??dllmain_crt_process_attach@@YAHQEAUHINSTANCE__@@QEAX@Z@4HA 0000000180002840 f   MSVCRT:dll_dllmain.obj
 0001:00001857       ?fin$0@?0??dllmain_crt_process_detach@@YAH_N@Z@4HA 0000000180002857 f   MSVCRT:dll_dllmain.obj
 0001:00001873       ?filt$0@?0??dllmain_dispatch@@YAHQEAUHINSTANCE__@@KQEAX@Z@4HA 0000000180002873 f   MSVCRT:dll_dllmain.obj
 0001:000018a9       __scrt_is_nonwritable_in_current_image$filt$0 00000001800028a9 f   MSVCRT:utility.obj
 0002:000001c8       GS_ExceptionPointers       00000001800031c8     MSVCRT:gs_report.obj
 0002:000009e8       $unwind$??2@YAPEAX_K@Z     00000001800039e8     MSVCRT:new_scalar.obj
 0002:000009e8       $unwind$?getID@Connector@connector@monitoring@ibmras@@UEAA?AV?$basic_string@DU?$char_traits@D@std@@V?$allocator@D@2@@std@@XZ 00000001800039e8     APIConnector.obj
 0002:000009e8       $unwind$__scrt_initialize_crt 00000001800039e8     MSVCRT:utility.obj
 0002:000009e8       $unwind$??_GConnector@connector@monitoring@ibmras@@UEAAPEAXI@Z 00000001800039e8     APIConnector.obj
 0002:000009e8       $unwind$??0bad_alloc@std@@QEAA@AEBV01@@Z 00000001800039e8     MSVCRT:throw_bad_alloc.obj
 0002:000009e8       $unwind$__raise_securityfailure 00000001800039e8     MSVCRT:gs_report.obj
 0002:000009e8       $unwind$__scrt_uninitialize_crt 00000001800039e8     MSVCRT:utility.obj
 0002:000009e8       $unwind$?getID@APIConnector@1@UEAA?AV?$basic_string@DU?$char_traits@D@std@@V?$allocator@D@2@@std@@XZ 00000001800039e8     APIConnector.obj
 0002:000009e8       $unwind$??_Gtype_info@@UEAAPEAXI@Z 00000001800039e8     MSVCRT:std_type_info_static.obj
 0002:000009e8       $unwind$??_GAPIConnector@0@UEAAPEAXI@Z 00000001800039e8     APIConnector.obj
 0002:000009e8       $unwind$??0bad_array_new_length@std@@QEAA@AEBV01@@Z 00000001800039e8     MSVCRT:throw_bad_alloc.obj
 0002:000009e8       $unwind$??0exception@std@@QEAA@AEBV01@@Z 00000001800039e8     MSVCRT:throw_bad_alloc.obj
 0002:000009e8       $unwind$__scrt_release_startup_lock 00000001800039e8     MSVCRT:utility.obj
 0002:000009f0       $unwind$?sendMessage@APIConnector@1@UEAAHAEBV?$basic_string@DU?$char_traits@D@std@@V?$allocator@D@2@@std@@IPEAX@Z 00000001800039f0     APIConnector.obj
 0002:000009fc       $unwind$?__scrt_throw_std_bad_array_new_length@@YAXXZ 00000001800039fc     MSVCRT:throw_bad_alloc.obj
 0002:000009fc       $unwind$?__scrt_throw_std_bad_alloc@@YAXXZ 00000001800039fc     MSVCRT:throw_bad_alloc.obj
 0002:000009fc       $unwind$apiPushData        00000001800039fc     APIConnector.obj
 0002:00000a04       $unwind$sendControl        0000000180003a04     APIConnector.obj
 0002:00000a18       $unwind$ibmras_monitoring_registerPushSource 0000000180003a18     APIConnector.obj
 0002:00000a2c       $chain$0$ibmras_monitoring_registerPushSource 0000000180003a2c     APIConnector.obj
 0002:00000a40       $chain$1$ibmras_monitoring_registerPushSource 0000000180003a40     APIConnector.obj
 0002:00000a54       $chain$2$ibmras_monitoring_registerPushSource 0000000180003a54     APIConnector.obj
 0002:00000a68       $chain$3$ibmras_monitoring_registerPushSource 0000000180003a68     APIConnector.obj
 0002:00000a78       $chain$4$ibmras_monitoring_registerPushSource 0000000180003a78     APIConnector.obj
 0002:00000a88       $chain$5$ibmras_monitoring_registerPushSource 0000000180003a88     APIConnector.obj
 0002:00000a98       $unwind$__scrt_dllmain_uninitialize_critical 0000000180003a98     MSVCRT:utility.obj
 0002:00000a98       $unwind$__scrt_dllmain_crt_thread_detach 0000000180003a98     MSVCRT:utility.obj
 0002:00000a98       $unwind$__scrt_dllmain_uninitialize_c 0000000180003a98     MSVCRT:utility.obj
 0002:00000a98       $unwind$__scrt_dllmain_crt_thread_attach 0000000180003a98     MSVCRT:utility.obj
 0002:00000a98       $unwind$__GSHandlerCheck   0000000180003a98     MSVCRT:gshandler.obj
 0002:00000a98       $unwind$__scrt_initialize_default_local_stdio_options 0000000180003a98     MSVCRT:default_local_stdio_options.obj
 0002:00000a98       $unwind$?dllmain_crt_dispatch@@YAHQEAUHINSTANCE__@@KQEAX@Z 0000000180003a98     MSVCRT:dll_dllmain.obj
 0002:00000a98       $unwind$__scrt_acquire_startup_lock 0000000180003a98     MSVCRT:utility.obj
 0002:00000a98       $unwind$DllMain            0000000180003a98     MSVCRT:dll_dllmain_stub.obj
 0002:00000a98       $unwind$__scrt_dllmain_after_initialize_c 0000000180003a98     MSVCRT:utility.obj
 0002:00000a98       $unwind$ibmras_monitoring_getConnector 0000000180003a98     APIConnector.obj
 0002:00000a98       $unwind$__scrt_dllmain_before_initialize_c 0000000180003a98     MSVCRT:utility.obj
 0002:00000a98       $unwind$?_Xlen@?$basic_string@DU?$char_traits@D@std@@V?$allocator@D@2@@std@@SAXXZ 0000000180003a98     APIConnector.obj
 0002:00000aa0       $unwind$?assign@?$basic_string@DU?$char_traits@D@std@@V?$allocator@D@2@@std@@QEAAAEAV12@QEBD@Z 0000000180003aa0     APIConnector.obj
 0002:00000ab8       $unwind$??$_Reallocate_grow_by@V<lambda_65e615be2a453ca0576c979606f46740>@@PEBD_K@?$basic_string@DU?$char_traits@D@std@@V?$allocator@D@2@@std@@QEAAAEAV01@_KV<lambda_65e615be2a453ca0576c979606f46740>@@PEBD_K@Z 0000000180003ab8     APIConnector.obj
 0002:00000ac4       $chain$3$??$_Reallocate_grow_by@V<lambda_65e615be2a453ca0576c979606f46740>@@PEBD_K@?$basic_string@DU?$char_traits@D@std@@V?$allocator@D@2@@std@@QEAAAEAV01@_KV<lambda_65e615be2a453ca0576c979606f46740>@@PEBD_K@Z 0000000180003ac4     APIConnector.obj
 0002:00000ae4       $chain$4$??$_Reallocate_grow_by@V<lambda_65e615be2a453ca0576c979606f46740>@@PEBD_K@?$basic_string@DU?$char_traits@D@std@@V?$allocator@D@2@@std@@QEAAAEAV01@_KV<lambda_65e615be2a453ca0576c979606f46740>@@PEBD_K@Z 0000000180003ae4     APIConnector.obj
 0002:00000af8       $xdatasym                  0000000180003af8     MSVCRT:amdsecgs.obj
 0002:00000afc       $unwind$?dllmain_crt_process_attach@@YAHQEAUHINSTANCE__@@QEAX@Z 0000000180003afc     MSVCRT:dll_dllmain.obj
 0002:00000b38       $unwind$?fin$0@?0??dllmain_crt_process_detach@@YAH_N@Z@4HA 0000000180003b38     MSVCRT:dll_dllmain.obj
 0002:00000b38       $unwind$?fin$0@?0??dllmain_crt_process_attach@@YAHQEAUHINSTANCE__@@QEAX@Z@4HA 0000000180003b38     MSVCRT:dll_dllmain.obj
 0002:00000b40       $unwind$?dllmain_crt_process_detach@@YAH_N@Z 0000000180003b40     MSVCRT:dll_dllmain.obj
 0002:00000b78       $unwind$?dllmain_dispatch@@YAHQEAUHINSTANCE__@@KQEAX@Z 0000000180003b78     MSVCRT:dll_dllmain.obj
 0002:00000ba0       $unwind$?filt$0@?0??dllmain_dispatch@@YAHQEAUHINSTANCE__@@KQEAX@Z@4HA 0000000180003ba0     MSVCRT:dll_dllmain.obj
 0002:00000ba8       $unwind$_DllMainCRTStartup 0000000180003ba8     MSVCRT:dll_dllmain.obj
 0002:00000bb8       $unwind$__report_gsfailure 0000000180003bb8     MSVCRT:gs_report.obj
 0002:00000bc0       $unwind$capture_previous_context 0000000180003bc0     MSVCRT:gs_report.obj
 0002:00000bcc       $unwind$??_Gbad_alloc@std@@UEAAPEAXI@Z 0000000180003bcc     MSVCRT:throw_bad_alloc.obj
 0002:00000bcc       $unwind$??_Gexception@std@@UEAAPEAXI@Z 0000000180003bcc     MSVCRT:throw_bad_alloc.obj
 0002:00000bcc       $unwind$_RTC_Terminate     0000000180003bcc     MSVCRT:initsect.obj
 0002:00000bcc       $unwind$??_Gbad_array_new_length@std@@UEAAPEAXI@Z 0000000180003bcc     MSVCRT:throw_bad_alloc.obj
 0002:00000bcc       $unwind$_RTC_Initialize    0000000180003bcc     MSVCRT:initsect.obj
 0002:00000bd8       $unwind$__security_init_cookie 0000000180003bd8     MSVCRT:gs_support.obj
 0002:00000be4       $unwind$__scrt_is_nonwritable_in_current_image 0000000180003be4     MSVCRT:utility.obj
 0002:00000c04       $unwind$__scrt_is_nonwritable_in_current_image$filt$0 0000000180003c04     MSVCRT:utility.obj
 0002:00000c0c       $unwind$__scrt_initialize_onexit_tables 0000000180003c0c     MSVCRT:utility.obj
 0002:00000c14       $unwind$__scrt_dllmain_exception_filter 0000000180003c14     MSVCRT:utility.obj
 0002:00000c28       $unwind$__scrt_fastfail    0000000180003c28     MSVCRT:utility_desktop.obj
 0002:00000c38       $unwind$__isa_available_init 0000000180003c38     MSVCRT:cpu_disp.obj
 0002:00000c50       $xdatasym                  0000000180003c50     MSVCRT:guard_dispatch.obj
 0002:00000c54       $unwind$__GSHandlerCheckCommon 0000000180003c54     MSVCRT:gshandler.obj
 0002:00000d50       .edata                     0000000180003d50     hcapiplugin.exp
 0002:00000d78       rgpv                       0000000180003d78     hcapiplugin.exp
 0002:00000d9c       rgszName                   0000000180003d9c     hcapiplugin.exp
 0002:00000dc0       rgwOrd                     0000000180003dc0     hcapiplugin.exp
 0002:00000dd2       szName                     0000000180003dd2     hcapiplugin.exp
 0002:00000de2       $N00001                    0000000180003de2     hcapiplugin.exp
 0002:00000dee       $N00002                    0000000180003dee     hcapiplugin.exp
 0002:00000e01       $N00003                    0000000180003e01     hcapiplugin.exp
 0002:00000e20       $N00004                    0000000180003e20     hcapiplugin.exp
 0002:00000e3d       $N00005                    0000000180003e3d     hcapiplugin.exp
 0002:00000e5c       $N00006                    0000000180003e5c     hcapiplugin.exp
 0002:00000e7a       $N00007                    0000000180003e7a     hcapiplugin.exp
 0002:00000e9f       $N00008                    0000000180003e9f     hcapiplugin.exp
 0002:00000eb0       $N00009                    0000000180003eb0     hcapiplugin.exp
 0002:00001154       .idata$6                   0000000180004154     agentcore:agentcore.dll
 0002:00001184       .idata$6                   0000000180004184     msvcprt:MSVCP140.dll
 0002:0000121c       .idata$6                   000000018000421c     vcruntime:VCRUNTIME140.dll
 0002:00001318       .idata$6                   0000000180004318     ucrt:api-ms-win-crt-runtime-l1-1-0.dll
 0002:0000133a       .idata$6                   000000018000433a     ucrt:api-ms-win-crt-heap-l1-1-0.dll
 0002:000014c0       .idata$6                   00000001800044c0     kernel32:KERNEL32.dll
 0003:000000e0       ?__proc_attached@@3HA      00000001800050e0     MSVCRT:dll_dllmain.obj
 0003:000000f0       GS_ExceptionRecord         00000001800050f0     MSVCRT:gs_report.obj
 0003:00000190       GS_ContextRecord           0000000180005190     MSVCRT:gs_report.obj
 0003:00000690       ?is_initialized_as_dll@@3_NA 0000000180005690     MSVCRT:utility.obj
 0003:00000691       ?module_local_atexit_table_initialized@@3_NA 0000000180005691     MSVCRT:utility.obj
 0003:00000698       ?module_local_atexit_table@@3U_onexit_table_t@@A 0000000180005698     MSVCRT:utility.obj
 0003:000006b0       ?module_local_at_quick_exit_table@@3U_onexit_table_t@@A 00000001800056b0     MSVCRT:utility.obj
 0004:00000000       $pdata$?getID@Connector@connector@monitoring@ibmras@@UEAA?AV?$basic_string@DU?$char_traits@D@std@@V?$allocator@D@2@@std@@XZ 0000000180006000     APIConnector.obj
 0004:0000000c       $pdata$??_GConnector@connector@monitoring@ibmras@@UEAAPEAXI@Z 000000018000600c     APIConnector.obj
 0004:0000000c       $pdata$??_GAPIConnector@0@UEAAPEAXI@Z 000000018000600c     APIConnector.obj
 0004:00000018       $pdata$?getID@APIConnector@1@UEAA?AV?$basic_string@DU?$char_traits@D@std@@V?$allocator@D@2@@std@@XZ 0000000180006018     APIConnector.obj
 0004:00000024       $pdata$?sendMessage@APIConnector@1@UEAAHAEBV?$basic_string@DU?$char_traits@D@std@@V?$allocator@D@2@@std@@IPEAX@Z 0000000180006024     APIConnector.obj
 0004:00000030       $pdata$apiPushData         0000000180006030     APIConnector.obj
 0004:0000003c       $pdata$sendControl         000000018000603c     APIConnector.obj
 0004:00000048       $pdata$ibmras_monitoring_registerPushSource 0000000180006048     APIConnector.obj
 0004:00000054       $pdata$0$ibmras_monitoring_registerPushSource 0000000180006054     APIConnector.obj
 0004:00000060       $pdata$1$ibmras_monitoring_registerPushSource 0000000180006060     APIConnector.obj
 0004:0000006c       $pdata$2$ibmras_monitoring_registerPushSource 000000018000606c     APIConnector.obj
 0004:00000078       $pdata$3$ibmras_monitoring_registerPushSource 0000000180006078     APIConnector.obj
 0004:00000084       $pdata$4$ibmras_monitoring_registerPushSource 0000000180006084     APIConnector.obj
 0004:00000090       $pdata$5$ibmras_monitoring_registerPushSource 0000000180006090     APIConnector.obj
 0004:0000009c       $pdata$ibmras_monitoring_getConnector 000000018000609c     APIConnector.obj
 0004:000000a8       $pdata$?assign@?$basic_string@DU?$char_traits@D@std@@V?$allocator@D@2@@std@@QEAAAEAV12@QEBD@Z 00000001800060a8     APIConnector.obj
 0004:000000b4       $pdata$??$_Reallocate_grow_by@V<lambda_65e615be2a453ca0576c979606f46740>@@PEBD_K@?$basic_string@DU?$char_traits@D@std@@V?$allocator@D@2@@std@@QEAAAEAV01@_KV<lambda_65e615be2a453ca0576c979606f46740>@@PEBD_K@Z 00000001800060b4     APIConnector.obj
 0004:000000c0       $pdata$3$??$_Reallocate_grow_by@V<lambda_65e615be2a453ca0576c979606f46740>@@PEBD_K@?$basic_string@DU?$char_traits@D@std@@V?$allocator@D@2@@std@@QEAAAEAV01@_KV<lambda_65e615be2a453ca0576c979606f46740>@@PEBD_K@Z 00000001800060c0     APIConnector.obj
 0004:000000cc       $pdata$4$??$_Reallocate_grow_by@V<lambda_65e615be2a453ca0576c979606f46740>@@PEBD_K@?$basic_string@DU?$char_traits@D@std@@V?$allocator@D@2@@std@@QEAAAEAV01@_KV<lambda_65e615be2a453ca0576c979606f46740>@@PEBD_K@Z 00000001800060cc     APIConnector.obj
 0004:000000d8       $pdata$?_Xlen@?$basic_string@DU?$char_traits@D@std@@V?$allocator@D@2@@std@@SAXXZ 00000001800060d8     APIConnector.obj
 0004:000000f0       $pdata$??2@YAPEAX_K@Z      00000001800060f0     MSVCRT:new_scalar.obj
 0004:000000fc       $pdata$?dllmain_crt_dispatch@@YAHQEAUHINSTANCE__@@KQEAX@Z 00000001800060fc     MSVCRT:dll_dllmain.obj
 0004:00000108       $pdata$?dllmain_crt_process_attach@@YAHQEAUHINSTANCE__@@QEAX@Z 0000000180006108     MSVCRT:dll_dllmain.obj
 0004:00000114       $pdata$?dllmain_crt_process_detach@@YAH_N@Z 0000000180006114     MSVCRT:dll_dllmain.obj
 0004:00000120       $pdata$?dllmain_dispatch@@YAHQEAUHINSTANCE__@@KQEAX@Z 0000000180006120     MSVCRT:dll_dllmain.obj
 0004:0000012c       $pdata$_DllMainCRTStartup  000000018000612c     MSVCRT:dll_dllmain.obj
 0004:00000138       $pdata$__raise_securityfailure 0000000180006138     MSVCRT:gs_report.obj
 0004:00000144       $pdata$__report_gsfailure  0000000180006144     MSVCRT:gs_report.obj
 0004:00000150       $pdata$capture_previous_context 0000000180006150     MSVCRT:gs_report.obj
 0004:0000015c       $pdata$??0bad_alloc@std@@QEAA@AEBV01@@Z 000000018000615c     MSVCRT:throw_bad_alloc.obj
 0004:00000168       $pdata$??0bad_array_new_length@std@@QEAA@AEBV01@@Z 0000000180006168     MSVCRT:throw_bad_alloc.obj
 0004:00000174       $pdata$??0exception@std@@QEAA@AEBV01@@Z 0000000180006174     MSVCRT:throw_bad_alloc.obj
 0004:00000180       $pdata$??_Gexception@std@@UEAAPEAXI@Z 0000000180006180     MSVCRT:throw_bad_alloc.obj
 0004:00000180       $pdata$??_Gbad_array_new_length@std@@UEAAPEAXI@Z 0000000180006180     MSVCRT:throw_bad_alloc.obj
 0004:00000180       $pdata$??_Gbad_alloc@std@@UEAAPEAXI@Z 0000000180006180     MSVCRT:throw_bad_alloc.obj
 0004:0000018c       $pdata$?__scrt_throw_std_bad_alloc@@YAXXZ 000000018000618c     MSVCRT:throw_bad_alloc.obj
 0004:00000198       $pdata$?__scrt_throw_std_bad_array_new_length@@YAXXZ 0000000180006198     MSVCRT:throw_bad_alloc.obj
 0004:000001a4       $pdata$__security_init_cookie 00000001800061a4     MSVCRT:gs_support.obj
 0004:000001b0       $pdata$DllMain             00000001800061b0     MSVCRT:dll_dllmain_stub.obj
 0004:000001bc       $pdata$__scrt_initialize_default_local_stdio_options 00000001800061bc     MSVCRT:default_local_stdio_options.obj
 0004:000001c8       $pdata$__scrt_acquire_startup_lock 00000001800061c8     MSVCRT:utility.obj
 0004:000001d4       $pdata$__scrt_dllmain_after_initialize_c 00000001800061d4     MSVCRT:utility.obj
 0004:000001e0       $pdata$__scrt_dllmain_before_initialize_c 00000001800061e0     MSVCRT:utility.obj
 0004:000001ec       $pdata$__scrt_dllmain_crt_thread_attach 00000001800061ec     MSVCRT:utility.obj
 0004:000001f8       $pdata$__scrt_dllmain_crt_thread_detach 00000001800061f8     MSVCRT:utility.obj
 0004:00000204       $pdata$__scrt_dllmain_exception_filter 0000000180006204     MSVCRT:utility.obj
 0004:00000210       $pdata$__scrt_dllmain_uninitialize_c 0000000180006210     MSVCRT:utility.obj
 0004:0000021c       $pdata$__scrt_dllmain_uninitialize_critical 000000018000621c     MSVCRT:utility.obj
 0004:00000228       $pdata$__scrt_initialize_crt 0000000180006228     MSVCRT:utility.obj
 0004:00000234       $pdata$__scrt_initialize_onexit_tables 0000000180006234     MSVCRT:utility.obj
 0004:00000240       $pdata$__scrt_is_nonwritable_in_current_image 0000000180006240     MSVCRT:utility.obj
 0004:0000024c       $pdata$__scrt_release_startup_lock 000000018000624c     MSVCRT:utility.obj
 0004:00000258       $pdata$__scrt_uninitialize_crt 0000000180006258     MSVCRT:utility.obj
 0004:00000264       $pdata$__scrt_fastfail     0000000180006264     MSVCRT:utility_desktop.obj
 0004:00000270       $pdata$_RTC_Initialize     0000000180006270     MSVCRT:initsect.obj
 0004:0000027c       $pdata$_RTC_Terminate      000000018000627c     MSVCRT:initsect.obj
 0004:00000288       $pdata$??_Gtype_info@@UEAAPEAXI@Z 0000000180006288     MSVCRT:std_type_info_static.obj
 0004:00000294       $pdata$__isa_available_init 0000000180006294     MSVCRT:cpu_disp.obj
 0004:000002a0       $pdata$__GSHandlerCheck    00000001800062a0     MSVCRT:gshandler.obj
 0004:000002ac       $pdata$__GSHandlerCheckCommon 00000001800062ac     MSVCRT:gshandler.obj
 0004:000002c4       $pdata$?fin$0@?0??dllmain_crt_process_attach@@YAHQEAUHINSTANCE__@@QEAX@Z@4HA 00000001800062c4     MSVCRT:dll_dllmain.obj
 0004:000002d0       $pdata$?fin$0@?0??dllmain_crt_process_detach@@YAH_N@Z@4HA 00000001800062d0     MSVCRT:dll_dllmain.obj
 0004:000002dc       $pdata$?filt$0@?0??dllmain_dispatch@@YAHQEAUHINSTANCE__@@KQEAX@Z@4HA 00000001800062dc     MSVCRT:dll_dllmain.obj
 0004:000002e8       $pdata$__scrt_is_nonwritable_in_current_image$filt$0 00000001800062e8     MSVCRT:utility.obj
 0005:00000060       $R000000                   0000000180007060     * linker generated manifest res *

 Exports

  ordinal    name

        1    apiPushData
        2    deregisterListener
        3    ibmras_monitoring_getConnector
        4    ibmras_monitoring_getVersion
        5    ibmras_monitoring_plugin_start
        6    ibmras_monitoring_plugin_stop
        7    ibmras_monitoring_registerPushSource
        8    registerListener
        9    sendControl
